
a.out：     文件格式 elf64-x86-64


Disassembly of section .init:

0000000000002000 <_init>:
    2000:	f3 0f 1e fa          	endbr64 
    2004:	48 83 ec 08          	sub    $0x8,%rsp
    2008:	48 8b 05 c9 4f 02 00 	mov    0x24fc9(%rip),%rax        # 26fd8 <__gmon_start__@Base>
    200f:	48 85 c0             	test   %rax,%rax
    2012:	74 02                	je     2016 <_init+0x16>
    2014:	ff d0                	call   *%rax
    2016:	48 83 c4 08          	add    $0x8,%rsp
    201a:	c3                   	ret    

Disassembly of section .plt:

0000000000002020 <.plt>:
    2020:	ff 35 aa 4e 02 00    	push   0x24eaa(%rip)        # 26ed0 <_GLOBAL_OFFSET_TABLE_+0x8>
    2026:	f2 ff 25 ab 4e 02 00 	bnd jmp *0x24eab(%rip)        # 26ed8 <_GLOBAL_OFFSET_TABLE_+0x10>
    202d:	0f 1f 00             	nopl   (%rax)
    2030:	f3 0f 1e fa          	endbr64 
    2034:	68 00 00 00 00       	push   $0x0
    2039:	f2 e9 e1 ff ff ff    	bnd jmp 2020 <_init+0x20>
    203f:	90                   	nop
    2040:	f3 0f 1e fa          	endbr64 
    2044:	68 01 00 00 00       	push   $0x1
    2049:	f2 e9 d1 ff ff ff    	bnd jmp 2020 <_init+0x20>
    204f:	90                   	nop
    2050:	f3 0f 1e fa          	endbr64 
    2054:	68 02 00 00 00       	push   $0x2
    2059:	f2 e9 c1 ff ff ff    	bnd jmp 2020 <_init+0x20>
    205f:	90                   	nop
    2060:	f3 0f 1e fa          	endbr64 
    2064:	68 03 00 00 00       	push   $0x3
    2069:	f2 e9 b1 ff ff ff    	bnd jmp 2020 <_init+0x20>
    206f:	90                   	nop
    2070:	f3 0f 1e fa          	endbr64 
    2074:	68 04 00 00 00       	push   $0x4
    2079:	f2 e9 a1 ff ff ff    	bnd jmp 2020 <_init+0x20>
    207f:	90                   	nop
    2080:	f3 0f 1e fa          	endbr64 
    2084:	68 05 00 00 00       	push   $0x5
    2089:	f2 e9 91 ff ff ff    	bnd jmp 2020 <_init+0x20>
    208f:	90                   	nop
    2090:	f3 0f 1e fa          	endbr64 
    2094:	68 06 00 00 00       	push   $0x6
    2099:	f2 e9 81 ff ff ff    	bnd jmp 2020 <_init+0x20>
    209f:	90                   	nop
    20a0:	f3 0f 1e fa          	endbr64 
    20a4:	68 07 00 00 00       	push   $0x7
    20a9:	f2 e9 71 ff ff ff    	bnd jmp 2020 <_init+0x20>
    20af:	90                   	nop
    20b0:	f3 0f 1e fa          	endbr64 
    20b4:	68 08 00 00 00       	push   $0x8
    20b9:	f2 e9 61 ff ff ff    	bnd jmp 2020 <_init+0x20>
    20bf:	90                   	nop
    20c0:	f3 0f 1e fa          	endbr64 
    20c4:	68 09 00 00 00       	push   $0x9
    20c9:	f2 e9 51 ff ff ff    	bnd jmp 2020 <_init+0x20>
    20cf:	90                   	nop
    20d0:	f3 0f 1e fa          	endbr64 
    20d4:	68 0a 00 00 00       	push   $0xa
    20d9:	f2 e9 41 ff ff ff    	bnd jmp 2020 <_init+0x20>
    20df:	90                   	nop
    20e0:	f3 0f 1e fa          	endbr64 
    20e4:	68 0b 00 00 00       	push   $0xb
    20e9:	f2 e9 31 ff ff ff    	bnd jmp 2020 <_init+0x20>
    20ef:	90                   	nop
    20f0:	f3 0f 1e fa          	endbr64 
    20f4:	68 0c 00 00 00       	push   $0xc
    20f9:	f2 e9 21 ff ff ff    	bnd jmp 2020 <_init+0x20>
    20ff:	90                   	nop
    2100:	f3 0f 1e fa          	endbr64 
    2104:	68 0d 00 00 00       	push   $0xd
    2109:	f2 e9 11 ff ff ff    	bnd jmp 2020 <_init+0x20>
    210f:	90                   	nop
    2110:	f3 0f 1e fa          	endbr64 
    2114:	68 0e 00 00 00       	push   $0xe
    2119:	f2 e9 01 ff ff ff    	bnd jmp 2020 <_init+0x20>
    211f:	90                   	nop
    2120:	f3 0f 1e fa          	endbr64 
    2124:	68 0f 00 00 00       	push   $0xf
    2129:	f2 e9 f1 fe ff ff    	bnd jmp 2020 <_init+0x20>
    212f:	90                   	nop
    2130:	f3 0f 1e fa          	endbr64 
    2134:	68 10 00 00 00       	push   $0x10
    2139:	f2 e9 e1 fe ff ff    	bnd jmp 2020 <_init+0x20>
    213f:	90                   	nop
    2140:	f3 0f 1e fa          	endbr64 
    2144:	68 11 00 00 00       	push   $0x11
    2149:	f2 e9 d1 fe ff ff    	bnd jmp 2020 <_init+0x20>
    214f:	90                   	nop
    2150:	f3 0f 1e fa          	endbr64 
    2154:	68 12 00 00 00       	push   $0x12
    2159:	f2 e9 c1 fe ff ff    	bnd jmp 2020 <_init+0x20>
    215f:	90                   	nop
    2160:	f3 0f 1e fa          	endbr64 
    2164:	68 13 00 00 00       	push   $0x13
    2169:	f2 e9 b1 fe ff ff    	bnd jmp 2020 <_init+0x20>
    216f:	90                   	nop
    2170:	f3 0f 1e fa          	endbr64 
    2174:	68 14 00 00 00       	push   $0x14
    2179:	f2 e9 a1 fe ff ff    	bnd jmp 2020 <_init+0x20>
    217f:	90                   	nop
    2180:	f3 0f 1e fa          	endbr64 
    2184:	68 15 00 00 00       	push   $0x15
    2189:	f2 e9 91 fe ff ff    	bnd jmp 2020 <_init+0x20>
    218f:	90                   	nop
    2190:	f3 0f 1e fa          	endbr64 
    2194:	68 16 00 00 00       	push   $0x16
    2199:	f2 e9 81 fe ff ff    	bnd jmp 2020 <_init+0x20>
    219f:	90                   	nop
    21a0:	f3 0f 1e fa          	endbr64 
    21a4:	68 17 00 00 00       	push   $0x17
    21a9:	f2 e9 71 fe ff ff    	bnd jmp 2020 <_init+0x20>
    21af:	90                   	nop
    21b0:	f3 0f 1e fa          	endbr64 
    21b4:	68 18 00 00 00       	push   $0x18
    21b9:	f2 e9 61 fe ff ff    	bnd jmp 2020 <_init+0x20>
    21bf:	90                   	nop
    21c0:	f3 0f 1e fa          	endbr64 
    21c4:	68 19 00 00 00       	push   $0x19
    21c9:	f2 e9 51 fe ff ff    	bnd jmp 2020 <_init+0x20>
    21cf:	90                   	nop
    21d0:	f3 0f 1e fa          	endbr64 
    21d4:	68 1a 00 00 00       	push   $0x1a
    21d9:	f2 e9 41 fe ff ff    	bnd jmp 2020 <_init+0x20>
    21df:	90                   	nop
    21e0:	f3 0f 1e fa          	endbr64 
    21e4:	68 1b 00 00 00       	push   $0x1b
    21e9:	f2 e9 31 fe ff ff    	bnd jmp 2020 <_init+0x20>
    21ef:	90                   	nop
    21f0:	f3 0f 1e fa          	endbr64 
    21f4:	68 1c 00 00 00       	push   $0x1c
    21f9:	f2 e9 21 fe ff ff    	bnd jmp 2020 <_init+0x20>
    21ff:	90                   	nop

Disassembly of section .plt.got:

0000000000002200 <__cxa_finalize@plt>:
    2200:	f3 0f 1e fa          	endbr64 
    2204:	f2 ff 25 dd 4d 02 00 	bnd jmp *0x24ddd(%rip)        # 26fe8 <__cxa_finalize@GLIBC_2.2.5>
    220b:	0f 1f 44 00 00       	nopl   0x0(%rax,%rax,1)

Disassembly of section .plt.sec:

0000000000002210 <getenv@plt>:
    2210:	f3 0f 1e fa          	endbr64 
    2214:	f2 ff 25 c5 4c 02 00 	bnd jmp *0x24cc5(%rip)        # 26ee0 <getenv@GLIBC_2.2.5>
    221b:	0f 1f 44 00 00       	nopl   0x0(%rax,%rax,1)

0000000000002220 <free@plt>:
    2220:	f3 0f 1e fa          	endbr64 
    2224:	f2 ff 25 bd 4c 02 00 	bnd jmp *0x24cbd(%rip)        # 26ee8 <free@GLIBC_2.2.5>
    222b:	0f 1f 44 00 00       	nopl   0x0(%rax,%rax,1)

0000000000002230 <strncpy@plt>:
    2230:	f3 0f 1e fa          	endbr64 
    2234:	f2 ff 25 b5 4c 02 00 	bnd jmp *0x24cb5(%rip)        # 26ef0 <strncpy@GLIBC_2.2.5>
    223b:	0f 1f 44 00 00       	nopl   0x0(%rax,%rax,1)

0000000000002240 <ferror@plt>:
    2240:	f3 0f 1e fa          	endbr64 
    2244:	f2 ff 25 ad 4c 02 00 	bnd jmp *0x24cad(%rip)        # 26ef8 <ferror@GLIBC_2.2.5>
    224b:	0f 1f 44 00 00       	nopl   0x0(%rax,%rax,1)

0000000000002250 <fread@plt>:
    2250:	f3 0f 1e fa          	endbr64 
    2254:	f2 ff 25 a5 4c 02 00 	bnd jmp *0x24ca5(%rip)        # 26f00 <fread@GLIBC_2.2.5>
    225b:	0f 1f 44 00 00       	nopl   0x0(%rax,%rax,1)

0000000000002260 <fclose@plt>:
    2260:	f3 0f 1e fa          	endbr64 
    2264:	f2 ff 25 9d 4c 02 00 	bnd jmp *0x24c9d(%rip)        # 26f08 <fclose@GLIBC_2.2.5>
    226b:	0f 1f 44 00 00       	nopl   0x0(%rax,%rax,1)

0000000000002270 <xopenme_clock_start@plt>:
    2270:	f3 0f 1e fa          	endbr64 
    2274:	f2 ff 25 95 4c 02 00 	bnd jmp *0x24c95(%rip)        # 26f10 <xopenme_clock_start@Base>
    227b:	0f 1f 44 00 00       	nopl   0x0(%rax,%rax,1)

0000000000002280 <__stack_chk_fail@plt>:
    2280:	f3 0f 1e fa          	endbr64 
    2284:	f2 ff 25 8d 4c 02 00 	bnd jmp *0x24c8d(%rip)        # 26f18 <__stack_chk_fail@GLIBC_2.4>
    228b:	0f 1f 44 00 00       	nopl   0x0(%rax,%rax,1)

0000000000002290 <xopenme_dump_state@plt>:
    2290:	f3 0f 1e fa          	endbr64 
    2294:	f2 ff 25 85 4c 02 00 	bnd jmp *0x24c85(%rip)        # 26f20 <xopenme_dump_state@Base>
    229b:	0f 1f 44 00 00       	nopl   0x0(%rax,%rax,1)

00000000000022a0 <fputs@plt>:
    22a0:	f3 0f 1e fa          	endbr64 
    22a4:	f2 ff 25 7d 4c 02 00 	bnd jmp *0x24c7d(%rip)        # 26f28 <fputs@GLIBC_2.2.5>
    22ab:	0f 1f 44 00 00       	nopl   0x0(%rax,%rax,1)

00000000000022b0 <tmpfile@plt>:
    22b0:	f3 0f 1e fa          	endbr64 
    22b4:	f2 ff 25 75 4c 02 00 	bnd jmp *0x24c75(%rip)        # 26f30 <tmpfile@GLIBC_2.2.5>
    22bb:	0f 1f 44 00 00       	nopl   0x0(%rax,%rax,1)

00000000000022c0 <xopenme_finish@plt>:
    22c0:	f3 0f 1e fa          	endbr64 
    22c4:	f2 ff 25 6d 4c 02 00 	bnd jmp *0x24c6d(%rip)        # 26f38 <xopenme_finish@Base>
    22cb:	0f 1f 44 00 00       	nopl   0x0(%rax,%rax,1)

00000000000022d0 <tolower@plt>:
    22d0:	f3 0f 1e fa          	endbr64 
    22d4:	f2 ff 25 65 4c 02 00 	bnd jmp *0x24c65(%rip)        # 26f40 <tolower@GLIBC_2.2.5>
    22db:	0f 1f 44 00 00       	nopl   0x0(%rax,%rax,1)

00000000000022e0 <malloc@plt>:
    22e0:	f3 0f 1e fa          	endbr64 
    22e4:	f2 ff 25 5d 4c 02 00 	bnd jmp *0x24c5d(%rip)        # 26f48 <malloc@GLIBC_2.2.5>
    22eb:	0f 1f 44 00 00       	nopl   0x0(%rax,%rax,1)

00000000000022f0 <fflush@plt>:
    22f0:	f3 0f 1e fa          	endbr64 
    22f4:	f2 ff 25 55 4c 02 00 	bnd jmp *0x24c55(%rip)        # 26f50 <fflush@GLIBC_2.2.5>
    22fb:	0f 1f 44 00 00       	nopl   0x0(%rax,%rax,1)

0000000000002300 <__isoc99_sscanf@plt>:
    2300:	f3 0f 1e fa          	endbr64 
    2304:	f2 ff 25 4d 4c 02 00 	bnd jmp *0x24c4d(%rip)        # 26f58 <__isoc99_sscanf@GLIBC_2.7>
    230b:	0f 1f 44 00 00       	nopl   0x0(%rax,%rax,1)

0000000000002310 <ungetc@plt>:
    2310:	f3 0f 1e fa          	endbr64 
    2314:	f2 ff 25 45 4c 02 00 	bnd jmp *0x24c45(%rip)        # 26f60 <ungetc@GLIBC_2.2.5>
    231b:	0f 1f 44 00 00       	nopl   0x0(%rax,%rax,1)

0000000000002320 <fseek@plt>:
    2320:	f3 0f 1e fa          	endbr64 
    2324:	f2 ff 25 3d 4c 02 00 	bnd jmp *0x24c3d(%rip)        # 26f68 <fseek@GLIBC_2.2.5>
    232b:	0f 1f 44 00 00       	nopl   0x0(%rax,%rax,1)

0000000000002330 <__fread_chk@plt>:
    2330:	f3 0f 1e fa          	endbr64 
    2334:	f2 ff 25 35 4c 02 00 	bnd jmp *0x24c35(%rip)        # 26f70 <__fread_chk@GLIBC_2.7>
    233b:	0f 1f 44 00 00       	nopl   0x0(%rax,%rax,1)

0000000000002340 <xopenme_init@plt>:
    2340:	f3 0f 1e fa          	endbr64 
    2344:	f2 ff 25 2d 4c 02 00 	bnd jmp *0x24c2d(%rip)        # 26f78 <xopenme_init@Base>
    234b:	0f 1f 44 00 00       	nopl   0x0(%rax,%rax,1)

0000000000002350 <atol@plt>:
    2350:	f3 0f 1e fa          	endbr64 
    2354:	f2 ff 25 25 4c 02 00 	bnd jmp *0x24c25(%rip)        # 26f80 <atol@GLIBC_2.2.5>
    235b:	0f 1f 44 00 00       	nopl   0x0(%rax,%rax,1)

0000000000002360 <fopen@plt>:
    2360:	f3 0f 1e fa          	endbr64 
    2364:	f2 ff 25 1d 4c 02 00 	bnd jmp *0x24c1d(%rip)        # 26f88 <fopen@GLIBC_2.2.5>
    236b:	0f 1f 44 00 00       	nopl   0x0(%rax,%rax,1)

0000000000002370 <xopenme_clock_end@plt>:
    2370:	f3 0f 1e fa          	endbr64 
    2374:	f2 ff 25 15 4c 02 00 	bnd jmp *0x24c15(%rip)        # 26f90 <xopenme_clock_end@Base>
    237b:	0f 1f 44 00 00       	nopl   0x0(%rax,%rax,1)

0000000000002380 <exit@plt>:
    2380:	f3 0f 1e fa          	endbr64 
    2384:	f2 ff 25 0d 4c 02 00 	bnd jmp *0x24c0d(%rip)        # 26f98 <exit@GLIBC_2.2.5>
    238b:	0f 1f 44 00 00       	nopl   0x0(%rax,%rax,1)

0000000000002390 <fwrite@plt>:
    2390:	f3 0f 1e fa          	endbr64 
    2394:	f2 ff 25 05 4c 02 00 	bnd jmp *0x24c05(%rip)        # 26fa0 <fwrite@GLIBC_2.2.5>
    239b:	0f 1f 44 00 00       	nopl   0x0(%rax,%rax,1)

00000000000023a0 <__fprintf_chk@plt>:
    23a0:	f3 0f 1e fa          	endbr64 
    23a4:	f2 ff 25 fd 4b 02 00 	bnd jmp *0x24bfd(%rip)        # 26fa8 <__fprintf_chk@GLIBC_2.3.4>
    23ab:	0f 1f 44 00 00       	nopl   0x0(%rax,%rax,1)

00000000000023b0 <getc@plt>:
    23b0:	f3 0f 1e fa          	endbr64 
    23b4:	f2 ff 25 f5 4b 02 00 	bnd jmp *0x24bf5(%rip)        # 26fb0 <getc@GLIBC_2.2.5>
    23bb:	0f 1f 44 00 00       	nopl   0x0(%rax,%rax,1)

00000000000023c0 <__ctype_b_loc@plt>:
    23c0:	f3 0f 1e fa          	endbr64 
    23c4:	f2 ff 25 ed 4b 02 00 	bnd jmp *0x24bed(%rip)        # 26fb8 <__ctype_b_loc@GLIBC_2.3>
    23cb:	0f 1f 44 00 00       	nopl   0x0(%rax,%rax,1)

00000000000023d0 <__sprintf_chk@plt>:
    23d0:	f3 0f 1e fa          	endbr64 
    23d4:	f2 ff 25 e5 4b 02 00 	bnd jmp *0x24be5(%rip)        # 26fc0 <__sprintf_chk@GLIBC_2.3.4>
    23db:	0f 1f 44 00 00       	nopl   0x0(%rax,%rax,1)

Disassembly of section .text:

00000000000023e0 <main>:
    23e0:	f3 0f 1e fa          	endbr64 
    23e4:	41 56                	push   %r14
    23e6:	41 55                	push   %r13
    23e8:	41 54                	push   %r12
    23ea:	4c 8d 25 1a 97 01 00 	lea    0x1971a(%rip),%r12        # 1bb0b <_IO_stdin_used+0xb0b>
    23f1:	49 89 f5             	mov    %rsi,%r13
    23f4:	55                   	push   %rbp
    23f5:	89 fd                	mov    %edi,%ebp
    23f7:	bf 01 00 00 00       	mov    $0x1,%edi
    23fc:	31 f6                	xor    %esi,%esi
    23fe:	53                   	push   %rbx
    23ff:	bb 01 00 00 00       	mov    $0x1,%ebx
    2404:	e8 37 ff ff ff       	call   2340 <xopenme_init@plt>
    2409:	4c 89 e7             	mov    %r12,%rdi
    240c:	e8 ff fd ff ff       	call   2210 <getenv@plt>
    2411:	48 85 c0             	test   %rax,%rax
    2414:	74 13                	je     2429 <main+0x49>
    2416:	4c 89 e7             	mov    %r12,%rdi
    2419:	e8 f2 fd ff ff       	call   2210 <getenv@plt>
    241e:	48 89 c7             	mov    %rax,%rdi
    2421:	e8 2a ff ff ff       	call   2350 <atol@plt>
    2426:	48 89 c3             	mov    %rax,%rbx
    2429:	31 ff                	xor    %edi,%edi
    242b:	45 31 e4             	xor    %r12d,%r12d
    242e:	45 31 f6             	xor    %r14d,%r14d
    2431:	e8 3a fe ff ff       	call   2270 <xopenme_clock_start@plt>
    2436:	4c 89 ee             	mov    %r13,%rsi
    2439:	89 ef                	mov    %ebp,%edi
    243b:	49 39 de             	cmp    %rbx,%r14
    243e:	7d 12                	jge    2452 <main+0x72>
    2440:	e8 c0 0a 00 00       	call   2f05 <main1>
    2445:	4c 89 ee             	mov    %r13,%rsi
    2448:	89 ef                	mov    %ebp,%edi
    244a:	49 ff c6             	inc    %r14
    244d:	41 89 c4             	mov    %eax,%r12d
    2450:	eb e9                	jmp    243b <main+0x5b>
    2452:	31 ff                	xor    %edi,%edi
    2454:	e8 17 ff ff ff       	call   2370 <xopenme_clock_end@plt>
    2459:	e8 32 fe ff ff       	call   2290 <xopenme_dump_state@plt>
    245e:	e8 5d fe ff ff       	call   22c0 <xopenme_finish@plt>
    2463:	44 89 e0             	mov    %r12d,%eax
    2466:	5b                   	pop    %rbx
    2467:	5d                   	pop    %rbp
    2468:	41 5c                	pop    %r12
    246a:	41 5d                	pop    %r13
    246c:	41 5e                	pop    %r14
    246e:	c3                   	ret    
    246f:	90                   	nop

0000000000002470 <_start>:
    2470:	f3 0f 1e fa          	endbr64 
    2474:	31 ed                	xor    %ebp,%ebp
    2476:	49 89 d1             	mov    %rdx,%r9
    2479:	5e                   	pop    %rsi
    247a:	48 89 e2             	mov    %rsp,%rdx
    247d:	48 83 e4 f0          	and    $0xfffffffffffffff0,%rsp
    2481:	50                   	push   %rax
    2482:	54                   	push   %rsp
    2483:	45 31 c0             	xor    %r8d,%r8d
    2486:	31 c9                	xor    %ecx,%ecx
    2488:	48 8d 3d 51 ff ff ff 	lea    -0xaf(%rip),%rdi        # 23e0 <main>
    248f:	ff 15 33 4b 02 00    	call   *0x24b33(%rip)        # 26fc8 <__libc_start_main@GLIBC_2.34>
    2495:	f4                   	hlt    
    2496:	66 2e 0f 1f 84 00 00 	cs nopw 0x0(%rax,%rax,1)
    249d:	00 00 00 

00000000000024a0 <deregister_tm_clones>:
    24a0:	48 8d 3d 69 4b 02 00 	lea    0x24b69(%rip),%rdi        # 27010 <__TMC_END__>
    24a7:	48 8d 05 62 4b 02 00 	lea    0x24b62(%rip),%rax        # 27010 <__TMC_END__>
    24ae:	48 39 f8             	cmp    %rdi,%rax
    24b1:	74 15                	je     24c8 <deregister_tm_clones+0x28>
    24b3:	48 8b 05 16 4b 02 00 	mov    0x24b16(%rip),%rax        # 26fd0 <_ITM_deregisterTMCloneTable@Base>
    24ba:	48 85 c0             	test   %rax,%rax
    24bd:	74 09                	je     24c8 <deregister_tm_clones+0x28>
    24bf:	ff e0                	jmp    *%rax
    24c1:	0f 1f 80 00 00 00 00 	nopl   0x0(%rax)
    24c8:	c3                   	ret    
    24c9:	0f 1f 80 00 00 00 00 	nopl   0x0(%rax)

00000000000024d0 <register_tm_clones>:
    24d0:	48 8d 3d 39 4b 02 00 	lea    0x24b39(%rip),%rdi        # 27010 <__TMC_END__>
    24d7:	48 8d 35 32 4b 02 00 	lea    0x24b32(%rip),%rsi        # 27010 <__TMC_END__>
    24de:	48 29 fe             	sub    %rdi,%rsi
    24e1:	48 89 f0             	mov    %rsi,%rax
    24e4:	48 c1 ee 3f          	shr    $0x3f,%rsi
    24e8:	48 c1 f8 03          	sar    $0x3,%rax
    24ec:	48 01 c6             	add    %rax,%rsi
    24ef:	48 d1 fe             	sar    %rsi
    24f2:	74 14                	je     2508 <register_tm_clones+0x38>
    24f4:	48 8b 05 e5 4a 02 00 	mov    0x24ae5(%rip),%rax        # 26fe0 <_ITM_registerTMCloneTable@Base>
    24fb:	48 85 c0             	test   %rax,%rax
    24fe:	74 08                	je     2508 <register_tm_clones+0x38>
    2500:	ff e0                	jmp    *%rax
    2502:	66 0f 1f 44 00 00    	nopw   0x0(%rax,%rax,1)
    2508:	c3                   	ret    
    2509:	0f 1f 80 00 00 00 00 	nopl   0x0(%rax)

0000000000002510 <__do_global_dtors_aux>:
    2510:	f3 0f 1e fa          	endbr64 
    2514:	80 3d 2d 4b 02 00 00 	cmpb   $0x0,0x24b2d(%rip)        # 27048 <completed.0>
    251b:	75 2b                	jne    2548 <__do_global_dtors_aux+0x38>
    251d:	55                   	push   %rbp
    251e:	48 83 3d c2 4a 02 00 	cmpq   $0x0,0x24ac2(%rip)        # 26fe8 <__cxa_finalize@GLIBC_2.2.5>
    2525:	00 
    2526:	48 89 e5             	mov    %rsp,%rbp
    2529:	74 0c                	je     2537 <__do_global_dtors_aux+0x27>
    252b:	48 8b 3d d6 4a 02 00 	mov    0x24ad6(%rip),%rdi        # 27008 <__dso_handle>
    2532:	e8 c9 fc ff ff       	call   2200 <__cxa_finalize@plt>
    2537:	e8 64 ff ff ff       	call   24a0 <deregister_tm_clones>
    253c:	c6 05 05 4b 02 00 01 	movb   $0x1,0x24b05(%rip)        # 27048 <completed.0>
    2543:	5d                   	pop    %rbp
    2544:	c3                   	ret    
    2545:	0f 1f 00             	nopl   (%rax)
    2548:	c3                   	ret    
    2549:	0f 1f 80 00 00 00 00 	nopl   0x0(%rax)

0000000000002550 <frame_dummy>:
    2550:	f3 0f 1e fa          	endbr64 
    2554:	e9 77 ff ff ff       	jmp    24d0 <register_tm_clones>

0000000000002559 <__bswap_16>:
    2559:	f3 0f 1e fa          	endbr64 
    255d:	89 f8                	mov    %edi,%eax
    255f:	86 e0                	xchg   %ah,%al
    2561:	c3                   	ret    

0000000000002562 <__bswap_32>:
    2562:	f3 0f 1e fa          	endbr64 
    2566:	89 f8                	mov    %edi,%eax
    2568:	0f c8                	bswap  %eax
    256a:	c3                   	ret    

000000000000256b <__bswap_64>:
    256b:	f3 0f 1e fa          	endbr64 
    256f:	48 89 f8             	mov    %rdi,%rax
    2572:	48 0f c8             	bswap  %rax
    2575:	c3                   	ret    

0000000000002576 <__uint16_identity>:
    2576:	f3 0f 1e fa          	endbr64 
    257a:	89 f8                	mov    %edi,%eax
    257c:	c3                   	ret    

000000000000257d <__uint32_identity>:
    257d:	f3 0f 1e fa          	endbr64 
    2581:	89 f8                	mov    %edi,%eax
    2583:	c3                   	ret    

0000000000002584 <__uint64_identity>:
    2584:	f3 0f 1e fa          	endbr64 
    2588:	48 89 f8             	mov    %rdi,%rax
    258b:	c3                   	ret    

000000000000258c <keymatch>:
    258c:	f3 0f 1e fa          	endbr64 
    2590:	41 57                	push   %r15
    2592:	41 56                	push   %r14
    2594:	41 55                	push   %r13
    2596:	49 89 f5             	mov    %rsi,%r13
    2599:	45 31 f6             	xor    %r14d,%r14d
    259c:	41 54                	push   %r12
    259e:	55                   	push   %rbp
    259f:	53                   	push   %rbx
    25a0:	48 89 fd             	mov    %rdi,%rbp
    25a3:	48 83 ec 18          	sub    $0x18,%rsp
    25a7:	89 54 24 0c          	mov    %edx,0xc(%rsp)
    25ab:	42 0f be 5c 35 00    	movsbl 0x0(%rbp,%r14,1),%ebx
    25b1:	85 db                	test   %ebx,%ebx
    25b3:	4c 0f be e3          	movsbq %bl,%r12
    25b7:	74 36                	je     25ef <keymatch+0x63>
    25b9:	47 0f be 7c 35 00    	movsbl 0x0(%r13,%r14,1),%r15d
    25bf:	45 85 ff             	test   %r15d,%r15d
    25c2:	74 37                	je     25fb <keymatch+0x6f>
    25c4:	e8 f7 fd ff ff       	call   23c0 <__ctype_b_loc@plt>
    25c9:	48 8b 10             	mov    (%rax),%rdx
    25cc:	89 df                	mov    %ebx,%edi
    25ce:	42 f6 44 62 01 01    	testb  $0x1,0x1(%rdx,%r12,2)
    25d4:	74 0c                	je     25e2 <keymatch+0x56>
    25d6:	e8 f5 fc ff ff       	call   22d0 <tolower@plt>
    25db:	49 ff c6             	inc    %r14
    25de:	89 c3                	mov    %eax,%ebx
    25e0:	eb 03                	jmp    25e5 <keymatch+0x59>
    25e2:	49 ff c6             	inc    %r14
    25e5:	44 39 fb             	cmp    %r15d,%ebx
    25e8:	74 c1                	je     25ab <keymatch+0x1f>
    25ea:	45 31 ff             	xor    %r15d,%r15d
    25ed:	eb 0c                	jmp    25fb <keymatch+0x6f>
    25ef:	45 31 ff             	xor    %r15d,%r15d
    25f2:	44 3b 74 24 0c       	cmp    0xc(%rsp),%r14d
    25f7:	41 0f 9d c7          	setge  %r15b
    25fb:	48 83 c4 18          	add    $0x18,%rsp
    25ff:	44 89 f8             	mov    %r15d,%eax
    2602:	5b                   	pop    %rbx
    2603:	5d                   	pop    %rbp
    2604:	41 5c                	pop    %r12
    2606:	41 5d                	pop    %r13
    2608:	41 5e                	pop    %r14
    260a:	41 5f                	pop    %r15
    260c:	c3                   	ret    

000000000000260d <read_stdin>:
    260d:	f3 0f 1e fa          	endbr64 
    2611:	48 8b 05 18 4a 02 00 	mov    0x24a18(%rip),%rax        # 27030 <stdin@GLIBC_2.2.5>
    2618:	c3                   	ret    

0000000000002619 <write_stdout>:
    2619:	f3 0f 1e fa          	endbr64 
    261d:	48 8b 05 fc 49 02 00 	mov    0x249fc(%rip),%rax        # 27020 <stdout@GLIBC_2.2.5>
    2624:	c3                   	ret    

0000000000002625 <usage>:
    2625:	41 54                	push   %r12
    2627:	48 8b 0d 2a 4a 02 00 	mov    0x24a2a(%rip),%rcx        # 27058 <progname>
    262e:	be 01 00 00 00       	mov    $0x1,%esi
    2633:	31 c0                	xor    %eax,%eax
    2635:	48 8b 3d 04 4a 02 00 	mov    0x24a04(%rip),%rdi        # 27040 <stderr@GLIBC_2.2.5>
    263c:	48 8d 15 c1 89 01 00 	lea    0x189c1(%rip),%rdx        # 1b004 <_IO_stdin_used+0x4>
    2643:	4c 8d 25 34 8b 01 00 	lea    0x18b34(%rip),%r12        # 1b17e <_IO_stdin_used+0x17e>
    264a:	e8 51 fd ff ff       	call   23a0 <__fprintf_chk@plt>
    264f:	48 8b 35 ea 49 02 00 	mov    0x249ea(%rip),%rsi        # 27040 <stderr@GLIBC_2.2.5>
    2656:	48 8d 3d bd 89 01 00 	lea    0x189bd(%rip),%rdi        # 1b01a <_IO_stdin_used+0x1a>
    265d:	e8 3e fc ff ff       	call   22a0 <fputs@plt>
    2662:	48 8b 35 d7 49 02 00 	mov    0x249d7(%rip),%rsi        # 27040 <stderr@GLIBC_2.2.5>
    2669:	48 8d 3d b7 89 01 00 	lea    0x189b7(%rip),%rdi        # 1b027 <_IO_stdin_used+0x27>
    2670:	e8 2b fc ff ff       	call   22a0 <fputs@plt>
    2675:	48 8b 35 c4 49 02 00 	mov    0x249c4(%rip),%rsi        # 27040 <stderr@GLIBC_2.2.5>
    267c:	48 8d 3d ca 89 01 00 	lea    0x189ca(%rip),%rdi        # 1b04d <_IO_stdin_used+0x4d>
    2683:	e8 18 fc ff ff       	call   22a0 <fputs@plt>
    2688:	48 8b 35 b1 49 02 00 	mov    0x249b1(%rip),%rsi        # 27040 <stderr@GLIBC_2.2.5>
    268f:	48 8d 3d fc 89 01 00 	lea    0x189fc(%rip),%rdi        # 1b092 <_IO_stdin_used+0x92>
    2696:	e8 05 fc ff ff       	call   22a0 <fputs@plt>
    269b:	48 8b 35 9e 49 02 00 	mov    0x2499e(%rip),%rsi        # 27040 <stderr@GLIBC_2.2.5>
    26a2:	48 8d 3d 17 8a 01 00 	lea    0x18a17(%rip),%rdi        # 1b0c0 <_IO_stdin_used+0xc0>
    26a9:	e8 f2 fb ff ff       	call   22a0 <fputs@plt>
    26ae:	48 8b 35 8b 49 02 00 	mov    0x2498b(%rip),%rsi        # 27040 <stderr@GLIBC_2.2.5>
    26b5:	48 8d 3d 52 8a 01 00 	lea    0x18a52(%rip),%rdi        # 1b10e <_IO_stdin_used+0x10e>
    26bc:	e8 df fb ff ff       	call   22a0 <fputs@plt>
    26c1:	48 8b 35 78 49 02 00 	mov    0x24978(%rip),%rsi        # 27040 <stderr@GLIBC_2.2.5>
    26c8:	48 8d 3d 6e 8a 01 00 	lea    0x18a6e(%rip),%rdi        # 1b13d <_IO_stdin_used+0x13d>
    26cf:	e8 cc fb ff ff       	call   22a0 <fputs@plt>
    26d4:	48 8b 35 65 49 02 00 	mov    0x24965(%rip),%rsi        # 27040 <stderr@GLIBC_2.2.5>
    26db:	48 8d 3d 9d 8a 01 00 	lea    0x18a9d(%rip),%rdi        # 1b17f <_IO_stdin_used+0x17f>
    26e2:	e8 b9 fb ff ff       	call   22a0 <fputs@plt>
    26e7:	48 8b 3d 52 49 02 00 	mov    0x24952(%rip),%rdi        # 27040 <stderr@GLIBC_2.2.5>
    26ee:	48 8d 0d a8 8a 01 00 	lea    0x18aa8(%rip),%rcx        # 1b19d <_IO_stdin_used+0x19d>
    26f5:	48 8d 15 ac 8a 01 00 	lea    0x18aac(%rip),%rdx        # 1b1a8 <_IO_stdin_used+0x1a8>
    26fc:	31 c0                	xor    %eax,%eax
    26fe:	be 01 00 00 00       	mov    $0x1,%esi
    2703:	e8 98 fc ff ff       	call   23a0 <__fprintf_chk@plt>
    2708:	48 8b 3d 31 49 02 00 	mov    0x24931(%rip),%rdi        # 27040 <stderr@GLIBC_2.2.5>
    270f:	4c 89 e1             	mov    %r12,%rcx
    2712:	be 01 00 00 00       	mov    $0x1,%esi
    2717:	31 c0                	xor    %eax,%eax
    2719:	48 8d 15 b3 8a 01 00 	lea    0x18ab3(%rip),%rdx        # 1b1d3 <_IO_stdin_used+0x1d3>
    2720:	e8 7b fc ff ff       	call   23a0 <__fprintf_chk@plt>
    2725:	48 8b 3d 14 49 02 00 	mov    0x24914(%rip),%rdi        # 27040 <stderr@GLIBC_2.2.5>
    272c:	4c 89 e1             	mov    %r12,%rcx
    272f:	be 01 00 00 00       	mov    $0x1,%esi
    2734:	31 c0                	xor    %eax,%eax
    2736:	48 8d 15 cf 8a 01 00 	lea    0x18acf(%rip),%rdx        # 1b20c <_IO_stdin_used+0x20c>
    273d:	e8 5e fc ff ff       	call   23a0 <__fprintf_chk@plt>
    2742:	48 8b 35 f7 48 02 00 	mov    0x248f7(%rip),%rsi        # 27040 <stderr@GLIBC_2.2.5>
    2749:	48 8d 3d ee 8a 01 00 	lea    0x18aee(%rip),%rdi        # 1b23e <_IO_stdin_used+0x23e>
    2750:	e8 4b fb ff ff       	call   22a0 <fputs@plt>
    2755:	48 8b 35 e4 48 02 00 	mov    0x248e4(%rip),%rsi        # 27040 <stderr@GLIBC_2.2.5>
    275c:	48 8d 3d 1f 8b 01 00 	lea    0x18b1f(%rip),%rdi        # 1b282 <_IO_stdin_used+0x282>
    2763:	e8 38 fb ff ff       	call   22a0 <fputs@plt>
    2768:	48 8b 35 d1 48 02 00 	mov    0x248d1(%rip),%rsi        # 27040 <stderr@GLIBC_2.2.5>
    276f:	48 8d 3d 4b 8b 01 00 	lea    0x18b4b(%rip),%rdi        # 1b2c1 <_IO_stdin_used+0x2c1>
    2776:	e8 25 fb ff ff       	call   22a0 <fputs@plt>
    277b:	48 8b 35 be 48 02 00 	mov    0x248be(%rip),%rsi        # 27040 <stderr@GLIBC_2.2.5>
    2782:	48 8d 3d 6c 8b 01 00 	lea    0x18b6c(%rip),%rdi        # 1b2f5 <_IO_stdin_used+0x2f5>
    2789:	e8 12 fb ff ff       	call   22a0 <fputs@plt>
    278e:	48 8b 35 ab 48 02 00 	mov    0x248ab(%rip),%rsi        # 27040 <stderr@GLIBC_2.2.5>
    2795:	48 8d 3d 88 8b 01 00 	lea    0x18b88(%rip),%rdi        # 1b324 <_IO_stdin_used+0x324>
    279c:	e8 ff fa ff ff       	call   22a0 <fputs@plt>
    27a1:	48 8b 35 98 48 02 00 	mov    0x24898(%rip),%rsi        # 27040 <stderr@GLIBC_2.2.5>
    27a8:	48 8d 3d a1 8b 01 00 	lea    0x18ba1(%rip),%rdi        # 1b350 <_IO_stdin_used+0x350>
    27af:	e8 ec fa ff ff       	call   22a0 <fputs@plt>
    27b4:	48 8b 35 85 48 02 00 	mov    0x24885(%rip),%rsi        # 27040 <stderr@GLIBC_2.2.5>
    27bb:	48 8d 3d a5 8b 01 00 	lea    0x18ba5(%rip),%rdi        # 1b367 <_IO_stdin_used+0x367>
    27c2:	e8 d9 fa ff ff       	call   22a0 <fputs@plt>
    27c7:	48 8b 35 72 48 02 00 	mov    0x24872(%rip),%rsi        # 27040 <stderr@GLIBC_2.2.5>
    27ce:	48 8d 3d ba 8b 01 00 	lea    0x18bba(%rip),%rdi        # 1b38f <_IO_stdin_used+0x38f>
    27d5:	e8 c6 fa ff ff       	call   22a0 <fputs@plt>
    27da:	48 8b 35 5f 48 02 00 	mov    0x2485f(%rip),%rsi        # 27040 <stderr@GLIBC_2.2.5>
    27e1:	48 8d 3d df 8b 01 00 	lea    0x18bdf(%rip),%rdi        # 1b3c7 <_IO_stdin_used+0x3c7>
    27e8:	e8 b3 fa ff ff       	call   22a0 <fputs@plt>
    27ed:	48 8b 35 4c 48 02 00 	mov    0x2484c(%rip),%rsi        # 27040 <stderr@GLIBC_2.2.5>
    27f4:	48 8d 3d 04 8c 01 00 	lea    0x18c04(%rip),%rdi        # 1b3ff <_IO_stdin_used+0x3ff>
    27fb:	e8 a0 fa ff ff       	call   22a0 <fputs@plt>
    2800:	48 8b 35 39 48 02 00 	mov    0x24839(%rip),%rsi        # 27040 <stderr@GLIBC_2.2.5>
    2807:	48 8d 3d 26 8c 01 00 	lea    0x18c26(%rip),%rdi        # 1b434 <_IO_stdin_used+0x434>
    280e:	e8 8d fa ff ff       	call   22a0 <fputs@plt>
    2813:	bf 01 00 00 00       	mov    $0x1,%edi
    2818:	e8 63 fb ff ff       	call   2380 <exit@plt>

000000000000281d <parse_switches.constprop.0>:
    281d:	41 57                	push   %r15
    281f:	41 56                	push   %r14
    2821:	41 55                	push   %r13
    2823:	49 89 d6             	mov    %rdx,%r14
    2826:	49 89 fd             	mov    %rdi,%r13
    2829:	41 54                	push   %r12
    282b:	55                   	push   %rbp
    282c:	41 bc 01 00 00 00    	mov    $0x1,%r12d
    2832:	53                   	push   %rbx
    2833:	89 f3                	mov    %esi,%ebx
    2835:	48 83 ec 78          	sub    $0x78,%rsp
    2839:	89 4c 24 38          	mov    %ecx,0x38(%rsp)
    283d:	48 8b 07             	mov    (%rdi),%rax
    2840:	48 c7 44 24 28 00 00 	movq   $0x0,0x28(%rsp)
    2847:	00 00 
    2849:	48 c7 44 24 20 00 00 	movq   $0x0,0x20(%rsp)
    2850:	00 00 
    2852:	48 c7 44 24 18 00 00 	movq   $0x0,0x18(%rsp)
    2859:	00 00 
    285b:	64 48 8b 14 25 28 00 	mov    %fs:0x28,%rdx
    2862:	00 00 
    2864:	48 89 54 24 68       	mov    %rdx,0x68(%rsp)
    2869:	31 d2                	xor    %edx,%edx
    286b:	48 c7 44 24 10 00 00 	movq   $0x0,0x10(%rsp)
    2872:	00 00 
    2874:	c7 44 24 34 00 00 00 	movl   $0x0,0x34(%rsp)
    287b:	00 
    287c:	c7 44 24 0c 00 00 00 	movl   $0x0,0xc(%rsp)
    2883:	00 
    2884:	c7 44 24 30 64 00 00 	movl   $0x64,0x30(%rsp)
    288b:	00 
    288c:	c7 44 24 50 4b 00 00 	movl   $0x4b,0x50(%rsp)
    2893:	00 
    2894:	c7 05 c2 47 02 00 00 	movl   $0x0,0x247c2(%rip)        # 27060 <is_targa>
    289b:	00 00 00 
    289e:	48 c7 05 a7 47 02 00 	movq   $0x0,0x247a7(%rip)        # 27050 <outfilename>
    28a5:	00 00 00 00 
    28a9:	c7 40 7c 00 00 00 00 	movl   $0x0,0x7c(%rax)
    28b0:	41 39 dc             	cmp    %ebx,%r12d
    28b3:	0f 8d 4c 05 00 00    	jge    2e05 <parse_switches.constprop.0+0x5e8>
    28b9:	4d 63 fc             	movslq %r12d,%r15
    28bc:	4b 8b 2c fe          	mov    (%r14,%r15,8),%rbp
    28c0:	49 c1 e7 03          	shl    $0x3,%r15
    28c4:	80 7d 00 2d          	cmpb   $0x2d,0x0(%rbp)
    28c8:	74 19                	je     28e3 <parse_switches.constprop.0+0xc6>
    28ca:	45 85 e4             	test   %r12d,%r12d
    28cd:	0f 8f 32 05 00 00    	jg     2e05 <parse_switches.constprop.0+0x5e8>
    28d3:	48 c7 05 72 47 02 00 	movq   $0x0,0x24772(%rip)        # 27050 <outfilename>
    28da:	00 00 00 00 
    28de:	e9 1a 05 00 00       	jmp    2dfd <parse_switches.constprop.0+0x5e0>
    28e3:	48 ff c5             	inc    %rbp
    28e6:	ba 01 00 00 00       	mov    $0x1,%edx
    28eb:	48 8d 35 7b 8b 01 00 	lea    0x18b7b(%rip),%rsi        # 1b46d <_IO_stdin_used+0x46d>
    28f2:	48 89 ef             	mov    %rbp,%rdi
    28f5:	e8 92 fc ff ff       	call   258c <keymatch>
    28fa:	85 c0                	test   %eax,%eax
    28fc:	74 2b                	je     2929 <parse_switches.constprop.0+0x10c>
    28fe:	48 8b 0d 53 47 02 00 	mov    0x24753(%rip),%rcx        # 27058 <progname>
    2905:	48 8b 3d 34 47 02 00 	mov    0x24734(%rip),%rdi        # 27040 <stderr@GLIBC_2.2.5>
    290c:	48 8d 15 65 8b 01 00 	lea    0x18b65(%rip),%rdx        # 1b478 <_IO_stdin_used+0x478>
    2913:	31 c0                	xor    %eax,%eax
    2915:	be 01 00 00 00       	mov    $0x1,%esi
    291a:	e8 81 fa ff ff       	call   23a0 <__fprintf_chk@plt>
    291f:	bf 01 00 00 00       	mov    $0x1,%edi
    2924:	e8 57 fa ff ff       	call   2380 <exit@plt>
    2929:	ba 01 00 00 00       	mov    $0x1,%edx
    292e:	48 8d 35 6f 8b 01 00 	lea    0x18b6f(%rip),%rsi        # 1b4a4 <_IO_stdin_used+0x4a4>
    2935:	48 89 ef             	mov    %rbp,%rdi
    2938:	e8 4f fc ff ff       	call   258c <keymatch>
    293d:	85 c0                	test   %eax,%eax
    293f:	0f 85 a6 04 00 00    	jne    2deb <parse_switches.constprop.0+0x5ce>
    2945:	ba 02 00 00 00       	mov    $0x2,%edx
    294a:	48 8d 35 5c 8b 01 00 	lea    0x18b5c(%rip),%rsi        # 1b4ad <_IO_stdin_used+0x4ad>
    2951:	48 89 ef             	mov    %rbp,%rdi
    2954:	e8 33 fc ff ff       	call   258c <keymatch>
    2959:	85 c0                	test   %eax,%eax
    295b:	0f 84 8a 00 00 00    	je     29eb <parse_switches.constprop.0+0x1ce>
    2961:	41 ff c4             	inc    %r12d
    2964:	41 39 dc             	cmp    %ebx,%r12d
    2967:	7c 05                	jl     296e <parse_switches.constprop.0+0x151>
    2969:	e8 b7 fc ff ff       	call   2625 <usage>
    296e:	4f 8d 7c 3e 08       	lea    0x8(%r14,%r15,1),%r15
    2973:	ba 01 00 00 00       	mov    $0x1,%edx
    2978:	49 8b 3f             	mov    (%r15),%rdi
    297b:	48 8d 35 2f 8b 01 00 	lea    0x18b2f(%rip),%rsi        # 1b4b1 <_IO_stdin_used+0x4b1>
    2982:	e8 05 fc ff ff       	call   258c <keymatch>
    2987:	85 c0                	test   %eax,%eax
    2989:	74 10                	je     299b <parse_switches.constprop.0+0x17e>
    298b:	41 c7 85 0c 01 00 00 	movl   $0x0,0x10c(%r13)
    2992:	00 00 00 00 
    2996:	e9 62 04 00 00       	jmp    2dfd <parse_switches.constprop.0+0x5e0>
    299b:	49 8b 3f             	mov    (%r15),%rdi
    299e:	ba 02 00 00 00       	mov    $0x2,%edx
    29a3:	48 8d 35 0b 8b 01 00 	lea    0x18b0b(%rip),%rsi        # 1b4b5 <_IO_stdin_used+0x4b5>
    29aa:	e8 dd fb ff ff       	call   258c <keymatch>
    29af:	85 c0                	test   %eax,%eax
    29b1:	74 10                	je     29c3 <parse_switches.constprop.0+0x1a6>
    29b3:	41 c7 85 0c 01 00 00 	movl   $0x1,0x10c(%r13)
    29ba:	01 00 00 00 
    29be:	e9 3a 04 00 00       	jmp    2dfd <parse_switches.constprop.0+0x5e0>
    29c3:	49 8b 3f             	mov    (%r15),%rdi
    29c6:	ba 02 00 00 00       	mov    $0x2,%edx
    29cb:	48 8d 35 e8 8a 01 00 	lea    0x18ae8(%rip),%rsi        # 1b4ba <_IO_stdin_used+0x4ba>
    29d2:	e8 b5 fb ff ff       	call   258c <keymatch>
    29d7:	85 c0                	test   %eax,%eax
    29d9:	74 8e                	je     2969 <parse_switches.constprop.0+0x14c>
    29db:	41 c7 85 0c 01 00 00 	movl   $0x2,0x10c(%r13)
    29e2:	02 00 00 00 
    29e6:	e9 12 04 00 00       	jmp    2dfd <parse_switches.constprop.0+0x5e0>
    29eb:	ba 01 00 00 00       	mov    $0x1,%edx
    29f0:	48 8d 35 c9 8a 01 00 	lea    0x18ac9(%rip),%rsi        # 1b4c0 <_IO_stdin_used+0x4c0>
    29f7:	48 89 ef             	mov    %rbp,%rdi
    29fa:	e8 8d fb ff ff       	call   258c <keymatch>
    29ff:	85 c0                	test   %eax,%eax
    2a01:	74 3d                	je     2a40 <parse_switches.constprop.0+0x223>
    2a03:	83 3d 42 46 02 00 00 	cmpl   $0x0,0x24642(%rip)        # 2704c <printed_version.0>
    2a0a:	75 4e                	jne    2a5a <parse_switches.constprop.0+0x23d>
    2a0c:	48 8b 3d 2d 46 02 00 	mov    0x2462d(%rip),%rdi        # 27040 <stderr@GLIBC_2.2.5>
    2a13:	4c 8d 05 b4 8a 01 00 	lea    0x18ab4(%rip),%r8        # 1b4ce <_IO_stdin_used+0x4ce>
    2a1a:	31 c0                	xor    %eax,%eax
    2a1c:	48 8d 0d ce 8a 01 00 	lea    0x18ace(%rip),%rcx        # 1b4f1 <_IO_stdin_used+0x4f1>
    2a23:	48 8d 15 d4 8a 01 00 	lea    0x18ad4(%rip),%rdx        # 1b4fe <_IO_stdin_used+0x4fe>
    2a2a:	be 01 00 00 00       	mov    $0x1,%esi
    2a2f:	e8 6c f9 ff ff       	call   23a0 <__fprintf_chk@plt>
    2a34:	c7 05 0e 46 02 00 01 	movl   $0x1,0x2460e(%rip)        # 2704c <printed_version.0>
    2a3b:	00 00 00 
    2a3e:	eb 1a                	jmp    2a5a <parse_switches.constprop.0+0x23d>
    2a40:	ba 01 00 00 00       	mov    $0x1,%edx
    2a45:	48 8d 35 7a 8a 01 00 	lea    0x18a7a(%rip),%rsi        # 1b4c6 <_IO_stdin_used+0x4c6>
    2a4c:	48 89 ef             	mov    %rbp,%rdi
    2a4f:	e8 38 fb ff ff       	call   258c <keymatch>
    2a54:	85 c0                	test   %eax,%eax
    2a56:	75 ab                	jne    2a03 <parse_switches.constprop.0+0x1e6>
    2a58:	eb 0c                	jmp    2a66 <parse_switches.constprop.0+0x249>
    2a5a:	49 8b 75 00          	mov    0x0(%r13),%rsi
    2a5e:	ff 46 7c             	incl   0x7c(%rsi)
    2a61:	e9 97 03 00 00       	jmp    2dfd <parse_switches.constprop.0+0x5e0>
    2a66:	ba 02 00 00 00       	mov    $0x2,%edx
    2a6b:	48 8d 35 bb 8a 01 00 	lea    0x18abb(%rip),%rsi        # 1b52d <_IO_stdin_used+0x52d>
    2a72:	48 89 ef             	mov    %rbp,%rdi
    2a75:	e8 12 fb ff ff       	call   258c <keymatch>
    2a7a:	85 c0                	test   %eax,%eax
    2a7c:	74 12                	je     2a90 <parse_switches.constprop.0+0x273>
    2a7e:	be 01 00 00 00       	mov    $0x1,%esi
    2a83:	4c 89 ef             	mov    %r13,%rdi
    2a86:	e8 ad 4b 00 00       	call   7638 <jpeg_set_colorspace>
    2a8b:	e9 6d 03 00 00       	jmp    2dfd <parse_switches.constprop.0+0x5e0>
    2a90:	ba 02 00 00 00       	mov    $0x2,%edx
    2a95:	48 8d 35 9b 8a 01 00 	lea    0x18a9b(%rip),%rsi        # 1b537 <_IO_stdin_used+0x537>
    2a9c:	48 89 ef             	mov    %rbp,%rdi
    2a9f:	e8 e8 fa ff ff       	call   258c <keymatch>
    2aa4:	85 c0                	test   %eax,%eax
    2aa6:	75 d6                	jne    2a7e <parse_switches.constprop.0+0x261>
    2aa8:	ba 03 00 00 00       	mov    $0x3,%edx
    2aad:	48 8d 35 8d 8a 01 00 	lea    0x18a8d(%rip),%rsi        # 1b541 <_IO_stdin_used+0x541>
    2ab4:	48 89 ef             	mov    %rbp,%rdi
    2ab7:	e8 d0 fa ff ff       	call   258c <keymatch>
    2abc:	85 c0                	test   %eax,%eax
    2abe:	74 68                	je     2b28 <parse_switches.constprop.0+0x30b>
    2ac0:	41 ff c4             	inc    %r12d
    2ac3:	c6 44 24 4e 78       	movb   $0x78,0x4e(%rsp)
    2ac8:	44 39 e3             	cmp    %r12d,%ebx
    2acb:	0f 8e 98 fe ff ff    	jle    2969 <parse_switches.constprop.0+0x14c>
    2ad1:	4b 8b 7c 3e 08       	mov    0x8(%r14,%r15,1),%rdi
    2ad6:	48 8d 35 6e 8a 01 00 	lea    0x18a6e(%rip),%rsi        # 1b54b <_IO_stdin_used+0x54b>
    2add:	48 8d 4c 24 4e       	lea    0x4e(%rsp),%rcx
    2ae2:	31 c0                	xor    %eax,%eax
    2ae4:	48 8d 54 24 58       	lea    0x58(%rsp),%rdx
    2ae9:	e8 12 f8 ff ff       	call   2300 <__isoc99_sscanf@plt>
    2aee:	85 c0                	test   %eax,%eax
    2af0:	0f 8e 73 fe ff ff    	jle    2969 <parse_switches.constprop.0+0x14c>
    2af6:	40 8a 6c 24 4e       	mov    0x4e(%rsp),%bpl
    2afb:	83 e5 df             	and    $0xffffffdf,%ebp
    2afe:	40 80 fd 4d          	cmp    $0x4d,%bpl
    2b02:	75 0e                	jne    2b12 <parse_switches.constprop.0+0x2f5>
    2b04:	4c 69 44 24 58 e8 03 	imul   $0x3e8,0x58(%rsp),%r8
    2b0b:	00 00 
    2b0d:	4c 89 44 24 58       	mov    %r8,0x58(%rsp)
    2b12:	48 69 54 24 58 e8 03 	imul   $0x3e8,0x58(%rsp),%rdx
    2b19:	00 00 
    2b1b:	49 8b 4d 08          	mov    0x8(%r13),%rcx
    2b1f:	48 89 51 58          	mov    %rdx,0x58(%rcx)
    2b23:	e9 d5 02 00 00       	jmp    2dfd <parse_switches.constprop.0+0x5e0>
    2b28:	ba 01 00 00 00       	mov    $0x1,%edx
    2b2d:	48 8d 35 1d 8a 01 00 	lea    0x18a1d(%rip),%rsi        # 1b551 <_IO_stdin_used+0x551>
    2b34:	48 89 ef             	mov    %rbp,%rdi
    2b37:	e8 50 fa ff ff       	call   258c <keymatch>
    2b3c:	85 c0                	test   %eax,%eax
    2b3e:	74 10                	je     2b50 <parse_switches.constprop.0+0x333>
    2b40:	41 c7 85 00 01 00 00 	movl   $0x1,0x100(%r13)
    2b47:	01 00 00 00 
    2b4b:	e9 ad 02 00 00       	jmp    2dfd <parse_switches.constprop.0+0x5e0>
    2b50:	ba 01 00 00 00       	mov    $0x1,%edx
    2b55:	48 8d 35 fe 89 01 00 	lea    0x189fe(%rip),%rsi        # 1b55a <_IO_stdin_used+0x55a>
    2b5c:	48 89 ef             	mov    %rbp,%rdi
    2b5f:	e8 28 fa ff ff       	call   258c <keymatch>
    2b64:	85 c0                	test   %eax,%eax
    2b66:	75 d8                	jne    2b40 <parse_switches.constprop.0+0x323>
    2b68:	ba 04 00 00 00       	mov    $0x4,%edx
    2b6d:	48 8d 35 ef 89 01 00 	lea    0x189ef(%rip),%rsi        # 1b563 <_IO_stdin_used+0x563>
    2b74:	48 89 ef             	mov    %rbp,%rdi
    2b77:	e8 10 fa ff ff       	call   258c <keymatch>
    2b7c:	85 c0                	test   %eax,%eax
    2b7e:	74 1d                	je     2b9d <parse_switches.constprop.0+0x380>
    2b80:	41 ff c4             	inc    %r12d
    2b83:	44 39 e3             	cmp    %r12d,%ebx
    2b86:	0f 8e dd fd ff ff    	jle    2969 <parse_switches.constprop.0+0x14c>
    2b8c:	4f 8b 7c 3e 08       	mov    0x8(%r14,%r15,1),%r15
    2b91:	4c 89 3d b8 44 02 00 	mov    %r15,0x244b8(%rip)        # 27050 <outfilename>
    2b98:	e9 60 02 00 00       	jmp    2dfd <parse_switches.constprop.0+0x5e0>
    2b9d:	ba 01 00 00 00       	mov    $0x1,%edx
    2ba2:	48 8d 35 c2 89 01 00 	lea    0x189c2(%rip),%rsi        # 1b56b <_IO_stdin_used+0x56b>
    2ba9:	48 89 ef             	mov    %rbp,%rdi
    2bac:	e8 db f9 ff ff       	call   258c <keymatch>
    2bb1:	85 c0                	test   %eax,%eax
    2bb3:	0f 85 3c 02 00 00    	jne    2df5 <parse_switches.constprop.0+0x5d8>
    2bb9:	ba 01 00 00 00       	mov    $0x1,%edx
    2bbe:	48 8d 35 b2 89 01 00 	lea    0x189b2(%rip),%rsi        # 1b577 <_IO_stdin_used+0x577>
    2bc5:	48 89 ef             	mov    %rbp,%rdi
    2bc8:	e8 bf f9 ff ff       	call   258c <keymatch>
    2bcd:	85 c0                	test   %eax,%eax
    2bcf:	74 3e                	je     2c0f <parse_switches.constprop.0+0x3f2>
    2bd1:	41 ff c4             	inc    %r12d
    2bd4:	44 39 e3             	cmp    %r12d,%ebx
    2bd7:	0f 8e 8c fd ff ff    	jle    2969 <parse_switches.constprop.0+0x14c>
    2bdd:	4b 8b 7c 3e 08       	mov    0x8(%r14,%r15,1),%rdi
    2be2:	48 8d 35 52 a4 01 00 	lea    0x1a452(%rip),%rsi        # 1d03b <extend_test+0xc1b>
    2be9:	48 8d 54 24 50       	lea    0x50(%rsp),%rdx
    2bee:	31 c0                	xor    %eax,%eax
    2bf0:	e8 0b f7 ff ff       	call   2300 <__isoc99_sscanf@plt>
    2bf5:	ff c8                	dec    %eax
    2bf7:	0f 85 6c fd ff ff    	jne    2969 <parse_switches.constprop.0+0x14c>
    2bfd:	8b 7c 24 50          	mov    0x50(%rsp),%edi
    2c01:	e8 d9 49 00 00       	call   75df <jpeg_quality_scaling>
    2c06:	89 44 24 30          	mov    %eax,0x30(%rsp)
    2c0a:	e9 ee 01 00 00       	jmp    2dfd <parse_switches.constprop.0+0x5e0>
    2c0f:	ba 02 00 00 00       	mov    $0x2,%edx
    2c14:	48 8d 35 64 89 01 00 	lea    0x18964(%rip),%rsi        # 1b57f <_IO_stdin_used+0x57f>
    2c1b:	48 89 ef             	mov    %rbp,%rdi
    2c1e:	e8 69 f9 ff ff       	call   258c <keymatch>
    2c23:	85 c0                	test   %eax,%eax
    2c25:	74 1b                	je     2c42 <parse_switches.constprop.0+0x425>
    2c27:	41 ff c4             	inc    %r12d
    2c2a:	44 39 e3             	cmp    %r12d,%ebx
    2c2d:	0f 8e 36 fd ff ff    	jle    2969 <parse_switches.constprop.0+0x14c>
    2c33:	4b 8b 44 3e 08       	mov    0x8(%r14,%r15,1),%rax
    2c38:	48 89 44 24 18       	mov    %rax,0x18(%rsp)
    2c3d:	e9 bb 01 00 00       	jmp    2dfd <parse_switches.constprop.0+0x5e0>
    2c42:	ba 02 00 00 00       	mov    $0x2,%edx
    2c47:	48 8d 35 38 89 01 00 	lea    0x18938(%rip),%rsi        # 1b586 <_IO_stdin_used+0x586>
    2c4e:	48 89 ef             	mov    %rbp,%rdi
    2c51:	e8 36 f9 ff ff       	call   258c <keymatch>
    2c56:	85 c0                	test   %eax,%eax
    2c58:	74 1b                	je     2c75 <parse_switches.constprop.0+0x458>
    2c5a:	41 ff c4             	inc    %r12d
    2c5d:	44 39 e3             	cmp    %r12d,%ebx
    2c60:	0f 8e 03 fd ff ff    	jle    2969 <parse_switches.constprop.0+0x14c>
    2c66:	4f 8b 5c 3e 08       	mov    0x8(%r14,%r15,1),%r11
    2c6b:	4c 89 5c 24 10       	mov    %r11,0x10(%rsp)
    2c70:	e9 88 01 00 00       	jmp    2dfd <parse_switches.constprop.0+0x5e0>
    2c75:	ba 01 00 00 00       	mov    $0x1,%edx
    2c7a:	48 8d 35 0d 89 01 00 	lea    0x1890d(%rip),%rsi        # 1b58e <_IO_stdin_used+0x58e>
    2c81:	48 89 ef             	mov    %rbp,%rdi
    2c84:	89 44 24 3c          	mov    %eax,0x3c(%rsp)
    2c88:	e8 ff f8 ff ff       	call   258c <keymatch>
    2c8d:	85 c0                	test   %eax,%eax
    2c8f:	74 72                	je     2d03 <parse_switches.constprop.0+0x4e6>
    2c91:	41 ff c4             	inc    %r12d
    2c94:	c6 44 24 4f 78       	movb   $0x78,0x4f(%rsp)
    2c99:	44 39 e3             	cmp    %r12d,%ebx
    2c9c:	0f 8e c7 fc ff ff    	jle    2969 <parse_switches.constprop.0+0x14c>
    2ca2:	4b 8b 7c 3e 08       	mov    0x8(%r14,%r15,1),%rdi
    2ca7:	48 8d 35 9d 88 01 00 	lea    0x1889d(%rip),%rsi        # 1b54b <_IO_stdin_used+0x54b>
    2cae:	48 8d 4c 24 4f       	lea    0x4f(%rsp),%rcx
    2cb3:	31 c0                	xor    %eax,%eax
    2cb5:	48 8d 54 24 60       	lea    0x60(%rsp),%rdx
    2cba:	e8 41 f6 ff ff       	call   2300 <__isoc99_sscanf@plt>
    2cbf:	85 c0                	test   %eax,%eax
    2cc1:	0f 8e a2 fc ff ff    	jle    2969 <parse_switches.constprop.0+0x14c>
    2cc7:	48 8b 7c 24 60       	mov    0x60(%rsp),%rdi
    2ccc:	48 81 ff ff ff 00 00 	cmp    $0xffff,%rdi
    2cd3:	0f 87 90 fc ff ff    	ja     2969 <parse_switches.constprop.0+0x14c>
    2cd9:	44 8a 4c 24 4f       	mov    0x4f(%rsp),%r9b
    2cde:	41 89 fa             	mov    %edi,%r10d
    2ce1:	41 83 e1 df          	and    $0xffffffdf,%r9d
    2ce5:	41 80 f9 42          	cmp    $0x42,%r9b
    2ce9:	75 0c                	jne    2cf7 <parse_switches.constprop.0+0x4da>
    2ceb:	41 89 bd 10 01 00 00 	mov    %edi,0x110(%r13)
    2cf2:	44 8b 54 24 3c       	mov    0x3c(%rsp),%r10d
    2cf7:	45 89 95 14 01 00 00 	mov    %r10d,0x114(%r13)
    2cfe:	e9 fa 00 00 00       	jmp    2dfd <parse_switches.constprop.0+0x5e0>
    2d03:	ba 02 00 00 00       	mov    $0x2,%edx
    2d08:	48 8d 35 87 88 01 00 	lea    0x18887(%rip),%rsi        # 1b596 <_IO_stdin_used+0x596>
    2d0f:	48 89 ef             	mov    %rbp,%rdi
    2d12:	e8 75 f8 ff ff       	call   258c <keymatch>
    2d17:	85 c0                	test   %eax,%eax
    2d19:	74 1b                	je     2d36 <parse_switches.constprop.0+0x519>
    2d1b:	41 ff c4             	inc    %r12d
    2d1e:	44 39 e3             	cmp    %r12d,%ebx
    2d21:	0f 8e 42 fc ff ff    	jle    2969 <parse_switches.constprop.0+0x14c>
    2d27:	4b 8b 74 3e 08       	mov    0x8(%r14,%r15,1),%rsi
    2d2c:	48 89 74 24 20       	mov    %rsi,0x20(%rsp)
    2d31:	e9 c7 00 00 00       	jmp    2dfd <parse_switches.constprop.0+0x5e0>
    2d36:	ba 02 00 00 00       	mov    $0x2,%edx
    2d3b:	48 8d 35 5b 88 01 00 	lea    0x1885b(%rip),%rsi        # 1b59d <_IO_stdin_used+0x59d>
    2d42:	48 89 ef             	mov    %rbp,%rdi
    2d45:	e8 42 f8 ff ff       	call   258c <keymatch>
    2d4a:	85 c0                	test   %eax,%eax
    2d4c:	74 1b                	je     2d69 <parse_switches.constprop.0+0x54c>
    2d4e:	41 ff c4             	inc    %r12d
    2d51:	44 39 e3             	cmp    %r12d,%ebx
    2d54:	0f 8e 0f fc ff ff    	jle    2969 <parse_switches.constprop.0+0x14c>
    2d5a:	4b 8b 4c 3e 08       	mov    0x8(%r14,%r15,1),%rcx
    2d5f:	48 89 4c 24 28       	mov    %rcx,0x28(%rsp)
    2d64:	e9 94 00 00 00       	jmp    2dfd <parse_switches.constprop.0+0x5e0>
    2d69:	ba 02 00 00 00       	mov    $0x2,%edx
    2d6e:	48 8d 35 2e 88 01 00 	lea    0x1882e(%rip),%rsi        # 1b5a3 <_IO_stdin_used+0x5a3>
    2d75:	48 89 ef             	mov    %rbp,%rdi
    2d78:	e8 0f f8 ff ff       	call   258c <keymatch>
    2d7d:	85 c0                	test   %eax,%eax
    2d7f:	74 42                	je     2dc3 <parse_switches.constprop.0+0x5a6>
    2d81:	41 ff c4             	inc    %r12d
    2d84:	44 39 e3             	cmp    %r12d,%ebx
    2d87:	0f 8e dc fb ff ff    	jle    2969 <parse_switches.constprop.0+0x14c>
    2d8d:	4b 8b 7c 3e 08       	mov    0x8(%r14,%r15,1),%rdi
    2d92:	48 8d 35 a2 a2 01 00 	lea    0x1a2a2(%rip),%rsi        # 1d03b <extend_test+0xc1b>
    2d99:	48 8d 54 24 54       	lea    0x54(%rsp),%rdx
    2d9e:	31 c0                	xor    %eax,%eax
    2da0:	e8 5b f5 ff ff       	call   2300 <__isoc99_sscanf@plt>
    2da5:	ff c8                	dec    %eax
    2da7:	0f 85 bc fb ff ff    	jne    2969 <parse_switches.constprop.0+0x14c>
    2dad:	8b 54 24 54          	mov    0x54(%rsp),%edx
    2db1:	83 fa 64             	cmp    $0x64,%edx
    2db4:	0f 87 af fb ff ff    	ja     2969 <parse_switches.constprop.0+0x14c>
    2dba:	41 89 95 08 01 00 00 	mov    %edx,0x108(%r13)
    2dc1:	eb 3a                	jmp    2dfd <parse_switches.constprop.0+0x5e0>
    2dc3:	ba 01 00 00 00       	mov    $0x1,%edx
    2dc8:	48 8d 35 17 8d 01 00 	lea    0x18d17(%rip),%rsi        # 1bae6 <_IO_stdin_used+0xae6>
    2dcf:	48 89 ef             	mov    %rbp,%rdi
    2dd2:	e8 b5 f7 ff ff       	call   258c <keymatch>
    2dd7:	85 c0                	test   %eax,%eax
    2dd9:	0f 84 8a fb ff ff    	je     2969 <parse_switches.constprop.0+0x14c>
    2ddf:	c7 05 77 42 02 00 01 	movl   $0x1,0x24277(%rip)        # 27060 <is_targa>
    2de6:	00 00 00 
    2de9:	eb 12                	jmp    2dfd <parse_switches.constprop.0+0x5e0>
    2deb:	c7 44 24 0c 01 00 00 	movl   $0x1,0xc(%rsp)
    2df2:	00 
    2df3:	eb 08                	jmp    2dfd <parse_switches.constprop.0+0x5e0>
    2df5:	c7 44 24 34 01 00 00 	movl   $0x1,0x34(%rsp)
    2dfc:	00 
    2dfd:	41 ff c4             	inc    %r12d
    2e00:	e9 ab fa ff ff       	jmp    28b0 <parse_switches.constprop.0+0x93>
    2e05:	83 7c 24 38 00       	cmpl   $0x0,0x38(%rsp)
    2e0a:	0f 84 9b 00 00 00    	je     2eab <parse_switches.constprop.0+0x68e>
    2e10:	8b 74 24 50          	mov    0x50(%rsp),%esi
    2e14:	8b 54 24 0c          	mov    0xc(%rsp),%edx
    2e18:	4c 89 ef             	mov    %r13,%rdi
    2e1b:	e8 f0 47 00 00       	call   7610 <jpeg_set_quality>
    2e20:	48 83 7c 24 10 00    	cmpq   $0x0,0x10(%rsp)
    2e26:	74 1d                	je     2e45 <parse_switches.constprop.0+0x628>
    2e28:	8b 4c 24 0c          	mov    0xc(%rsp),%ecx
    2e2c:	8b 54 24 30          	mov    0x30(%rsp),%edx
    2e30:	4c 89 ef             	mov    %r13,%rdi
    2e33:	48 8b 74 24 10       	mov    0x10(%rsp),%rsi
    2e38:	e8 ec 6e 01 00       	call   19d29 <read_quant_tables>
    2e3d:	85 c0                	test   %eax,%eax
    2e3f:	0f 84 24 fb ff ff    	je     2969 <parse_switches.constprop.0+0x14c>
    2e45:	48 83 7c 24 18 00    	cmpq   $0x0,0x18(%rsp)
    2e4b:	74 15                	je     2e62 <parse_switches.constprop.0+0x645>
    2e4d:	48 8b 74 24 18       	mov    0x18(%rsp),%rsi
    2e52:	4c 89 ef             	mov    %r13,%rdi
    2e55:	e8 1d 73 01 00       	call   1a177 <set_quant_slots>
    2e5a:	85 c0                	test   %eax,%eax
    2e5c:	0f 84 07 fb ff ff    	je     2969 <parse_switches.constprop.0+0x14c>
    2e62:	48 83 7c 24 20 00    	cmpq   $0x0,0x20(%rsp)
    2e68:	74 15                	je     2e7f <parse_switches.constprop.0+0x662>
    2e6a:	48 8b 74 24 20       	mov    0x20(%rsp),%rsi
    2e6f:	4c 89 ef             	mov    %r13,%rdi
    2e72:	e8 25 74 01 00       	call   1a29c <set_sample_factors>
    2e77:	85 c0                	test   %eax,%eax
    2e79:	0f 84 ea fa ff ff    	je     2969 <parse_switches.constprop.0+0x14c>
    2e7f:	83 7c 24 34 00       	cmpl   $0x0,0x34(%rsp)
    2e84:	74 08                	je     2e8e <parse_switches.constprop.0+0x671>
    2e86:	4c 89 ef             	mov    %r13,%rdi
    2e89:	e8 03 4c 00 00       	call   7a91 <jpeg_simple_progression>
    2e8e:	48 83 7c 24 28 00    	cmpq   $0x0,0x28(%rsp)
    2e94:	74 15                	je     2eab <parse_switches.constprop.0+0x68e>
    2e96:	48 8b 74 24 28       	mov    0x28(%rsp),%rsi
    2e9b:	4c 89 ef             	mov    %r13,%rdi
    2e9e:	e8 23 70 01 00       	call   19ec6 <read_scan_script>
    2ea3:	85 c0                	test   %eax,%eax
    2ea5:	0f 84 be fa ff ff    	je     2969 <parse_switches.constprop.0+0x14c>
    2eab:	48 8b 44 24 68       	mov    0x68(%rsp),%rax
    2eb0:	64 48 2b 04 25 28 00 	sub    %fs:0x28,%rax
    2eb7:	00 00 
    2eb9:	74 05                	je     2ec0 <parse_switches.constprop.0+0x6a3>
    2ebb:	e8 c0 f3 ff ff       	call   2280 <__stack_chk_fail@plt>
    2ec0:	48 83 c4 78          	add    $0x78,%rsp
    2ec4:	44 89 e0             	mov    %r12d,%eax
    2ec7:	5b                   	pop    %rbx
    2ec8:	5d                   	pop    %rbp
    2ec9:	41 5c                	pop    %r12
    2ecb:	41 5d                	pop    %r13
    2ecd:	41 5e                	pop    %r14
    2ecf:	41 5f                	pop    %r15
    2ed1:	c3                   	ret    

0000000000002ed2 <__bswap_16>:
    2ed2:	f3 0f 1e fa          	endbr64 
    2ed6:	89 f8                	mov    %edi,%eax
    2ed8:	86 e0                	xchg   %ah,%al
    2eda:	c3                   	ret    

0000000000002edb <__bswap_32>:
    2edb:	f3 0f 1e fa          	endbr64 
    2edf:	89 f8                	mov    %edi,%eax
    2ee1:	0f c8                	bswap  %eax
    2ee3:	c3                   	ret    

0000000000002ee4 <__bswap_64>:
    2ee4:	f3 0f 1e fa          	endbr64 
    2ee8:	48 89 f8             	mov    %rdi,%rax
    2eeb:	48 0f c8             	bswap  %rax
    2eee:	c3                   	ret    

0000000000002eef <__uint16_identity>:
    2eef:	f3 0f 1e fa          	endbr64 
    2ef3:	89 f8                	mov    %edi,%eax
    2ef5:	c3                   	ret    

0000000000002ef6 <__uint32_identity>:
    2ef6:	f3 0f 1e fa          	endbr64 
    2efa:	89 f8                	mov    %edi,%eax
    2efc:	c3                   	ret    

0000000000002efd <__uint64_identity>:
    2efd:	f3 0f 1e fa          	endbr64 
    2f01:	48 89 f8             	mov    %rdi,%rax
    2f04:	c3                   	ret    

0000000000002f05 <main1>:
    2f05:	f3 0f 1e fa          	endbr64 
    2f09:	41 57                	push   %r15
    2f0b:	41 56                	push   %r14
    2f0d:	41 89 fe             	mov    %edi,%r14d
    2f10:	49 89 f7             	mov    %rsi,%r15
    2f13:	41 55                	push   %r13
    2f15:	41 54                	push   %r12
    2f17:	55                   	push   %rbp
    2f18:	53                   	push   %rbx
    2f19:	48 81 ec a8 02 00 00 	sub    $0x2a8,%rsp
    2f20:	64 48 8b 14 25 28 00 	mov    %fs:0x28,%rdx
    2f27:	00 00 
    2f29:	48 89 94 24 98 02 00 	mov    %rdx,0x298(%rsp)
    2f30:	00 
    2f31:	31 d2                	xor    %edx,%edx
    2f33:	48 8b 06             	mov    (%rsi),%rax
    2f36:	48 85 c0             	test   %rax,%rax
    2f39:	48 89 05 18 41 02 00 	mov    %rax,0x24118(%rip)        # 27058 <progname>
    2f40:	74 05                	je     2f47 <main1+0x42>
    2f42:	80 38 00             	cmpb   $0x0,(%rax)
    2f45:	75 0e                	jne    2f55 <main1+0x50>
    2f47:	48 8d 15 5c 86 01 00 	lea    0x1865c(%rip),%rdx        # 1b5aa <_IO_stdin_used+0x5aa>
    2f4e:	48 89 15 03 41 02 00 	mov    %rdx,0x24103(%rip)        # 27058 <progname>
    2f55:	48 89 e7             	mov    %rsp,%rdi
    2f58:	e8 42 f3 00 00       	call   1229f <jpeg_std_error>
    2f5d:	ba f0 01 00 00       	mov    $0x1f0,%edx
    2f62:	48 8d ac 24 a8 00 00 	lea    0xa8(%rsp),%rbp
    2f69:	00 
    2f6a:	be 3d 00 00 00       	mov    $0x3d,%esi
    2f6f:	48 89 ef             	mov    %rbp,%rdi
    2f72:	48 89 84 24 a8 00 00 	mov    %rax,0xa8(%rsp)
    2f79:	00 
    2f7a:	e8 fa 02 00 00       	call   3279 <jpeg_CreateCompress>
    2f7f:	48 8d 0d 1a 38 02 00 	lea    0x2381a(%rip),%rcx        # 267a0 <cdjpeg_message_table>
    2f86:	48 89 ef             	mov    %rbp,%rdi
    2f89:	48 bb e8 03 00 00 13 	movabs $0x413000003e8,%rbx
    2f90:	04 00 00 
    2f93:	c7 84 24 dc 00 00 00 	movl   $0x2,0xdc(%rsp)
    2f9a:	02 00 00 00 
    2f9e:	48 89 8c 24 98 00 00 	mov    %rcx,0x98(%rsp)
    2fa5:	00 
    2fa6:	48 89 9c 24 a0 00 00 	mov    %rbx,0xa0(%rsp)
    2fad:	00 
    2fae:	e8 8a 49 00 00       	call   793d <jpeg_set_defaults>
    2fb3:	4c 89 fa             	mov    %r15,%rdx
    2fb6:	44 89 f6             	mov    %r14d,%esi
    2fb9:	48 89 ef             	mov    %rbp,%rdi
    2fbc:	31 c9                	xor    %ecx,%ecx
    2fbe:	e8 5a f8 ff ff       	call   281d <parse_switches.constprop.0>
    2fc3:	41 8d 76 ff          	lea    -0x1(%r14),%esi
    2fc7:	39 c6                	cmp    %eax,%esi
    2fc9:	7e 26                	jle    2ff1 <main1+0xec>
    2fcb:	48 8b 0d 86 40 02 00 	mov    0x24086(%rip),%rcx        # 27058 <progname>
    2fd2:	48 8b 3d 67 40 02 00 	mov    0x24067(%rip),%rdi        # 27040 <stderr@GLIBC_2.2.5>
    2fd9:	48 8d 15 d0 85 01 00 	lea    0x185d0(%rip),%rdx        # 1b5b0 <_IO_stdin_used+0x5b0>
    2fe0:	31 c0                	xor    %eax,%eax
    2fe2:	be 01 00 00 00       	mov    $0x1,%esi
    2fe7:	e8 b4 f3 ff ff       	call   23a0 <__fprintf_chk@plt>
    2fec:	e8 34 f6 ff ff       	call   2625 <usage>
    2ff1:	41 39 c6             	cmp    %eax,%r14d
    2ff4:	7e 3e                	jle    3034 <main1+0x12f>
    2ff6:	48 98                	cltq   
    2ff8:	48 8d 35 ca 85 01 00 	lea    0x185ca(%rip),%rsi        # 1b5c9 <_IO_stdin_used+0x5c9>
    2fff:	4d 8d 2c c7          	lea    (%r15,%rax,8),%r13
    3003:	49 8b 7d 00          	mov    0x0(%r13),%rdi
    3007:	e8 54 f3 ff ff       	call   2360 <fopen@plt>
    300c:	48 85 c0             	test   %rax,%rax
    300f:	49 89 c4             	mov    %rax,%r12
    3012:	75 28                	jne    303c <main1+0x137>
    3014:	48 8b 0d 3d 40 02 00 	mov    0x2403d(%rip),%rcx        # 27058 <progname>
    301b:	4d 8b 45 00          	mov    0x0(%r13),%r8
    301f:	48 8b 3d 1a 40 02 00 	mov    0x2401a(%rip),%rdi        # 27040 <stderr@GLIBC_2.2.5>
    3026:	48 8d 15 9f 85 01 00 	lea    0x1859f(%rip),%rdx        # 1b5cc <_IO_stdin_used+0x5cc>
    302d:	be 01 00 00 00       	mov    $0x1,%esi
    3032:	eb 49                	jmp    307d <main1+0x178>
    3034:	e8 d4 f5 ff ff       	call   260d <read_stdin>
    3039:	49 89 c4             	mov    %rax,%r12
    303c:	48 8b 3d 0d 40 02 00 	mov    0x2400d(%rip),%rdi        # 27050 <outfilename>
    3043:	48 85 ff             	test   %rdi,%rdi
    3046:	74 46                	je     308e <main1+0x189>
    3048:	48 8d 35 90 85 01 00 	lea    0x18590(%rip),%rsi        # 1b5df <_IO_stdin_used+0x5df>
    304f:	e8 0c f3 ff ff       	call   2360 <fopen@plt>
    3054:	48 85 c0             	test   %rax,%rax
    3057:	49 89 c5             	mov    %rax,%r13
    305a:	75 3a                	jne    3096 <main1+0x191>
    305c:	48 8b 0d f5 3f 02 00 	mov    0x23ff5(%rip),%rcx        # 27058 <progname>
    3063:	48 8b 3d d6 3f 02 00 	mov    0x23fd6(%rip),%rdi        # 27040 <stderr@GLIBC_2.2.5>
    306a:	4c 8b 05 df 3f 02 00 	mov    0x23fdf(%rip),%r8        # 27050 <outfilename>
    3071:	48 8d 15 54 85 01 00 	lea    0x18554(%rip),%rdx        # 1b5cc <_IO_stdin_used+0x5cc>
    3078:	be 01 00 00 00       	mov    $0x1,%esi
    307d:	31 c0                	xor    %eax,%eax
    307f:	e8 1c f3 ff ff       	call   23a0 <__fprintf_chk@plt>
    3084:	bf 01 00 00 00       	mov    $0x1,%edi
    3089:	e8 f2 f2 ff ff       	call   2380 <exit@plt>
    308e:	e8 86 f5 ff ff       	call   2619 <write_stdout>
    3093:	49 89 c5             	mov    %rax,%r13
    3096:	83 3d c3 3f 02 00 00 	cmpl   $0x0,0x23fc3(%rip)        # 27060 <is_targa>
    309d:	75 7c                	jne    311b <main1+0x216>
    309f:	4c 89 e7             	mov    %r12,%rdi
    30a2:	e8 09 f3 ff ff       	call   23b0 <getc@plt>
    30a7:	83 f8 ff             	cmp    $0xffffffff,%eax
    30aa:	89 c3                	mov    %eax,%ebx
    30ac:	75 16                	jne    30c4 <main1+0x1bf>
    30ae:	4c 8b 84 24 a8 00 00 	mov    0xa8(%rsp),%r8
    30b5:	00 
    30b6:	48 89 ef             	mov    %rbp,%rdi
    30b9:	41 c7 40 28 29 00 00 	movl   $0x29,0x28(%r8)
    30c0:	00 
    30c1:	41 ff 10             	call   *(%r8)
    30c4:	4c 89 e6             	mov    %r12,%rsi
    30c7:	89 df                	mov    %ebx,%edi
    30c9:	e8 42 f2 ff ff       	call   2310 <ungetc@plt>
    30ce:	ff c0                	inc    %eax
    30d0:	75 16                	jne    30e8 <main1+0x1e3>
    30d2:	4c 8b 8c 24 a8 00 00 	mov    0xa8(%rsp),%r9
    30d9:	00 
    30da:	48 89 ef             	mov    %rbp,%rdi
    30dd:	41 c7 41 28 10 04 00 	movl   $0x410,0x28(%r9)
    30e4:	00 
    30e5:	41 ff 11             	call   *(%r9)
    30e8:	83 fb 47             	cmp    $0x47,%ebx
    30eb:	74 24                	je     3111 <main1+0x20c>
    30ed:	7f 13                	jg     3102 <main1+0x1fd>
    30ef:	85 db                	test   %ebx,%ebx
    30f1:	74 28                	je     311b <main1+0x216>
    30f3:	83 fb 42             	cmp    $0x42,%ebx
    30f6:	75 6f                	jne    3167 <main1+0x262>
    30f8:	48 89 ef             	mov    %rbp,%rdi
    30fb:	e8 50 58 01 00       	call   18950 <jinit_read_bmp>
    3100:	eb 21                	jmp    3123 <main1+0x21e>
    3102:	83 fb 50             	cmp    $0x50,%ebx
    3105:	75 60                	jne    3167 <main1+0x262>
    3107:	48 89 ef             	mov    %rbp,%rdi
    310a:	e8 4e 6a 01 00       	call   19b5d <jinit_read_ppm>
    310f:	eb 12                	jmp    3123 <main1+0x21e>
    3111:	48 89 ef             	mov    %rbp,%rdi
    3114:	e8 04 63 01 00       	call   1941d <jinit_read_gif>
    3119:	eb 08                	jmp    3123 <main1+0x21e>
    311b:	48 89 ef             	mov    %rbp,%rdi
    311e:	e8 f8 79 01 00       	call   1ab1b <jinit_read_targa>
    3123:	48 89 c3             	mov    %rax,%rbx
    3126:	4c 89 60 18          	mov    %r12,0x18(%rax)
    312a:	48 89 c6             	mov    %rax,%rsi
    312d:	48 89 ef             	mov    %rbp,%rdi
    3130:	ff 10                	call   *(%rax)
    3132:	48 89 ef             	mov    %rbp,%rdi
    3135:	e8 b6 47 00 00       	call   78f0 <jpeg_default_colorspace>
    313a:	b9 01 00 00 00       	mov    $0x1,%ecx
    313f:	4c 89 fa             	mov    %r15,%rdx
    3142:	44 89 f6             	mov    %r14d,%esi
    3145:	48 89 ef             	mov    %rbp,%rdi
    3148:	e8 d0 f6 ff ff       	call   281d <parse_switches.constprop.0>
    314d:	4c 89 ee             	mov    %r13,%rsi
    3150:	48 89 ef             	mov    %rbp,%rdi
    3153:	e8 7a 78 00 00       	call   a9d2 <jpeg_stdio_dest>
    3158:	be 01 00 00 00       	mov    $0x1,%esi
    315d:	48 89 ef             	mov    %rbp,%rdi
    3160:	e8 68 04 00 00       	call   35cd <jpeg_start_compress>
    3165:	eb 20                	jmp    3187 <main1+0x282>
    3167:	4c 8b 94 24 a8 00 00 	mov    0xa8(%rsp),%r10
    316e:	00 
    316f:	48 89 ef             	mov    %rbp,%rdi
    3172:	41 c7 42 28 11 04 00 	movl   $0x411,0x28(%r10)
    3179:	00 
    317a:	41 ff 12             	call   *(%r10)
    317d:	4c 89 24 25 18 00 00 	mov    %r12,0x18
    3184:	00 
    3185:	0f 0b                	ud2    
    3187:	44 8b 9c 24 d4 00 00 	mov    0xd4(%rsp),%r11d
    318e:	00 
    318f:	48 89 de             	mov    %rbx,%rsi
    3192:	48 89 ef             	mov    %rbp,%rdi
    3195:	44 39 9c 24 d0 01 00 	cmp    %r11d,0x1d0(%rsp)
    319c:	00 
    319d:	73 13                	jae    31b2 <main1+0x2ad>
    319f:	ff 53 08             	call   *0x8(%rbx)
    31a2:	48 8b 73 20          	mov    0x20(%rbx),%rsi
    31a6:	89 c2                	mov    %eax,%edx
    31a8:	48 89 ef             	mov    %rbp,%rdi
    31ab:	e8 93 04 00 00       	call   3643 <jpeg_write_scanlines>
    31b0:	eb d5                	jmp    3187 <main1+0x282>
    31b2:	ff 53 10             	call   *0x10(%rbx)
    31b5:	48 89 ef             	mov    %rbp,%rdi
    31b8:	e8 32 02 00 00       	call   33ef <jpeg_finish_compress>
    31bd:	48 89 ef             	mov    %rbp,%rdi
    31c0:	e8 c6 01 00 00       	call   338b <jpeg_destroy_compress>
    31c5:	4c 39 25 64 3e 02 00 	cmp    %r12,0x23e64(%rip)        # 27030 <stdin@GLIBC_2.2.5>
    31cc:	74 08                	je     31d6 <main1+0x2d1>
    31ce:	4c 89 e7             	mov    %r12,%rdi
    31d1:	e8 8a f0 ff ff       	call   2260 <fclose@plt>
    31d6:	4c 39 2d 43 3e 02 00 	cmp    %r13,0x23e43(%rip)        # 27020 <stdout@GLIBC_2.2.5>
    31dd:	74 08                	je     31e7 <main1+0x2e2>
    31df:	4c 89 ef             	mov    %r13,%rdi
    31e2:	e8 79 f0 ff ff       	call   2260 <fclose@plt>
    31e7:	48 8b 84 24 98 02 00 	mov    0x298(%rsp),%rax
    31ee:	00 
    31ef:	64 48 2b 04 25 28 00 	sub    %fs:0x28,%rax
    31f6:	00 00 
    31f8:	74 05                	je     31ff <main1+0x2fa>
    31fa:	e8 81 f0 ff ff       	call   2280 <__stack_chk_fail@plt>
    31ff:	48 81 c4 a8 02 00 00 	add    $0x2a8,%rsp
    3206:	31 c0                	xor    %eax,%eax
    3208:	5b                   	pop    %rbx
    3209:	5d                   	pop    %rbp
    320a:	41 5c                	pop    %r12
    320c:	41 5d                	pop    %r13
    320e:	41 5e                	pop    %r14
    3210:	41 5f                	pop    %r15
    3212:	c3                   	ret    

0000000000003213 <__bswap_16>:
    3213:	f3 0f 1e fa          	endbr64 
    3217:	89 f8                	mov    %edi,%eax
    3219:	86 e0                	xchg   %ah,%al
    321b:	c3                   	ret    

000000000000321c <__bswap_32>:
    321c:	f3 0f 1e fa          	endbr64 
    3220:	89 f8                	mov    %edi,%eax
    3222:	0f c8                	bswap  %eax
    3224:	c3                   	ret    

0000000000003225 <__bswap_64>:
    3225:	f3 0f 1e fa          	endbr64 
    3229:	48 89 f8             	mov    %rdi,%rax
    322c:	48 0f c8             	bswap  %rax
    322f:	c3                   	ret    

0000000000003230 <__uint16_identity>:
    3230:	f3 0f 1e fa          	endbr64 
    3234:	89 f8                	mov    %edi,%eax
    3236:	c3                   	ret    

0000000000003237 <__uint32_identity>:
    3237:	f3 0f 1e fa          	endbr64 
    323b:	89 f8                	mov    %edi,%eax
    323d:	c3                   	ret    

000000000000323e <__uint64_identity>:
    323e:	f3 0f 1e fa          	endbr64 
    3242:	48 89 f8             	mov    %rdi,%rax
    3245:	c3                   	ret    

0000000000003246 <__bswap_16>:
    3246:	f3 0f 1e fa          	endbr64 
    324a:	89 f8                	mov    %edi,%eax
    324c:	86 e0                	xchg   %ah,%al
    324e:	c3                   	ret    

000000000000324f <__bswap_32>:
    324f:	f3 0f 1e fa          	endbr64 
    3253:	89 f8                	mov    %edi,%eax
    3255:	0f c8                	bswap  %eax
    3257:	c3                   	ret    

0000000000003258 <__bswap_64>:
    3258:	f3 0f 1e fa          	endbr64 
    325c:	48 89 f8             	mov    %rdi,%rax
    325f:	48 0f c8             	bswap  %rax
    3262:	c3                   	ret    

0000000000003263 <__uint16_identity>:
    3263:	f3 0f 1e fa          	endbr64 
    3267:	89 f8                	mov    %edi,%eax
    3269:	c3                   	ret    

000000000000326a <__uint32_identity>:
    326a:	f3 0f 1e fa          	endbr64 
    326e:	89 f8                	mov    %edi,%eax
    3270:	c3                   	ret    

0000000000003271 <__uint64_identity>:
    3271:	f3 0f 1e fa          	endbr64 
    3275:	48 89 f8             	mov    %rdi,%rax
    3278:	c3                   	ret    

0000000000003279 <jpeg_CreateCompress>:
    3279:	f3 0f 1e fa          	endbr64 
    327d:	83 fe 3d             	cmp    $0x3d,%esi
    3280:	55                   	push   %rbp
    3281:	48 89 fd             	mov    %rdi,%rbp
    3284:	53                   	push   %rbx
    3285:	48 89 d3             	mov    %rdx,%rbx
    3288:	51                   	push   %rcx
    3289:	48 c7 47 08 00 00 00 	movq   $0x0,0x8(%rdi)
    3290:	00 
    3291:	74 16                	je     32a9 <jpeg_CreateCompress+0x30>
    3293:	48 b9 0a 00 00 00 3d 	movabs $0x3d0000000a,%rcx
    329a:	00 00 00 
    329d:	48 8b 07             	mov    (%rdi),%rax
    32a0:	89 70 30             	mov    %esi,0x30(%rax)
    32a3:	48 89 48 28          	mov    %rcx,0x28(%rax)
    32a7:	ff 10                	call   *(%rax)
    32a9:	48 81 fb f0 01 00 00 	cmp    $0x1f0,%rbx
    32b0:	74 1a                	je     32cc <jpeg_CreateCompress+0x53>
    32b2:	48 8b 75 00          	mov    0x0(%rbp),%rsi
    32b6:	48 ba 13 00 00 00 f0 	movabs $0x1f000000013,%rdx
    32bd:	01 00 00 
    32c0:	48 89 ef             	mov    %rbp,%rdi
    32c3:	89 5e 30             	mov    %ebx,0x30(%rsi)
    32c6:	48 89 56 28          	mov    %rdx,0x28(%rsi)
    32ca:	ff 16                	call   *(%rsi)
    32cc:	b9 7c 00 00 00       	mov    $0x7c,%ecx
    32d1:	48 89 ef             	mov    %rbp,%rdi
    32d4:	31 c0                	xor    %eax,%eax
    32d6:	4c 8b 45 00          	mov    0x0(%rbp),%r8
    32da:	f3 ab                	rep stos %eax,%es:(%rdi)
    32dc:	4c 89 45 00          	mov    %r8,0x0(%rbp)
    32e0:	48 89 ef             	mov    %rbp,%rdi
    32e3:	e8 c3 28 01 00       	call   15bab <jinit_memory_mgr>
    32e8:	4c 8b 0d 31 88 01 00 	mov    0x18831(%rip),%r9        # 1bb20 <_IO_stdin_used+0xb20>
    32ef:	48 c7 45 10 00 00 00 	movq   $0x0,0x10(%rbp)
    32f6:	00 
    32f7:	48 c7 45 20 00 00 00 	movq   $0x0,0x20(%rbp)
    32fe:	00 
    32ff:	48 c7 45 50 00 00 00 	movq   $0x0,0x50(%rbp)
    3306:	00 
    3307:	48 c7 45 58 00 00 00 	movq   $0x0,0x58(%rbp)
    330e:	00 
    330f:	48 c7 45 60 00 00 00 	movq   $0x0,0x60(%rbp)
    3316:	00 
    3317:	48 c7 45 68 00 00 00 	movq   $0x0,0x68(%rbp)
    331e:	00 
    331f:	48 c7 45 70 00 00 00 	movq   $0x0,0x70(%rbp)
    3326:	00 
    3327:	48 c7 45 78 00 00 00 	movq   $0x0,0x78(%rbp)
    332e:	00 
    332f:	48 c7 85 98 00 00 00 	movq   $0x0,0x98(%rbp)
    3336:	00 00 00 00 
    333a:	48 c7 85 80 00 00 00 	movq   $0x0,0x80(%rbp)
    3341:	00 00 00 00 
    3345:	48 c7 85 a0 00 00 00 	movq   $0x0,0xa0(%rbp)
    334c:	00 00 00 00 
    3350:	48 c7 85 88 00 00 00 	movq   $0x0,0x88(%rbp)
    3357:	00 00 00 00 
    335b:	48 c7 85 a8 00 00 00 	movq   $0x0,0xa8(%rbp)
    3362:	00 00 00 00 
    3366:	48 c7 85 90 00 00 00 	movq   $0x0,0x90(%rbp)
    336d:	00 00 00 00 
    3371:	48 c7 85 b0 00 00 00 	movq   $0x0,0xb0(%rbp)
    3378:	00 00 00 00 
    337c:	4c 89 4d 38          	mov    %r9,0x38(%rbp)
    3380:	c7 45 1c 64 00 00 00 	movl   $0x64,0x1c(%rbp)
    3387:	58                   	pop    %rax
    3388:	5b                   	pop    %rbx
    3389:	5d                   	pop    %rbp
    338a:	c3                   	ret    

000000000000338b <jpeg_destroy_compress>:
    338b:	f3 0f 1e fa          	endbr64 
    338f:	e9 e7 3f 00 00       	jmp    737b <jpeg_destroy>

0000000000003394 <jpeg_abort_compress>:
    3394:	f3 0f 1e fa          	endbr64 
    3398:	e9 b6 3f 00 00       	jmp    7353 <jpeg_abort>

000000000000339d <jpeg_suppress_tables>:
    339d:	f3 0f 1e fa          	endbr64 
    33a1:	31 c0                	xor    %eax,%eax
    33a3:	48 8b 54 07 58       	mov    0x58(%rdi,%rax,1),%rdx
    33a8:	48 85 d2             	test   %rdx,%rdx
    33ab:	74 06                	je     33b3 <jpeg_suppress_tables+0x16>
    33ad:	89 b2 80 00 00 00    	mov    %esi,0x80(%rdx)
    33b3:	48 83 c0 08          	add    $0x8,%rax
    33b7:	48 83 f8 20          	cmp    $0x20,%rax
    33bb:	75 e6                	jne    33a3 <jpeg_suppress_tables+0x6>
    33bd:	31 c9                	xor    %ecx,%ecx
    33bf:	4c 8b 44 0f 78       	mov    0x78(%rdi,%rcx,1),%r8
    33c4:	4d 85 c0             	test   %r8,%r8
    33c7:	74 07                	je     33d0 <jpeg_suppress_tables+0x33>
    33c9:	41 89 b0 14 01 00 00 	mov    %esi,0x114(%r8)
    33d0:	4c 8b 8c 0f 98 00 00 	mov    0x98(%rdi,%rcx,1),%r9
    33d7:	00 
    33d8:	4d 85 c9             	test   %r9,%r9
    33db:	74 07                	je     33e4 <jpeg_suppress_tables+0x47>
    33dd:	41 89 b1 14 01 00 00 	mov    %esi,0x114(%r9)
    33e4:	48 83 c1 08          	add    $0x8,%rcx
    33e8:	48 83 f9 20          	cmp    $0x20,%rcx
    33ec:	75 d1                	jne    33bf <jpeg_suppress_tables+0x22>
    33ee:	c3                   	ret    

00000000000033ef <jpeg_finish_compress>:
    33ef:	f3 0f 1e fa          	endbr64 
    33f3:	55                   	push   %rbp
    33f4:	53                   	push   %rbx
    33f5:	48 89 fd             	mov    %rdi,%rbp
    33f8:	52                   	push   %rdx
    33f9:	8b 57 1c             	mov    0x1c(%rdi),%edx
    33fc:	8d 42 9b             	lea    -0x65(%rdx),%eax
    33ff:	83 f8 01             	cmp    $0x1,%eax
    3402:	77 27                	ja     342b <jpeg_finish_compress+0x3c>
    3404:	8b 5f 2c             	mov    0x2c(%rdi),%ebx
    3407:	39 9f 28 01 00 00    	cmp    %ebx,0x128(%rdi)
    340d:	73 0c                	jae    341b <jpeg_finish_compress+0x2c>
    340f:	48 8b 37             	mov    (%rdi),%rsi
    3412:	c7 46 28 42 00 00 00 	movl   $0x42,0x28(%rsi)
    3419:	ff 16                	call   *(%rsi)
    341b:	4c 8b 85 a8 01 00 00 	mov    0x1a8(%rbp),%r8
    3422:	48 89 ef             	mov    %rbp,%rdi
    3425:	41 ff 50 10          	call   *0x10(%r8)
    3429:	eb 14                	jmp    343f <jpeg_finish_compress+0x50>
    342b:	83 fa 67             	cmp    $0x67,%edx
    342e:	74 0f                	je     343f <jpeg_finish_compress+0x50>
    3430:	48 8b 0f             	mov    (%rdi),%rcx
    3433:	c7 41 28 12 00 00 00 	movl   $0x12,0x28(%rcx)
    343a:	89 51 2c             	mov    %edx,0x2c(%rcx)
    343d:	ff 11                	call   *(%rcx)
    343f:	31 db                	xor    %ebx,%ebx
    3441:	4c 8b 8d a8 01 00 00 	mov    0x1a8(%rbp),%r9
    3448:	48 89 ef             	mov    %rbp,%rdi
    344b:	41 83 79 1c 00       	cmpl   $0x0,0x1c(%r9)
    3450:	75 6d                	jne    34bf <jpeg_finish_compress+0xd0>
    3452:	41 ff 11             	call   *(%r9)
    3455:	48 89 ef             	mov    %rbp,%rdi
    3458:	31 f6                	xor    %esi,%esi
    345a:	44 8b 95 38 01 00 00 	mov    0x138(%rbp),%r10d
    3461:	41 39 da             	cmp    %ebx,%r10d
    3464:	44 89 d2             	mov    %r10d,%edx
    3467:	76 45                	jbe    34ae <jpeg_finish_compress+0xbf>
    3469:	4c 8b 5d 10          	mov    0x10(%rbp),%r11
    346d:	4d 85 db             	test   %r11,%r11
    3470:	74 15                	je     3487 <jpeg_finish_compress+0x98>
    3472:	89 df                	mov    %ebx,%edi
    3474:	49 89 53 10          	mov    %rdx,0x10(%r11)
    3478:	49 89 7b 08          	mov    %rdi,0x8(%r11)
    347c:	48 89 ef             	mov    %rbp,%rdi
    347f:	41 ff 13             	call   *(%r11)
    3482:	48 89 ef             	mov    %rbp,%rdi
    3485:	31 f6                	xor    %esi,%esi
    3487:	48 8b 85 c0 01 00 00 	mov    0x1c0(%rbp),%rax
    348e:	ff 50 08             	call   *0x8(%rax)
    3491:	31 f6                	xor    %esi,%esi
    3493:	85 c0                	test   %eax,%eax
    3495:	48 89 ef             	mov    %rbp,%rdi
    3498:	75 10                	jne    34aa <jpeg_finish_compress+0xbb>
    349a:	4c 8b 4d 00          	mov    0x0(%rbp),%r9
    349e:	ff c3                	inc    %ebx
    34a0:	41 c7 41 28 16 00 00 	movl   $0x16,0x28(%r9)
    34a7:	00 
    34a8:	eb a8                	jmp    3452 <jpeg_finish_compress+0x63>
    34aa:	ff c3                	inc    %ebx
    34ac:	eb ac                	jmp    345a <jpeg_finish_compress+0x6b>
    34ae:	48 8b 8d a8 01 00 00 	mov    0x1a8(%rbp),%rcx
    34b5:	48 89 ef             	mov    %rbp,%rdi
    34b8:	31 db                	xor    %ebx,%ebx
    34ba:	ff 51 10             	call   *0x10(%rcx)
    34bd:	eb 82                	jmp    3441 <jpeg_finish_compress+0x52>
    34bf:	48 8b b5 c8 01 00 00 	mov    0x1c8(%rbp),%rsi
    34c6:	ff 56 20             	call   *0x20(%rsi)
    34c9:	4c 8b 45 20          	mov    0x20(%rbp),%r8
    34cd:	48 89 ef             	mov    %rbp,%rdi
    34d0:	41 ff 50 20          	call   *0x20(%r8)
    34d4:	48 89 ef             	mov    %rbp,%rdi
    34d7:	58                   	pop    %rax
    34d8:	5b                   	pop    %rbx
    34d9:	5d                   	pop    %rbp
    34da:	e9 74 3e 00 00       	jmp    7353 <jpeg_abort>

00000000000034df <jpeg_write_marker>:
    34df:	f3 0f 1e fa          	endbr64 
    34e3:	41 55                	push   %r13
    34e5:	49 89 d5             	mov    %rdx,%r13
    34e8:	48 83 ec 10          	sub    $0x10,%rsp
    34ec:	8b 57 1c             	mov    0x1c(%rdi),%edx
    34ef:	83 bf 28 01 00 00 00 	cmpl   $0x0,0x128(%rdi)
    34f6:	75 08                	jne    3500 <jpeg_write_marker+0x21>
    34f8:	8d 42 9b             	lea    -0x65(%rdx),%eax
    34fb:	83 f8 02             	cmp    $0x2,%eax
    34fe:	76 27                	jbe    3527 <jpeg_write_marker+0x48>
    3500:	89 4c 24 0c          	mov    %ecx,0xc(%rsp)
    3504:	48 8b 0f             	mov    (%rdi),%rcx
    3507:	48 89 3c 24          	mov    %rdi,(%rsp)
    350b:	c7 41 28 12 00 00 00 	movl   $0x12,0x28(%rcx)
    3512:	89 51 2c             	mov    %edx,0x2c(%rcx)
    3515:	89 74 24 08          	mov    %esi,0x8(%rsp)
    3519:	ff 11                	call   *(%rcx)
    351b:	48 8b 3c 24          	mov    (%rsp),%rdi
    351f:	8b 74 24 08          	mov    0x8(%rsp),%esi
    3523:	8b 4c 24 0c          	mov    0xc(%rsp),%ecx
    3527:	4c 8b 87 c8 01 00 00 	mov    0x1c8(%rdi),%r8
    352e:	4c 89 ea             	mov    %r13,%rdx
    3531:	4d 8b 08             	mov    (%r8),%r9
    3534:	48 83 c4 10          	add    $0x10,%rsp
    3538:	41 5d                	pop    %r13
    353a:	41 ff e1             	jmp    *%r9

000000000000353d <jpeg_write_tables>:
    353d:	f3 0f 1e fa          	endbr64 
    3541:	55                   	push   %rbp
    3542:	8b 57 1c             	mov    0x1c(%rdi),%edx
    3545:	48 89 fd             	mov    %rdi,%rbp
    3548:	83 fa 64             	cmp    $0x64,%edx
    354b:	74 0f                	je     355c <jpeg_write_tables+0x1f>
    354d:	48 8b 07             	mov    (%rdi),%rax
    3550:	c7 40 28 12 00 00 00 	movl   $0x12,0x28(%rax)
    3557:	89 50 2c             	mov    %edx,0x2c(%rax)
    355a:	ff 10                	call   *(%rax)
    355c:	48 8b 4d 00          	mov    0x0(%rbp),%rcx
    3560:	48 89 ef             	mov    %rbp,%rdi
    3563:	ff 51 20             	call   *0x20(%rcx)
    3566:	48 8b 75 20          	mov    0x20(%rbp),%rsi
    356a:	48 89 ef             	mov    %rbp,%rdi
    356d:	ff 56 10             	call   *0x10(%rsi)
    3570:	48 89 ef             	mov    %rbp,%rdi
    3573:	e8 5f 31 00 00       	call   66d7 <jinit_marker_writer>
    3578:	4c 8b 85 c8 01 00 00 	mov    0x1c8(%rbp),%r8
    357f:	48 89 ef             	mov    %rbp,%rdi
    3582:	41 ff 50 28          	call   *0x28(%r8)
    3586:	4c 8b 4d 20          	mov    0x20(%rbp),%r9
    358a:	48 89 ef             	mov    %rbp,%rdi
    358d:	41 ff 51 20          	call   *0x20(%r9)
    3591:	48 89 ef             	mov    %rbp,%rdi
    3594:	5d                   	pop    %rbp
    3595:	e9 b9 3d 00 00       	jmp    7353 <jpeg_abort>

000000000000359a <__bswap_16>:
    359a:	f3 0f 1e fa          	endbr64 
    359e:	89 f8                	mov    %edi,%eax
    35a0:	86 e0                	xchg   %ah,%al
    35a2:	c3                   	ret    

00000000000035a3 <__bswap_32>:
    35a3:	f3 0f 1e fa          	endbr64 
    35a7:	89 f8                	mov    %edi,%eax
    35a9:	0f c8                	bswap  %eax
    35ab:	c3                   	ret    

00000000000035ac <__bswap_64>:
    35ac:	f3 0f 1e fa          	endbr64 
    35b0:	48 89 f8             	mov    %rdi,%rax
    35b3:	48 0f c8             	bswap  %rax
    35b6:	c3                   	ret    

00000000000035b7 <__uint16_identity>:
    35b7:	f3 0f 1e fa          	endbr64 
    35bb:	89 f8                	mov    %edi,%eax
    35bd:	c3                   	ret    

00000000000035be <__uint32_identity>:
    35be:	f3 0f 1e fa          	endbr64 
    35c2:	89 f8                	mov    %edi,%eax
    35c4:	c3                   	ret    

00000000000035c5 <__uint64_identity>:
    35c5:	f3 0f 1e fa          	endbr64 
    35c9:	48 89 f8             	mov    %rdi,%rax
    35cc:	c3                   	ret    

00000000000035cd <jpeg_start_compress>:
    35cd:	f3 0f 1e fa          	endbr64 
    35d1:	55                   	push   %rbp
    35d2:	53                   	push   %rbx
    35d3:	48 89 fb             	mov    %rdi,%rbx
    35d6:	89 f5                	mov    %esi,%ebp
    35d8:	52                   	push   %rdx
    35d9:	8b 57 1c             	mov    0x1c(%rdi),%edx
    35dc:	83 fa 64             	cmp    $0x64,%edx
    35df:	74 0f                	je     35f0 <jpeg_start_compress+0x23>
    35e1:	48 8b 07             	mov    (%rdi),%rax
    35e4:	c7 40 28 12 00 00 00 	movl   $0x12,0x28(%rax)
    35eb:	89 50 2c             	mov    %edx,0x2c(%rax)
    35ee:	ff 10                	call   *(%rax)
    35f0:	85 ed                	test   %ebp,%ebp
    35f2:	74 0a                	je     35fe <jpeg_start_compress+0x31>
    35f4:	48 89 df             	mov    %rbx,%rdi
    35f7:	31 f6                	xor    %esi,%esi
    35f9:	e8 9f fd ff ff       	call   339d <jpeg_suppress_tables>
    35fe:	48 8b 0b             	mov    (%rbx),%rcx
    3601:	48 89 df             	mov    %rbx,%rdi
    3604:	ff 51 20             	call   *0x20(%rcx)
    3607:	48 8b 73 20          	mov    0x20(%rbx),%rsi
    360b:	48 89 df             	mov    %rbx,%rdi
    360e:	ff 56 10             	call   *0x10(%rsi)
    3611:	48 89 df             	mov    %rbx,%rdi
    3614:	e8 cf 25 00 00       	call   5be8 <jinit_compress_master>
    3619:	4c 8b 83 a8 01 00 00 	mov    0x1a8(%rbx),%r8
    3620:	48 89 df             	mov    %rbx,%rdi
    3623:	41 ff 10             	call   *(%r8)
    3626:	83 bb f8 00 00 00 01 	cmpl   $0x1,0xf8(%rbx)
    362d:	c7 83 28 01 00 00 00 	movl   $0x0,0x128(%rbx)
    3634:	00 00 00 
    3637:	19 ff                	sbb    %edi,%edi
    3639:	83 c7 66             	add    $0x66,%edi
    363c:	89 7b 1c             	mov    %edi,0x1c(%rbx)
    363f:	58                   	pop    %rax
    3640:	5b                   	pop    %rbx
    3641:	5d                   	pop    %rbp
    3642:	c3                   	ret    

0000000000003643 <jpeg_write_scanlines>:
    3643:	f3 0f 1e fa          	endbr64 
    3647:	41 54                	push   %r12
    3649:	55                   	push   %rbp
    364a:	89 d5                	mov    %edx,%ebp
    364c:	49 89 f4             	mov    %rsi,%r12
    364f:	53                   	push   %rbx
    3650:	48 89 fb             	mov    %rdi,%rbx
    3653:	48 83 ec 10          	sub    $0x10,%rsp
    3657:	64 48 8b 04 25 28 00 	mov    %fs:0x28,%rax
    365e:	00 00 
    3660:	48 89 44 24 08       	mov    %rax,0x8(%rsp)
    3665:	31 c0                	xor    %eax,%eax
    3667:	8b 57 1c             	mov    0x1c(%rdi),%edx
    366a:	83 fa 65             	cmp    $0x65,%edx
    366d:	74 0f                	je     367e <jpeg_write_scanlines+0x3b>
    366f:	48 8b 07             	mov    (%rdi),%rax
    3672:	c7 40 28 12 00 00 00 	movl   $0x12,0x28(%rax)
    3679:	89 50 2c             	mov    %edx,0x2c(%rax)
    367c:	ff 10                	call   *(%rax)
    367e:	8b 4b 2c             	mov    0x2c(%rbx),%ecx
    3681:	39 8b 28 01 00 00    	cmp    %ecx,0x128(%rbx)
    3687:	72 15                	jb     369e <jpeg_write_scanlines+0x5b>
    3689:	4c 8b 03             	mov    (%rbx),%r8
    368c:	48 89 df             	mov    %rbx,%rdi
    368f:	83 ce ff             	or     $0xffffffff,%esi
    3692:	41 c7 40 28 77 00 00 	movl   $0x77,0x28(%r8)
    3699:	00 
    369a:	41 ff 50 08          	call   *0x8(%r8)
    369e:	4c 8b 4b 10          	mov    0x10(%rbx),%r9
    36a2:	4d 85 c9             	test   %r9,%r9
    36a5:	74 17                	je     36be <jpeg_write_scanlines+0x7b>
    36a7:	8b b3 28 01 00 00    	mov    0x128(%rbx),%esi
    36ad:	8b 7b 2c             	mov    0x2c(%rbx),%edi
    36b0:	49 89 71 08          	mov    %rsi,0x8(%r9)
    36b4:	49 89 79 10          	mov    %rdi,0x10(%r9)
    36b8:	48 89 df             	mov    %rbx,%rdi
    36bb:	41 ff 11             	call   *(%r9)
    36be:	4c 8b 93 a8 01 00 00 	mov    0x1a8(%rbx),%r10
    36c5:	41 83 7a 18 00       	cmpl   $0x0,0x18(%r10)
    36ca:	74 07                	je     36d3 <jpeg_write_scanlines+0x90>
    36cc:	48 89 df             	mov    %rbx,%rdi
    36cf:	41 ff 52 08          	call   *0x8(%r10)
    36d3:	8b 4b 2c             	mov    0x2c(%rbx),%ecx
    36d6:	2b 8b 28 01 00 00    	sub    0x128(%rbx),%ecx
    36dc:	4c 89 e6             	mov    %r12,%rsi
    36df:	48 89 df             	mov    %rbx,%rdi
    36e2:	4c 8b 9b b0 01 00 00 	mov    0x1b0(%rbx),%r11
    36e9:	39 e9                	cmp    %ebp,%ecx
    36eb:	48 8d 54 24 04       	lea    0x4(%rsp),%rdx
    36f0:	c7 44 24 04 00 00 00 	movl   $0x0,0x4(%rsp)
    36f7:	00 
    36f8:	0f 47 cd             	cmova  %ebp,%ecx
    36fb:	41 ff 53 08          	call   *0x8(%r11)
    36ff:	8b 44 24 04          	mov    0x4(%rsp),%eax
    3703:	01 83 28 01 00 00    	add    %eax,0x128(%rbx)
    3709:	48 8b 54 24 08       	mov    0x8(%rsp),%rdx
    370e:	64 48 2b 14 25 28 00 	sub    %fs:0x28,%rdx
    3715:	00 00 
    3717:	74 05                	je     371e <jpeg_write_scanlines+0xdb>
    3719:	e8 62 eb ff ff       	call   2280 <__stack_chk_fail@plt>
    371e:	48 83 c4 10          	add    $0x10,%rsp
    3722:	5b                   	pop    %rbx
    3723:	5d                   	pop    %rbp
    3724:	41 5c                	pop    %r12
    3726:	c3                   	ret    

0000000000003727 <jpeg_write_raw_data>:
    3727:	f3 0f 1e fa          	endbr64 
    372b:	41 55                	push   %r13
    372d:	41 54                	push   %r12
    372f:	49 89 f5             	mov    %rsi,%r13
    3732:	55                   	push   %rbp
    3733:	53                   	push   %rbx
    3734:	89 d3                	mov    %edx,%ebx
    3736:	48 89 fd             	mov    %rdi,%rbp
    3739:	51                   	push   %rcx
    373a:	8b 57 1c             	mov    0x1c(%rdi),%edx
    373d:	83 fa 66             	cmp    $0x66,%edx
    3740:	74 0f                	je     3751 <jpeg_write_raw_data+0x2a>
    3742:	48 8b 07             	mov    (%rdi),%rax
    3745:	c7 40 28 12 00 00 00 	movl   $0x12,0x28(%rax)
    374c:	89 50 2c             	mov    %edx,0x2c(%rax)
    374f:	ff 10                	call   *(%rax)
    3751:	8b 8d 28 01 00 00    	mov    0x128(%rbp),%ecx
    3757:	8b 75 2c             	mov    0x2c(%rbp),%esi
    375a:	39 f1                	cmp    %esi,%ecx
    375c:	72 1b                	jb     3779 <jpeg_write_raw_data+0x52>
    375e:	4c 8b 6d 00          	mov    0x0(%rbp),%r13
    3762:	48 89 ef             	mov    %rbp,%rdi
    3765:	45 31 e4             	xor    %r12d,%r12d
    3768:	83 ce ff             	or     $0xffffffff,%esi
    376b:	41 c7 45 28 77 00 00 	movl   $0x77,0x28(%r13)
    3772:	00 
    3773:	41 ff 55 08          	call   *0x8(%r13)
    3777:	eb 74                	jmp    37ed <jpeg_write_raw_data+0xc6>
    3779:	4c 8b 45 10          	mov    0x10(%rbp),%r8
    377d:	4d 85 c0             	test   %r8,%r8
    3780:	74 10                	je     3792 <jpeg_write_raw_data+0x6b>
    3782:	89 f7                	mov    %esi,%edi
    3784:	49 89 48 08          	mov    %rcx,0x8(%r8)
    3788:	49 89 78 10          	mov    %rdi,0x10(%r8)
    378c:	48 89 ef             	mov    %rbp,%rdi
    378f:	41 ff 10             	call   *(%r8)
    3792:	4c 8b 8d a8 01 00 00 	mov    0x1a8(%rbp),%r9
    3799:	41 83 79 18 00       	cmpl   $0x0,0x18(%r9)
    379e:	74 07                	je     37a7 <jpeg_write_raw_data+0x80>
    37a0:	48 89 ef             	mov    %rbp,%rdi
    37a3:	41 ff 51 08          	call   *0x8(%r9)
    37a7:	44 8b 95 34 01 00 00 	mov    0x134(%rbp),%r10d
    37ae:	46 8d 24 d5 00 00 00 	lea    0x0(,%r10,8),%r12d
    37b5:	00 
    37b6:	41 39 dc             	cmp    %ebx,%r12d
    37b9:	76 12                	jbe    37cd <jpeg_write_raw_data+0xa6>
    37bb:	4c 8b 5d 00          	mov    0x0(%rbp),%r11
    37bf:	48 89 ef             	mov    %rbp,%rdi
    37c2:	41 c7 43 28 15 00 00 	movl   $0x15,0x28(%r11)
    37c9:	00 
    37ca:	41 ff 13             	call   *(%r11)
    37cd:	48 8b 9d c0 01 00 00 	mov    0x1c0(%rbp),%rbx
    37d4:	4c 89 ee             	mov    %r13,%rsi
    37d7:	48 89 ef             	mov    %rbp,%rdi
    37da:	ff 53 08             	call   *0x8(%rbx)
    37dd:	85 c0                	test   %eax,%eax
    37df:	74 09                	je     37ea <jpeg_write_raw_data+0xc3>
    37e1:	44 01 a5 28 01 00 00 	add    %r12d,0x128(%rbp)
    37e8:	eb 03                	jmp    37ed <jpeg_write_raw_data+0xc6>
    37ea:	45 31 e4             	xor    %r12d,%r12d
    37ed:	44 89 e0             	mov    %r12d,%eax
    37f0:	5a                   	pop    %rdx
    37f1:	5b                   	pop    %rbx
    37f2:	5d                   	pop    %rbp
    37f3:	41 5c                	pop    %r12
    37f5:	41 5d                	pop    %r13
    37f7:	c3                   	ret    

00000000000037f8 <start_iMCU_row>:
    37f8:	48 8b 87 c0 01 00 00 	mov    0x1c0(%rdi),%rax
    37ff:	83 bf 3c 01 00 00 01 	cmpl   $0x1,0x13c(%rdi)
    3806:	be 01 00 00 00       	mov    $0x1,%esi
    380b:	7f 1c                	jg     3829 <start_iMCU_row+0x31>
    380d:	8b 97 38 01 00 00    	mov    0x138(%rdi),%edx
    3813:	48 8b 8f 40 01 00 00 	mov    0x140(%rdi),%rcx
    381a:	ff ca                	dec    %edx
    381c:	39 50 10             	cmp    %edx,0x10(%rax)
    381f:	73 05                	jae    3826 <start_iMCU_row+0x2e>
    3821:	8b 71 0c             	mov    0xc(%rcx),%esi
    3824:	eb 03                	jmp    3829 <start_iMCU_row+0x31>
    3826:	8b 71 48             	mov    0x48(%rcx),%esi
    3829:	89 70 1c             	mov    %esi,0x1c(%rax)
    382c:	48 c7 40 14 00 00 00 	movq   $0x0,0x14(%rax)
    3833:	00 
    3834:	c3                   	ret    

0000000000003835 <start_pass_coef>:
    3835:	f3 0f 1e fa          	endbr64 
    3839:	53                   	push   %rbx
    383a:	48 8b 9f c0 01 00 00 	mov    0x1c0(%rdi),%rbx
    3841:	41 89 f0             	mov    %esi,%r8d
    3844:	c7 43 10 00 00 00 00 	movl   $0x0,0x10(%rbx)
    384b:	e8 a8 ff ff ff       	call   37f8 <start_iMCU_row>
    3850:	41 83 f8 02          	cmp    $0x2,%r8d
    3854:	74 47                	je     389d <start_pass_coef+0x68>
    3856:	41 83 f8 03          	cmp    $0x3,%r8d
    385a:	74 21                	je     387d <start_pass_coef+0x48>
    385c:	45 85 c0             	test   %r8d,%r8d
    385f:	75 58                	jne    38b9 <start_pass_coef+0x84>
    3861:	48 83 7b 70 00       	cmpq   $0x0,0x70(%rbx)
    3866:	74 0c                	je     3874 <start_pass_coef+0x3f>
    3868:	48 8b 37             	mov    (%rdi),%rsi
    386b:	c7 46 28 04 00 00 00 	movl   $0x4,0x28(%rsi)
    3872:	ff 16                	call   *(%rsi)
    3874:	48 8d 15 17 04 00 00 	lea    0x417(%rip),%rdx        # 3c92 <compress_data>
    387b:	eb 1a                	jmp    3897 <start_pass_coef+0x62>
    387d:	48 83 7b 70 00       	cmpq   $0x0,0x70(%rbx)
    3882:	75 0c                	jne    3890 <start_pass_coef+0x5b>
    3884:	48 8b 0f             	mov    (%rdi),%rcx
    3887:	c7 41 28 04 00 00 00 	movl   $0x4,0x28(%rcx)
    388e:	ff 11                	call   *(%rcx)
    3890:	48 8d 15 bd 01 00 00 	lea    0x1bd(%rip),%rdx        # 3a54 <compress_first_pass>
    3897:	48 89 53 08          	mov    %rdx,0x8(%rbx)
    389b:	5b                   	pop    %rbx
    389c:	c3                   	ret    
    389d:	48 83 7b 70 00       	cmpq   $0x0,0x70(%rbx)
    38a2:	75 0c                	jne    38b0 <start_pass_coef+0x7b>
    38a4:	48 8b 07             	mov    (%rdi),%rax
    38a7:	c7 40 28 04 00 00 00 	movl   $0x4,0x28(%rax)
    38ae:	ff 10                	call   *(%rax)
    38b0:	48 8d 15 14 00 00 00 	lea    0x14(%rip),%rdx        # 38cb <compress_output>
    38b7:	eb de                	jmp    3897 <start_pass_coef+0x62>
    38b9:	4c 8b 0f             	mov    (%rdi),%r9
    38bc:	41 c7 41 28 04 00 00 	movl   $0x4,0x28(%r9)
    38c3:	00 
    38c4:	4d 8b 11             	mov    (%r9),%r10
    38c7:	5b                   	pop    %rbx
    38c8:	41 ff e2             	jmp    *%r10

00000000000038cb <compress_output>:
    38cb:	f3 0f 1e fa          	endbr64 
    38cf:	41 57                	push   %r15
    38d1:	45 31 c0             	xor    %r8d,%r8d
    38d4:	41 56                	push   %r14
    38d6:	41 55                	push   %r13
    38d8:	41 54                	push   %r12
    38da:	55                   	push   %rbp
    38db:	48 89 fd             	mov    %rdi,%rbp
    38de:	45 31 e4             	xor    %r12d,%r12d
    38e1:	53                   	push   %rbx
    38e2:	48 83 ec 48          	sub    $0x48,%rsp
    38e6:	64 48 8b 04 25 28 00 	mov    %fs:0x28,%rax
    38ed:	00 00 
    38ef:	48 89 44 24 38       	mov    %rax,0x38(%rsp)
    38f4:	31 c0                	xor    %eax,%eax
    38f6:	48 8b 9f c0 01 00 00 	mov    0x1c0(%rdi),%rbx
    38fd:	44 39 a5 3c 01 00 00 	cmp    %r12d,0x13c(%rbp)
    3904:	7e 32                	jle    3938 <compress_output+0x6d>
    3906:	4a 8b 84 e5 40 01 00 	mov    0x140(%rbp,%r12,8),%rax
    390d:	00 
    390e:	4c 8b 4d 08          	mov    0x8(%rbp),%r9
    3912:	8b 53 10             	mov    0x10(%rbx),%edx
    3915:	8b 48 0c             	mov    0xc(%rax),%ecx
    3918:	48 63 70 04          	movslq 0x4(%rax),%rsi
    391c:	48 8b 74 f3 70       	mov    0x70(%rbx,%rsi,8),%rsi
    3921:	0f af d1             	imul   %ecx,%edx
    3924:	41 ff 51 40          	call   *0x40(%r9)
    3928:	48 89 ef             	mov    %rbp,%rdi
    392b:	4a 89 44 e4 18       	mov    %rax,0x18(%rsp,%r12,8)
    3930:	49 ff c4             	inc    %r12
    3933:	45 31 c0             	xor    %r8d,%r8d
    3936:	eb c5                	jmp    38fd <compress_output+0x32>
    3938:	4c 63 6b 18          	movslq 0x18(%rbx),%r13
    393c:	4c 8d 7b 20          	lea    0x20(%rbx),%r15
    3940:	4d 89 ec             	mov    %r13,%r12
    3943:	49 c1 e5 03          	shl    $0x3,%r13
    3947:	44 39 63 1c          	cmp    %r12d,0x1c(%rbx)
    394b:	0f 8e cf 00 00 00    	jle    3a20 <compress_output+0x155>
    3951:	44 8b 73 14          	mov    0x14(%rbx),%r14d
    3955:	31 d2                	xor    %edx,%edx
    3957:	31 c9                	xor    %ecx,%ecx
    3959:	44 39 b5 60 01 00 00 	cmp    %r14d,0x160(%rbp)
    3960:	0f 86 a7 00 00 00    	jbe    3a0d <compress_output+0x142>
    3966:	8b bd 3c 01 00 00    	mov    0x13c(%rbp),%edi
    396c:	89 7c 24 0c          	mov    %edi,0xc(%rsp)
    3970:	39 54 24 0c          	cmp    %edx,0xc(%rsp)
    3974:	4d 89 e8             	mov    %r13,%r8
    3977:	bf 00 00 00 00       	mov    $0x0,%edi
    397c:	7e 65                	jle    39e3 <compress_output+0x118>
    397e:	4c 8b 94 d5 40 01 00 	mov    0x140(%rbp,%rdx,8),%r10
    3985:	00 
    3986:	41 8b 72 34          	mov    0x34(%r10),%esi
    398a:	45 8b 5a 38          	mov    0x38(%r10),%r11d
    398e:	41 89 f1             	mov    %esi,%r9d
    3991:	44 89 5c 24 08       	mov    %r11d,0x8(%rsp)
    3996:	45 0f af ce          	imul   %r14d,%r9d
    399a:	49 c1 e1 07          	shl    $0x7,%r9
    399e:	39 7c 24 08          	cmp    %edi,0x8(%rsp)
    39a2:	48 63 c1             	movslq %ecx,%rax
    39a5:	7e 37                	jle    39de <compress_output+0x113>
    39a7:	4c 8b 54 d4 18       	mov    0x18(%rsp,%rdx,8),%r10
    39ac:	4f 8b 1c 02          	mov    (%r10,%r8,1),%r11
    39b0:	4d 01 cb             	add    %r9,%r11
    39b3:	48 ff c0             	inc    %rax
    39b6:	44 8d 50 ff          	lea    -0x1(%rax),%r10d
    39ba:	41 29 ca             	sub    %ecx,%r10d
    39bd:	44 39 d6             	cmp    %r10d,%esi
    39c0:	7e 0b                	jle    39cd <compress_output+0x102>
    39c2:	4c 89 5c c3 18       	mov    %r11,0x18(%rbx,%rax,8)
    39c7:	49 83 eb 80          	sub    $0xffffffffffffff80,%r11
    39cb:	eb e6                	jmp    39b3 <compress_output+0xe8>
    39cd:	31 c0                	xor    %eax,%eax
    39cf:	85 f6                	test   %esi,%esi
    39d1:	0f 49 c6             	cmovns %esi,%eax
    39d4:	ff c7                	inc    %edi
    39d6:	49 83 c0 08          	add    $0x8,%r8
    39da:	01 c1                	add    %eax,%ecx
    39dc:	eb c0                	jmp    399e <compress_output+0xd3>
    39de:	48 ff c2             	inc    %rdx
    39e1:	eb 8d                	jmp    3970 <compress_output+0xa5>
    39e3:	48 8b 85 e8 01 00 00 	mov    0x1e8(%rbp),%rax
    39ea:	48 89 ef             	mov    %rbp,%rdi
    39ed:	4c 89 fe             	mov    %r15,%rsi
    39f0:	ff 50 08             	call   *0x8(%rax)
    39f3:	31 d2                	xor    %edx,%edx
    39f5:	31 c9                	xor    %ecx,%ecx
    39f7:	85 c0                	test   %eax,%eax
    39f9:	75 0a                	jne    3a05 <compress_output+0x13a>
    39fb:	44 89 63 18          	mov    %r12d,0x18(%rbx)
    39ff:	44 89 73 14          	mov    %r14d,0x14(%rbx)
    3a03:	eb 2b                	jmp    3a30 <compress_output+0x165>
    3a05:	41 ff c6             	inc    %r14d
    3a08:	e9 4c ff ff ff       	jmp    3959 <compress_output+0x8e>
    3a0d:	c7 43 14 00 00 00 00 	movl   $0x0,0x14(%rbx)
    3a14:	41 ff c4             	inc    %r12d
    3a17:	49 83 c5 08          	add    $0x8,%r13
    3a1b:	e9 27 ff ff ff       	jmp    3947 <compress_output+0x7c>
    3a20:	ff 43 10             	incl   0x10(%rbx)
    3a23:	48 89 ef             	mov    %rbp,%rdi
    3a26:	e8 cd fd ff ff       	call   37f8 <start_iMCU_row>
    3a2b:	b8 01 00 00 00       	mov    $0x1,%eax
    3a30:	48 8b 54 24 38       	mov    0x38(%rsp),%rdx
    3a35:	64 48 2b 14 25 28 00 	sub    %fs:0x28,%rdx
    3a3c:	00 00 
    3a3e:	74 05                	je     3a45 <compress_output+0x17a>
    3a40:	e8 3b e8 ff ff       	call   2280 <__stack_chk_fail@plt>
    3a45:	48 83 c4 48          	add    $0x48,%rsp
    3a49:	5b                   	pop    %rbx
    3a4a:	5d                   	pop    %rbp
    3a4b:	41 5c                	pop    %r12
    3a4d:	41 5d                	pop    %r13
    3a4f:	41 5e                	pop    %r14
    3a51:	41 5f                	pop    %r15
    3a53:	c3                   	ret    

0000000000003a54 <compress_first_pass>:
    3a54:	f3 0f 1e fa          	endbr64 
    3a58:	41 57                	push   %r15
    3a5a:	41 56                	push   %r14
    3a5c:	41 55                	push   %r13
    3a5e:	41 54                	push   %r12
    3a60:	45 31 ed             	xor    %r13d,%r13d
    3a63:	55                   	push   %rbp
    3a64:	53                   	push   %rbx
    3a65:	48 89 fd             	mov    %rdi,%rbp
    3a68:	48 83 ec 48          	sub    $0x48,%rsp
    3a6c:	8b 87 38 01 00 00    	mov    0x138(%rdi),%eax
    3a72:	4c 8b bf c0 01 00 00 	mov    0x1c0(%rdi),%r15
    3a79:	48 89 74 24 20       	mov    %rsi,0x20(%rsp)
    3a7e:	4c 8b 67 50          	mov    0x50(%rdi),%r12
    3a82:	ff c8                	dec    %eax
    3a84:	89 44 24 1c          	mov    %eax,0x1c(%rsp)
    3a88:	44 39 6d 44          	cmp    %r13d,0x44(%rbp)
    3a8c:	0f 8e e5 01 00 00    	jle    3c77 <compress_first_pass+0x223>
    3a92:	41 8b 4c 24 0c       	mov    0xc(%r12),%ecx
    3a97:	48 8b 5d 08          	mov    0x8(%rbp),%rbx
    3a9b:	48 89 ef             	mov    %rbp,%rdi
    3a9e:	41 8b 57 10          	mov    0x10(%r15),%edx
    3aa2:	4b 8b 74 ef 70       	mov    0x70(%r15,%r13,8),%rsi
    3aa7:	41 b8 01 00 00 00    	mov    $0x1,%r8d
    3aad:	0f af d1             	imul   %ecx,%edx
    3ab0:	ff 53 40             	call   *0x40(%rbx)
    3ab3:	41 8b 4c 24 0c       	mov    0xc(%r12),%ecx
    3ab8:	8b 7c 24 1c          	mov    0x1c(%rsp),%edi
    3abc:	48 89 44 24 10       	mov    %rax,0x10(%rsp)
    3ac1:	41 39 7f 10          	cmp    %edi,0x10(%r15)
    3ac5:	72 0e                	jb     3ad5 <compress_first_pass+0x81>
    3ac7:	41 8b 44 24 20       	mov    0x20(%r12),%eax
    3acc:	31 d2                	xor    %edx,%edx
    3ace:	f7 f1                	div    %ecx
    3ad0:	85 d2                	test   %edx,%edx
    3ad2:	0f 45 ca             	cmovne %edx,%ecx
    3ad5:	45 8b 44 24 08       	mov    0x8(%r12),%r8d
    3ada:	41 8b 74 24 1c       	mov    0x1c(%r12),%esi
    3adf:	31 d2                	xor    %edx,%edx
    3ae1:	89 4c 24 08          	mov    %ecx,0x8(%rsp)
    3ae5:	44 89 44 24 04       	mov    %r8d,0x4(%rsp)
    3aea:	89 74 24 18          	mov    %esi,0x18(%rsp)
    3aee:	8b 44 24 18          	mov    0x18(%rsp),%eax
    3af2:	f7 74 24 04          	divl   0x4(%rsp)
    3af6:	85 d2                	test   %edx,%edx
    3af8:	89 d3                	mov    %edx,%ebx
    3afa:	7e 0b                	jle    3b07 <compress_first_pass+0xb3>
    3afc:	44 8b 4c 24 04       	mov    0x4(%rsp),%r9d
    3b01:	41 29 d1             	sub    %edx,%r9d
    3b04:	44 89 cb             	mov    %r9d,%ebx
    3b07:	44 8b 54 24 18       	mov    0x18(%rsp),%r10d
    3b0c:	4c 63 db             	movslq %ebx,%r11
    3b0f:	48 89 ef             	mov    %rbp,%rdi
    3b12:	45 31 f6             	xor    %r14d,%r14d
    3b15:	49 c1 e3 07          	shl    $0x7,%r11
    3b19:	45 31 c9             	xor    %r9d,%r9d
    3b1c:	49 c1 e2 07          	shl    $0x7,%r10
    3b20:	4c 89 5c 24 30       	mov    %r11,0x30(%rsp)
    3b25:	4c 89 54 24 28       	mov    %r10,0x28(%rsp)
    3b2a:	44 39 74 24 08       	cmp    %r14d,0x8(%rsp)
    3b2f:	4c 89 e6             	mov    %r12,%rsi
    3b32:	0f 8e 8a 00 00 00    	jle    3bc2 <compress_first_pass+0x16e>
    3b38:	50                   	push   %rax
    3b39:	48 8b 4c 24 18       	mov    0x18(%rsp),%rcx
    3b3e:	4c 8b 44 24 28       	mov    0x28(%rsp),%r8
    3b43:	44 8b 5c 24 20       	mov    0x20(%rsp),%r11d
    3b48:	4c 8b 95 e0 01 00 00 	mov    0x1e0(%rbp),%r10
    3b4f:	4a 8b 04 f1          	mov    (%rcx,%r14,8),%rax
    3b53:	4b 8b 14 e8          	mov    (%r8,%r13,8),%rdx
    3b57:	41 53                	push   %r11
    3b59:	46 8d 04 f5 00 00 00 	lea    0x0(,%r14,8),%r8d
    3b60:	00 
    3b61:	48 89 c1             	mov    %rax,%rcx
    3b64:	48 89 44 24 48       	mov    %rax,0x48(%rsp)
    3b69:	41 ff 52 08          	call   *0x8(%r10)
    3b6d:	48 8b 74 24 40       	mov    0x40(%rsp),%rsi
    3b72:	45 31 c9             	xor    %r9d,%r9d
    3b75:	85 db                	test   %ebx,%ebx
    3b77:	5a                   	pop    %rdx
    3b78:	59                   	pop    %rcx
    3b79:	48 8b 54 24 38       	mov    0x38(%rsp),%rdx
    3b7e:	48 89 ef             	mov    %rbp,%rdi
    3b81:	7e 37                	jle    3bba <compress_first_pass+0x166>
    3b83:	48 03 54 24 28       	add    0x28(%rsp),%rdx
    3b88:	48 89 d7             	mov    %rdx,%rdi
    3b8b:	48 89 54 24 38       	mov    %rdx,0x38(%rsp)
    3b90:	e8 88 44 01 00       	call   1801d <jzero_far>
    3b95:	48 8b 7c 24 38       	mov    0x38(%rsp),%rdi
    3b9a:	45 31 c9             	xor    %r9d,%r9d
    3b9d:	66 8b 77 80          	mov    -0x80(%rdi),%si
    3ba1:	4c 89 c9             	mov    %r9,%rcx
    3ba4:	49 ff c1             	inc    %r9
    3ba7:	48 c1 e1 07          	shl    $0x7,%rcx
    3bab:	44 39 cb             	cmp    %r9d,%ebx
    3bae:	66 89 34 0f          	mov    %si,(%rdi,%rcx,1)
    3bb2:	7f ed                	jg     3ba1 <compress_first_pass+0x14d>
    3bb4:	48 89 ef             	mov    %rbp,%rdi
    3bb7:	45 31 c9             	xor    %r9d,%r9d
    3bba:	49 ff c6             	inc    %r14
    3bbd:	e9 68 ff ff ff       	jmp    3b2a <compress_first_pass+0xd6>
    3bc2:	44 8b 74 24 1c       	mov    0x1c(%rsp),%r14d
    3bc7:	45 39 77 10          	cmp    %r14d,0x10(%r15)
    3bcb:	74 0c                	je     3bd9 <compress_first_pass+0x185>
    3bcd:	49 83 c4 60          	add    $0x60,%r12
    3bd1:	49 ff c5             	inc    %r13
    3bd4:	e9 af fe ff ff       	jmp    3a88 <compress_first_pass+0x34>
    3bd9:	8b 44 24 18          	mov    0x18(%rsp),%eax
    3bdd:	31 d2                	xor    %edx,%edx
    3bdf:	48 63 4c 24 04       	movslq 0x4(%rsp),%rcx
    3be4:	4c 63 44 24 08       	movslq 0x8(%rsp),%r8
    3be9:	44 8d 34 18          	lea    (%rax,%rbx,1),%r14d
    3bed:	48 c1 e1 07          	shl    $0x7,%rcx
    3bf1:	4c 89 f0             	mov    %r14,%rax
    3bf4:	f7 74 24 04          	divl   0x4(%rsp)
    3bf8:	49 c1 e6 07          	shl    $0x7,%r14
    3bfc:	89 44 24 18          	mov    %eax,0x18(%rsp)
    3c00:	45 39 44 24 0c       	cmp    %r8d,0xc(%r12)
    3c05:	4c 89 f6             	mov    %r14,%rsi
    3c08:	7e c3                	jle    3bcd <compress_first_pass+0x179>
    3c0a:	48 8b 5c 24 10       	mov    0x10(%rsp),%rbx
    3c0f:	4c 89 44 24 28       	mov    %r8,0x28(%rsp)
    3c14:	48 89 4c 24 30       	mov    %rcx,0x30(%rsp)
    3c19:	4e 8b 14 c3          	mov    (%rbx,%r8,8),%r10
    3c1d:	4a 8b 5c c3 f8       	mov    -0x8(%rbx,%r8,8),%rbx
    3c22:	4c 89 d7             	mov    %r10,%rdi
    3c25:	4c 89 54 24 08       	mov    %r10,0x8(%rsp)
    3c2a:	e8 ee 43 01 00       	call   1801d <jzero_far>
    3c2f:	48 8b 4c 24 30       	mov    0x30(%rsp),%rcx
    3c34:	48 8b 44 24 08       	mov    0x8(%rsp),%rax
    3c39:	31 f6                	xor    %esi,%esi
    3c3b:	4c 8b 44 24 28       	mov    0x28(%rsp),%r8
    3c40:	48 01 cb             	add    %rcx,%rbx
    3c43:	45 31 db             	xor    %r11d,%r11d
    3c46:	3b 74 24 18          	cmp    0x18(%rsp),%esi
    3c4a:	74 26                	je     3c72 <compress_first_pass+0x21e>
    3c4c:	66 8b 7b 80          	mov    -0x80(%rbx),%di
    3c50:	4d 89 d9             	mov    %r11,%r9
    3c53:	44 39 5c 24 04       	cmp    %r11d,0x4(%rsp)
    3c58:	7e 0e                	jle    3c68 <compress_first_pass+0x214>
    3c5a:	49 c1 e1 07          	shl    $0x7,%r9
    3c5e:	49 ff c3             	inc    %r11
    3c61:	66 42 89 3c 08       	mov    %di,(%rax,%r9,1)
    3c66:	eb e8                	jmp    3c50 <compress_first_pass+0x1fc>
    3c68:	48 01 c8             	add    %rcx,%rax
    3c6b:	ff c6                	inc    %esi
    3c6d:	48 01 cb             	add    %rcx,%rbx
    3c70:	eb d1                	jmp    3c43 <compress_first_pass+0x1ef>
    3c72:	49 ff c0             	inc    %r8
    3c75:	eb 89                	jmp    3c00 <compress_first_pass+0x1ac>
    3c77:	48 8b 74 24 20       	mov    0x20(%rsp),%rsi
    3c7c:	48 83 c4 48          	add    $0x48,%rsp
    3c80:	48 89 ef             	mov    %rbp,%rdi
    3c83:	5b                   	pop    %rbx
    3c84:	5d                   	pop    %rbp
    3c85:	41 5c                	pop    %r12
    3c87:	41 5d                	pop    %r13
    3c89:	41 5e                	pop    %r14
    3c8b:	41 5f                	pop    %r15
    3c8d:	e9 39 fc ff ff       	jmp    38cb <compress_output>

0000000000003c92 <compress_data>:
    3c92:	f3 0f 1e fa          	endbr64 
    3c96:	41 57                	push   %r15
    3c98:	41 56                	push   %r14
    3c9a:	41 55                	push   %r13
    3c9c:	41 54                	push   %r12
    3c9e:	55                   	push   %rbp
    3c9f:	53                   	push   %rbx
    3ca0:	48 89 fd             	mov    %rdi,%rbp
    3ca3:	48 83 ec 48          	sub    $0x48,%rsp
    3ca7:	48 8b 9f c0 01 00 00 	mov    0x1c0(%rdi),%rbx
    3cae:	8b 87 60 01 00 00    	mov    0x160(%rdi),%eax
    3cb4:	48 89 74 24 28       	mov    %rsi,0x28(%rsp)
    3cb9:	8b 8f 38 01 00 00    	mov    0x138(%rdi),%ecx
    3cbf:	ff c8                	dec    %eax
    3cc1:	48 8d 53 20          	lea    0x20(%rbx),%rdx
    3cc5:	44 8b 6b 18          	mov    0x18(%rbx),%r13d
    3cc9:	ff c9                	dec    %ecx
    3ccb:	89 44 24 1c          	mov    %eax,0x1c(%rsp)
    3ccf:	48 89 54 24 30       	mov    %rdx,0x30(%rsp)
    3cd4:	89 4c 24 20          	mov    %ecx,0x20(%rsp)
    3cd8:	44 39 6b 1c          	cmp    %r13d,0x1c(%rbx)
    3cdc:	0f 8e 12 02 00 00    	jle    3ef4 <compress_data+0x262>
    3ce2:	8b 73 14             	mov    0x14(%rbx),%esi
    3ce5:	42 8d 3c ed 00 00 00 	lea    0x0(,%r13,8),%edi
    3cec:	00 
    3ced:	89 7c 24 24          	mov    %edi,0x24(%rsp)
    3cf1:	89 74 24 04          	mov    %esi,0x4(%rsp)
    3cf5:	44 8b 44 24 1c       	mov    0x1c(%rsp),%r8d
    3cfa:	44 39 44 24 04       	cmp    %r8d,0x4(%rsp)
    3cff:	0f 87 e0 01 00 00    	ja     3ee5 <compress_data+0x253>
    3d05:	48 c7 44 24 08 00 00 	movq   $0x0,0x8(%rsp)
    3d0c:	00 00 
    3d0e:	45 31 f6             	xor    %r14d,%r14d
    3d11:	44 8b 4c 24 08       	mov    0x8(%rsp),%r9d
    3d16:	44 39 8d 3c 01 00 00 	cmp    %r9d,0x13c(%rbp)
    3d1d:	0f 8e 95 01 00 00    	jle    3eb8 <compress_data+0x226>
    3d23:	4c 8b 54 24 08       	mov    0x8(%rsp),%r10
    3d28:	44 8b 5c 24 1c       	mov    0x1c(%rsp),%r11d
    3d2d:	44 39 5c 24 04       	cmp    %r11d,0x4(%rsp)
    3d32:	4e 8b a4 d5 40 01 00 	mov    0x140(%rbp,%r10,8),%r12
    3d39:	00 
    3d3a:	73 07                	jae    3d43 <compress_data+0xb1>
    3d3c:	45 8b 7c 24 34       	mov    0x34(%r12),%r15d
    3d41:	eb 05                	jmp    3d48 <compress_data+0xb6>
    3d43:	45 8b 7c 24 44       	mov    0x44(%r12),%r15d
    3d48:	44 8b 4c 24 04       	mov    0x4(%rsp),%r9d
    3d4d:	8b 44 24 24          	mov    0x24(%rsp),%eax
    3d51:	4c 89 e6             	mov    %r12,%rsi
    3d54:	48 89 ef             	mov    %rbp,%rdi
    3d57:	45 0f af 4c 24 40    	imul   0x40(%r12),%r9d
    3d5d:	c7 44 24 10 00 00 00 	movl   $0x0,0x10(%rsp)
    3d64:	00 
    3d65:	49 63 d6             	movslq %r14d,%rdx
    3d68:	89 44 24 14          	mov    %eax,0x14(%rsp)
    3d6c:	44 8b 44 24 14       	mov    0x14(%rsp),%r8d
    3d71:	44 89 4c 24 18       	mov    %r9d,0x18(%rsp)
    3d76:	8b 4c 24 10          	mov    0x10(%rsp),%ecx
    3d7a:	41 39 4c 24 38       	cmp    %ecx,0x38(%r12)
    3d7f:	0f 8e 29 01 00 00    	jle    3eae <compress_data+0x21c>
    3d85:	44 8b 54 24 20       	mov    0x20(%rsp),%r10d
    3d8a:	44 39 53 10          	cmp    %r10d,0x10(%rbx)
    3d8e:	48 8b 4c d3 20       	mov    0x20(%rbx,%rdx,8),%rcx
    3d93:	48 8d 14 d3          	lea    (%rbx,%rdx,8),%rdx
    3d97:	72 14                	jb     3dad <compress_data+0x11b>
    3d99:	44 8b 5c 24 10       	mov    0x10(%rsp),%r11d
    3d9e:	43 8d 04 2b          	lea    (%r11,%r13,1),%eax
    3da2:	41 39 44 24 48       	cmp    %eax,0x48(%r12)
    3da7:	0f 8e b2 00 00 00    	jle    3e5f <compress_data+0x1cd>
    3dad:	48 8b 44 24 28       	mov    0x28(%rsp),%rax
    3db2:	4c 8b 54 24 08       	mov    0x8(%rsp),%r10
    3db7:	4a 8b 14 d0          	mov    (%rax,%r10,8),%rdx
    3dbb:	50                   	push   %rax
    3dbc:	4c 8b 9d e0 01 00 00 	mov    0x1e0(%rbp),%r11
    3dc3:	41 57                	push   %r15
    3dc5:	41 ff 53 08          	call   *0x8(%r11)
    3dc9:	45 8b 44 24 34       	mov    0x34(%r12),%r8d
    3dce:	44 8b 4c 24 28       	mov    0x28(%rsp),%r9d
    3dd3:	4c 89 e6             	mov    %r12,%rsi
    3dd6:	59                   	pop    %rcx
    3dd7:	45 39 f8             	cmp    %r15d,%r8d
    3dda:	5f                   	pop    %rdi
    3ddb:	48 89 ef             	mov    %rbp,%rdi
    3dde:	7f 48                	jg     3e28 <compress_data+0x196>
    3de0:	45 01 c6             	add    %r8d,%r14d
    3de3:	eb 2d                	jmp    3e12 <compress_data+0x180>
    3de5:	4d 8b 5a 10          	mov    0x10(%r10),%r11
    3de9:	49 8b 7a 18          	mov    0x18(%r10),%rdi
    3ded:	48 ff c0             	inc    %rax
    3df0:	49 83 c2 08          	add    $0x8,%r10
    3df4:	66 45 8b 03          	mov    (%r11),%r8w
    3df8:	66 44 89 07          	mov    %r8w,(%rdi)
    3dfc:	eb 00                	jmp    3dfe <compress_data+0x16c>
    3dfe:	39 c6                	cmp    %eax,%esi
    3e00:	7f e3                	jg     3de5 <compress_data+0x153>
    3e02:	44 8b 4c 24 18       	mov    0x18(%rsp),%r9d
    3e07:	4c 89 e6             	mov    %r12,%rsi
    3e0a:	48 89 ef             	mov    %rbp,%rdi
    3e0d:	45 03 74 24 34       	add    0x34(%r12),%r14d
    3e12:	83 44 24 14 08       	addl   $0x8,0x14(%rsp)
    3e17:	44 8b 44 24 14       	mov    0x14(%rsp),%r8d
    3e1c:	49 63 d6             	movslq %r14d,%rdx
    3e1f:	ff 44 24 10          	incl   0x10(%rsp)
    3e23:	e9 4e ff ff ff       	jmp    3d76 <compress_data+0xe4>
    3e28:	47 8d 0c 3e          	lea    (%r14,%r15,1),%r9d
    3e2c:	45 29 f8             	sub    %r15d,%r8d
    3e2f:	49 63 c9             	movslq %r9d,%rcx
    3e32:	49 63 f0             	movslq %r8d,%rsi
    3e35:	48 8b 7c cb 20       	mov    0x20(%rbx,%rcx,8),%rdi
    3e3a:	48 c1 e6 07          	shl    $0x7,%rsi
    3e3e:	48 8d 14 cb          	lea    (%rbx,%rcx,8),%rdx
    3e42:	48 89 54 24 38       	mov    %rdx,0x38(%rsp)
    3e47:	e8 d1 41 01 00       	call   1801d <jzero_far>
    3e4c:	4c 8b 54 24 38       	mov    0x38(%rsp),%r10
    3e51:	41 8b 74 24 34       	mov    0x34(%r12),%esi
    3e56:	49 63 c7             	movslq %r15d,%rax
    3e59:	49 83 c2 08          	add    $0x8,%r10
    3e5d:	eb 9f                	jmp    3dfe <compress_data+0x16c>
    3e5f:	49 63 74 24 34       	movslq 0x34(%r12),%rsi
    3e64:	48 89 cf             	mov    %rcx,%rdi
    3e67:	48 89 54 24 38       	mov    %rdx,0x38(%rsp)
    3e6c:	48 c1 e6 07          	shl    $0x7,%rsi
    3e70:	e8 a8 41 01 00       	call   1801d <jzero_far>
    3e75:	41 8b 7c 24 34       	mov    0x34(%r12),%edi
    3e7a:	4c 8b 4c 24 38       	mov    0x38(%rsp),%r9
    3e7f:	41 8d 76 ff          	lea    -0x1(%r14),%esi
    3e83:	31 c9                	xor    %ecx,%ecx
    3e85:	4c 63 d6             	movslq %esi,%r10
    3e88:	41 8d 76 ff          	lea    -0x1(%r14),%esi
    3e8c:	39 cf                	cmp    %ecx,%edi
    3e8e:	0f 8e 6e ff ff ff    	jle    3e02 <compress_data+0x170>
    3e94:	4a 8b 54 d3 20       	mov    0x20(%rbx,%r10,8),%rdx
    3e99:	4c 63 d6             	movslq %esi,%r10
    3e9c:	4d 8b 44 c9 20       	mov    0x20(%r9,%rcx,8),%r8
    3ea1:	48 ff c1             	inc    %rcx
    3ea4:	66 44 8b 1a          	mov    (%rdx),%r11w
    3ea8:	66 45 89 18          	mov    %r11w,(%r8)
    3eac:	eb da                	jmp    3e88 <compress_data+0x1f6>
    3eae:	48 ff 44 24 08       	incq   0x8(%rsp)
    3eb3:	e9 59 fe ff ff       	jmp    3d11 <compress_data+0x7f>
    3eb8:	4c 8b b5 e8 01 00 00 	mov    0x1e8(%rbp),%r14
    3ebf:	48 89 ef             	mov    %rbp,%rdi
    3ec2:	48 8b 74 24 30       	mov    0x30(%rsp),%rsi
    3ec7:	41 ff 56 08          	call   *0x8(%r14)
    3ecb:	85 c0                	test   %eax,%eax
    3ecd:	75 0d                	jne    3edc <compress_data+0x24a>
    3ecf:	8b 6c 24 04          	mov    0x4(%rsp),%ebp
    3ed3:	44 89 6b 18          	mov    %r13d,0x18(%rbx)
    3ed7:	89 6b 14             	mov    %ebp,0x14(%rbx)
    3eda:	eb 28                	jmp    3f04 <compress_data+0x272>
    3edc:	ff 44 24 04          	incl   0x4(%rsp)
    3ee0:	e9 10 fe ff ff       	jmp    3cf5 <compress_data+0x63>
    3ee5:	c7 43 14 00 00 00 00 	movl   $0x0,0x14(%rbx)
    3eec:	41 ff c5             	inc    %r13d
    3eef:	e9 e4 fd ff ff       	jmp    3cd8 <compress_data+0x46>
    3ef4:	ff 43 10             	incl   0x10(%rbx)
    3ef7:	48 89 ef             	mov    %rbp,%rdi
    3efa:	e8 f9 f8 ff ff       	call   37f8 <start_iMCU_row>
    3eff:	b8 01 00 00 00       	mov    $0x1,%eax
    3f04:	48 83 c4 48          	add    $0x48,%rsp
    3f08:	5b                   	pop    %rbx
    3f09:	5d                   	pop    %rbp
    3f0a:	41 5c                	pop    %r12
    3f0c:	41 5d                	pop    %r13
    3f0e:	41 5e                	pop    %r14
    3f10:	41 5f                	pop    %r15
    3f12:	c3                   	ret    

0000000000003f13 <__bswap_16>:
    3f13:	f3 0f 1e fa          	endbr64 
    3f17:	89 f8                	mov    %edi,%eax
    3f19:	86 e0                	xchg   %ah,%al
    3f1b:	c3                   	ret    

0000000000003f1c <__bswap_32>:
    3f1c:	f3 0f 1e fa          	endbr64 
    3f20:	89 f8                	mov    %edi,%eax
    3f22:	0f c8                	bswap  %eax
    3f24:	c3                   	ret    

0000000000003f25 <__bswap_64>:
    3f25:	f3 0f 1e fa          	endbr64 
    3f29:	48 89 f8             	mov    %rdi,%rax
    3f2c:	48 0f c8             	bswap  %rax
    3f2f:	c3                   	ret    

0000000000003f30 <__uint16_identity>:
    3f30:	f3 0f 1e fa          	endbr64 
    3f34:	89 f8                	mov    %edi,%eax
    3f36:	c3                   	ret    

0000000000003f37 <__uint32_identity>:
    3f37:	f3 0f 1e fa          	endbr64 
    3f3b:	89 f8                	mov    %edi,%eax
    3f3d:	c3                   	ret    

0000000000003f3e <__uint64_identity>:
    3f3e:	f3 0f 1e fa          	endbr64 
    3f42:	48 89 f8             	mov    %rdi,%rax
    3f45:	c3                   	ret    

0000000000003f46 <jinit_c_coef_controller>:
    3f46:	f3 0f 1e fa          	endbr64 
    3f4a:	41 57                	push   %r15
    3f4c:	ba c0 00 00 00       	mov    $0xc0,%edx
    3f51:	41 56                	push   %r14
    3f53:	41 55                	push   %r13
    3f55:	41 54                	push   %r12
    3f57:	55                   	push   %rbp
    3f58:	53                   	push   %rbx
    3f59:	89 f3                	mov    %esi,%ebx
    3f5b:	48 89 fd             	mov    %rdi,%rbp
    3f5e:	be 01 00 00 00       	mov    $0x1,%esi
    3f63:	48 83 ec 18          	sub    $0x18,%rsp
    3f67:	48 8b 47 08          	mov    0x8(%rdi),%rax
    3f6b:	ff 10                	call   *(%rax)
    3f6d:	48 8d 15 c1 f8 ff ff 	lea    -0x73f(%rip),%rdx        # 3835 <start_pass_coef>
    3f74:	85 db                	test   %ebx,%ebx
    3f76:	49 89 c4             	mov    %rax,%r12
    3f79:	48 89 85 c0 01 00 00 	mov    %rax,0x1c0(%rbp)
    3f80:	48 89 10             	mov    %rdx,(%rax)
    3f83:	74 60                	je     3fe5 <jinit_c_coef_controller+0x9f>
    3f85:	48 8b 7d 50          	mov    0x50(%rbp),%rdi
    3f89:	45 31 ed             	xor    %r13d,%r13d
    3f8c:	48 8d 5f 08          	lea    0x8(%rdi),%rbx
    3f90:	44 39 6d 44          	cmp    %r13d,0x44(%rbp)
    3f94:	0f 8e 84 00 00 00    	jle    401e <jinit_c_coef_controller+0xd8>
    3f9a:	4c 8b 45 08          	mov    0x8(%rbp),%r8
    3f9e:	48 63 73 04          	movslq 0x4(%rbx),%rsi
    3fa2:	8b 7b 18             	mov    0x18(%rbx),%edi
    3fa5:	4d 8b 78 28          	mov    0x28(%r8),%r15
    3fa9:	89 74 24 0c          	mov    %esi,0xc(%rsp)
    3fad:	e8 0a 40 01 00       	call   17fbc <jround_up>
    3fb2:	48 63 33             	movslq (%rbx),%rsi
    3fb5:	8b 7b 14             	mov    0x14(%rbx),%edi
    3fb8:	49 89 c6             	mov    %rax,%r14
    3fbb:	48 83 c3 60          	add    $0x60,%rbx
    3fbf:	e8 f8 3f 01 00       	call   17fbc <jround_up>
    3fc4:	45 89 f0             	mov    %r14d,%r8d
    3fc7:	89 c1                	mov    %eax,%ecx
    3fc9:	be 01 00 00 00       	mov    $0x1,%esi
    3fce:	48 89 ef             	mov    %rbp,%rdi
    3fd1:	44 8b 4c 24 0c       	mov    0xc(%rsp),%r9d
    3fd6:	31 d2                	xor    %edx,%edx
    3fd8:	41 ff d7             	call   *%r15
    3fdb:	4b 89 44 ec 70       	mov    %rax,0x70(%r12,%r13,8)
    3fe0:	49 ff c5             	inc    %r13
    3fe3:	eb ab                	jmp    3f90 <jinit_c_coef_controller+0x4a>
    3fe5:	4c 8b 6d 08          	mov    0x8(%rbp),%r13
    3fe9:	ba 00 05 00 00       	mov    $0x500,%edx
    3fee:	be 01 00 00 00       	mov    $0x1,%esi
    3ff3:	48 89 ef             	mov    %rbp,%rdi
    3ff6:	41 ff 55 08          	call   *0x8(%r13)
    3ffa:	31 f6                	xor    %esi,%esi
    3ffc:	48 89 f1             	mov    %rsi,%rcx
    3fff:	48 c1 e1 04          	shl    $0x4,%rcx
    4003:	48 01 c1             	add    %rax,%rcx
    4006:	49 89 4c 34 20       	mov    %rcx,0x20(%r12,%rsi,1)
    400b:	48 83 c6 08          	add    $0x8,%rsi
    400f:	48 83 fe 50          	cmp    $0x50,%rsi
    4013:	75 e7                	jne    3ffc <jinit_c_coef_controller+0xb6>
    4015:	49 c7 44 24 70 00 00 	movq   $0x0,0x70(%r12)
    401c:	00 00 
    401e:	48 83 c4 18          	add    $0x18,%rsp
    4022:	5b                   	pop    %rbx
    4023:	5d                   	pop    %rbp
    4024:	41 5c                	pop    %r12
    4026:	41 5d                	pop    %r13
    4028:	41 5e                	pop    %r14
    402a:	41 5f                	pop    %r15
    402c:	c3                   	ret    

000000000000402d <rgb_ycc_start>:
    402d:	f3 0f 1e fa          	endbr64 
    4031:	53                   	push   %rbx
    4032:	48 8b 47 08          	mov    0x8(%rdi),%rax
    4036:	ba 00 40 00 00       	mov    $0x4000,%edx
    403b:	be 01 00 00 00       	mov    $0x1,%esi
    4040:	48 8b 9f d0 01 00 00 	mov    0x1d0(%rdi),%rbx
    4047:	ff 10                	call   *(%rax)
    4049:	48 89 43 10          	mov    %rax,0x10(%rbx)
    404d:	31 d2                	xor    %edx,%edx
    404f:	48 89 d6             	mov    %rdx,%rsi
    4052:	48 69 ca 2f 1d 00 00 	imul   $0x1d2f,%rdx,%rcx
    4059:	48 c1 e6 0f          	shl    $0xf,%rsi
    405d:	48 69 fa 8b 4c 00 00 	imul   $0x4c8b,%rdx,%rdi
    4064:	48 81 c6 ff 7f 80 00 	add    $0x807fff,%rsi
    406b:	4c 69 d2 46 96 00 00 	imul   $0x9646,%rdx,%r10
    4072:	4c 69 ca cd d4 ff ff 	imul   $0xffffffffffffd4cd,%rdx,%r9
    4079:	48 81 c1 00 80 00 00 	add    $0x8000,%rcx
    4080:	4c 69 c2 33 ab ff ff 	imul   $0xffffffffffffab33,%rdx,%r8
    4087:	48 89 3c d0          	mov    %rdi,(%rax,%rdx,8)
    408b:	4c 69 da d1 94 ff ff 	imul   $0xffffffffffff94d1,%rdx,%r11
    4092:	4c 89 94 d0 00 08 00 	mov    %r10,0x800(%rax,%rdx,8)
    4099:	00 
    409a:	48 69 da 2f eb ff ff 	imul   $0xffffffffffffeb2f,%rdx,%rbx
    40a1:	48 89 8c d0 00 10 00 	mov    %rcx,0x1000(%rax,%rdx,8)
    40a8:	00 
    40a9:	4c 89 8c d0 00 18 00 	mov    %r9,0x1800(%rax,%rdx,8)
    40b0:	00 
    40b1:	4c 89 84 d0 00 20 00 	mov    %r8,0x2000(%rax,%rdx,8)
    40b8:	00 
    40b9:	48 89 b4 d0 00 28 00 	mov    %rsi,0x2800(%rax,%rdx,8)
    40c0:	00 
    40c1:	4c 89 9c d0 00 30 00 	mov    %r11,0x3000(%rax,%rdx,8)
    40c8:	00 
    40c9:	48 89 9c d0 00 38 00 	mov    %rbx,0x3800(%rax,%rdx,8)
    40d0:	00 
    40d1:	48 ff c2             	inc    %rdx
    40d4:	48 89 d6             	mov    %rdx,%rsi
    40d7:	48 81 fa 00 01 00 00 	cmp    $0x100,%rdx
    40de:	0f 85 6e ff ff ff    	jne    4052 <rgb_ycc_start+0x25>
    40e4:	5b                   	pop    %rbx
    40e5:	c3                   	ret    

00000000000040e6 <rgb_ycc_convert>:
    40e6:	f3 0f 1e fa          	endbr64 
    40ea:	41 57                	push   %r15
    40ec:	49 89 d2             	mov    %rdx,%r10
    40ef:	45 31 c9             	xor    %r9d,%r9d
    40f2:	41 56                	push   %r14
    40f4:	41 55                	push   %r13
    40f6:	41 54                	push   %r12
    40f8:	55                   	push   %rbp
    40f9:	53                   	push   %rbx
    40fa:	48 89 f5             	mov    %rsi,%rbp
    40fd:	48 8b 87 d0 01 00 00 	mov    0x1d0(%rdi),%rax
    4104:	41 8d 70 ff          	lea    -0x1(%r8),%esi
    4108:	44 8b 67 28          	mov    0x28(%rdi),%r12d
    410c:	89 cb                	mov    %ecx,%ebx
    410e:	48 8b 40 10          	mov    0x10(%rax),%rax
    4112:	89 74 24 fc          	mov    %esi,-0x4(%rsp)
    4116:	31 f6                	xor    %esi,%esi
    4118:	44 39 4c 24 fc       	cmp    %r9d,-0x4(%rsp)
    411d:	42 8d 14 0b          	lea    (%rbx,%r9,1),%edx
    4121:	0f 88 a3 00 00 00    	js     41ca <rgb_ycc_convert+0xe4>
    4127:	4d 8b 1a             	mov    (%r10),%r11
    412a:	4d 8b 42 08          	mov    0x8(%r10),%r8
    412e:	49 8b 4a 10          	mov    0x10(%r10),%rcx
    4132:	4a 8b 7c cd 00       	mov    0x0(%rbp,%r9,8),%rdi
    4137:	4d 8b 2c d3          	mov    (%r11,%rdx,8),%r13
    413b:	4d 8b 34 d0          	mov    (%r8,%rdx,8),%r14
    413f:	4c 8b 3c d1          	mov    (%rcx,%rdx,8),%r15
    4143:	41 39 f4             	cmp    %esi,%r12d
    4146:	76 7a                	jbe    41c2 <rgb_ycc_convert+0xdc>
    4148:	0f b6 57 01          	movzbl 0x1(%rdi),%edx
    414c:	44 0f b6 1f          	movzbl (%rdi),%r11d
    4150:	44 0f b6 47 02       	movzbl 0x2(%rdi),%r8d
    4155:	48 81 c2 00 01 00 00 	add    $0x100,%rdx
    415c:	48 83 c7 03          	add    $0x3,%rdi
    4160:	48 8b 0c d0          	mov    (%rax,%rdx,8),%rcx
    4164:	4a 03 0c d8          	add    (%rax,%r11,8),%rcx
    4168:	4a 03 8c c0 00 10 00 	add    0x1000(%rax,%r8,8),%rcx
    416f:	00 
    4170:	48 c1 e2 03          	shl    $0x3,%rdx
    4174:	48 c1 f9 10          	sar    $0x10,%rcx
    4178:	41 88 4c 35 00       	mov    %cl,0x0(%r13,%rsi,1)
    417d:	48 8b 8c 10 00 18 00 	mov    0x1800(%rax,%rdx,1),%rcx
    4184:	00 
    4185:	4a 03 8c d8 00 18 00 	add    0x1800(%rax,%r11,8),%rcx
    418c:	00 
    418d:	4a 03 8c c0 00 28 00 	add    0x2800(%rax,%r8,8),%rcx
    4194:	00 
    4195:	48 c1 f9 10          	sar    $0x10,%rcx
    4199:	41 88 0c 36          	mov    %cl,(%r14,%rsi,1)
    419d:	48 8b 94 10 00 28 00 	mov    0x2800(%rax,%rdx,1),%rdx
    41a4:	00 
    41a5:	4a 03 94 d8 00 28 00 	add    0x2800(%rax,%r11,8),%rdx
    41ac:	00 
    41ad:	4a 03 94 c0 00 38 00 	add    0x3800(%rax,%r8,8),%rdx
    41b4:	00 
    41b5:	48 c1 fa 10          	sar    $0x10,%rdx
    41b9:	41 88 14 37          	mov    %dl,(%r15,%rsi,1)
    41bd:	48 ff c6             	inc    %rsi
    41c0:	eb 81                	jmp    4143 <rgb_ycc_convert+0x5d>
    41c2:	49 ff c1             	inc    %r9
    41c5:	e9 4c ff ff ff       	jmp    4116 <rgb_ycc_convert+0x30>
    41ca:	5b                   	pop    %rbx
    41cb:	5d                   	pop    %rbp
    41cc:	41 5c                	pop    %r12
    41ce:	41 5d                	pop    %r13
    41d0:	41 5e                	pop    %r14
    41d2:	41 5f                	pop    %r15
    41d4:	c3                   	ret    

00000000000041d5 <rgb_gray_convert>:
    41d5:	f3 0f 1e fa          	endbr64 
    41d9:	41 55                	push   %r13
    41db:	49 89 f2             	mov    %rsi,%r10
    41de:	49 89 d3             	mov    %rdx,%r11
    41e1:	41 89 c9             	mov    %ecx,%r9d
    41e4:	41 54                	push   %r12
    41e6:	41 ff c8             	dec    %r8d
    41e9:	31 d2                	xor    %edx,%edx
    41eb:	55                   	push   %rbp
    41ec:	53                   	push   %rbx
    41ed:	48 8b 87 d0 01 00 00 	mov    0x1d0(%rdi),%rax
    41f4:	8b 5f 28             	mov    0x28(%rdi),%ebx
    41f7:	48 8b 78 10          	mov    0x10(%rax),%rdi
    41fb:	31 f6                	xor    %esi,%esi
    41fd:	41 39 d0             	cmp    %edx,%r8d
    4200:	45 8d 24 11          	lea    (%r9,%rdx,1),%r12d
    4204:	78 46                	js     424c <rgb_gray_convert+0x77>
    4206:	49 8b 2b             	mov    (%r11),%rbp
    4209:	49 8b 0c d2          	mov    (%r10,%rdx,8),%rcx
    420d:	4e 8b 64 e5 00       	mov    0x0(%rbp,%r12,8),%r12
    4212:	39 f3                	cmp    %esi,%ebx
    4214:	76 31                	jbe    4247 <rgb_gray_convert+0x72>
    4216:	0f b6 01             	movzbl (%rcx),%eax
    4219:	44 0f b6 69 01       	movzbl 0x1(%rcx),%r13d
    421e:	0f b6 69 02          	movzbl 0x2(%rcx),%ebp
    4222:	48 8b 04 c7          	mov    (%rdi,%rax,8),%rax
    4226:	4a 03 84 ef 00 08 00 	add    0x800(%rdi,%r13,8),%rax
    422d:	00 
    422e:	48 83 c1 03          	add    $0x3,%rcx
    4232:	48 03 84 ef 00 10 00 	add    0x1000(%rdi,%rbp,8),%rax
    4239:	00 
    423a:	48 c1 f8 10          	sar    $0x10,%rax
    423e:	41 88 04 34          	mov    %al,(%r12,%rsi,1)
    4242:	48 ff c6             	inc    %rsi
    4245:	eb cb                	jmp    4212 <rgb_gray_convert+0x3d>
    4247:	48 ff c2             	inc    %rdx
    424a:	eb af                	jmp    41fb <rgb_gray_convert+0x26>
    424c:	5b                   	pop    %rbx
    424d:	5d                   	pop    %rbp
    424e:	41 5c                	pop    %r12
    4250:	41 5d                	pop    %r13
    4252:	c3                   	ret    

0000000000004253 <cmyk_ycck_convert>:
    4253:	f3 0f 1e fa          	endbr64 
    4257:	41 57                	push   %r15
    4259:	49 89 d1             	mov    %rdx,%r9
    425c:	45 31 d2             	xor    %r10d,%r10d
    425f:	41 56                	push   %r14
    4261:	41 55                	push   %r13
    4263:	41 54                	push   %r12
    4265:	55                   	push   %rbp
    4266:	53                   	push   %rbx
    4267:	8b 5f 28             	mov    0x28(%rdi),%ebx
    426a:	48 89 f5             	mov    %rsi,%rbp
    426d:	48 8b 87 d0 01 00 00 	mov    0x1d0(%rdi),%rax
    4274:	89 4c 24 fc          	mov    %ecx,-0x4(%rsp)
    4278:	48 8b 50 10          	mov    0x10(%rax),%rdx
    427c:	89 5c 24 f8          	mov    %ebx,-0x8(%rsp)
    4280:	8b 4c 24 fc          	mov    -0x4(%rsp),%ecx
    4284:	41 8d 70 ff          	lea    -0x1(%r8),%esi
    4288:	31 c0                	xor    %eax,%eax
    428a:	44 39 d6             	cmp    %r10d,%esi
    428d:	42 8d 0c 11          	lea    (%rcx,%r10,1),%ecx
    4291:	0f 88 d5 00 00 00    	js     436c <cmyk_ycck_convert+0x119>
    4297:	49 8b 39             	mov    (%r9),%rdi
    429a:	4d 8b 69 08          	mov    0x8(%r9),%r13
    429e:	4d 8b 59 10          	mov    0x10(%r9),%r11
    42a2:	4d 8b 79 18          	mov    0x18(%r9),%r15
    42a6:	4a 8b 5c d5 00       	mov    0x0(%rbp,%r10,8),%rbx
    42ab:	4c 8b 24 cf          	mov    (%rdi,%rcx,8),%r12
    42af:	4d 8b 6c cd 00       	mov    0x0(%r13,%rcx,8),%r13
    42b4:	4d 8b 34 cb          	mov    (%r11,%rcx,8),%r14
    42b8:	4d 8b 3c cf          	mov    (%r15,%rcx,8),%r15
    42bc:	41 bb ff 00 00 00    	mov    $0xff,%r11d
    42c2:	39 44 24 f8          	cmp    %eax,-0x8(%rsp)
    42c6:	0f 86 98 00 00 00    	jbe    4364 <cmyk_ycck_convert+0x111>
    42cc:	0f b6 0c 83          	movzbl (%rbx,%rax,4),%ecx
    42d0:	0f b6 7c 83 01       	movzbl 0x1(%rbx,%rax,4),%edi
    42d5:	0f b6 74 83 02       	movzbl 0x2(%rbx,%rax,4),%esi
    42da:	41 29 cb             	sub    %ecx,%r11d
    42dd:	b9 ff 01 00 00       	mov    $0x1ff,%ecx
    42e2:	4d 63 db             	movslq %r11d,%r11
    42e5:	29 f9                	sub    %edi,%ecx
    42e7:	bf ff 02 00 00       	mov    $0x2ff,%edi
    42ec:	48 63 c9             	movslq %ecx,%rcx
    42ef:	29 f7                	sub    %esi,%edi
    42f1:	40 8a 74 83 03       	mov    0x3(%rbx,%rax,4),%sil
    42f6:	48 63 ff             	movslq %edi,%rdi
    42f9:	41 88 34 07          	mov    %sil,(%r15,%rax,1)
    42fd:	48 8b 34 ca          	mov    (%rdx,%rcx,8),%rsi
    4301:	4a 03 34 da          	add    (%rdx,%r11,8),%rsi
    4305:	48 03 34 fa          	add    (%rdx,%rdi,8),%rsi
    4309:	48 c1 e1 03          	shl    $0x3,%rcx
    430d:	48 c1 fe 10          	sar    $0x10,%rsi
    4311:	41 88 34 04          	mov    %sil,(%r12,%rax,1)
    4315:	48 8b b4 0a 00 18 00 	mov    0x1800(%rdx,%rcx,1),%rsi
    431c:	00 
    431d:	4a 03 b4 da 00 18 00 	add    0x1800(%rdx,%r11,8),%rsi
    4324:	00 
    4325:	48 03 b4 fa 00 18 00 	add    0x1800(%rdx,%rdi,8),%rsi
    432c:	00 
    432d:	48 c1 fe 10          	sar    $0x10,%rsi
    4331:	41 88 74 05 00       	mov    %sil,0x0(%r13,%rax,1)
    4336:	48 8b 8c 0a 00 28 00 	mov    0x2800(%rdx,%rcx,1),%rcx
    433d:	00 
    433e:	4a 03 8c da 00 28 00 	add    0x2800(%rdx,%r11,8),%rcx
    4345:	00 
    4346:	41 bb ff 00 00 00    	mov    $0xff,%r11d
    434c:	48 03 8c fa 00 28 00 	add    0x2800(%rdx,%rdi,8),%rcx
    4353:	00 
    4354:	48 c1 f9 10          	sar    $0x10,%rcx
    4358:	41 88 0c 06          	mov    %cl,(%r14,%rax,1)
    435c:	48 ff c0             	inc    %rax
    435f:	e9 5e ff ff ff       	jmp    42c2 <cmyk_ycck_convert+0x6f>
    4364:	49 ff c2             	inc    %r10
    4367:	e9 14 ff ff ff       	jmp    4280 <cmyk_ycck_convert+0x2d>
    436c:	5b                   	pop    %rbx
    436d:	5d                   	pop    %rbp
    436e:	41 5c                	pop    %r12
    4370:	41 5d                	pop    %r13
    4372:	41 5e                	pop    %r14
    4374:	41 5f                	pop    %r15
    4376:	c3                   	ret    

0000000000004377 <grayscale_convert>:
    4377:	f3 0f 1e fa          	endbr64 
    437b:	41 56                	push   %r14
    437d:	49 89 f1             	mov    %rsi,%r9
    4380:	49 89 d2             	mov    %rdx,%r10
    4383:	89 ce                	mov    %ecx,%esi
    4385:	53                   	push   %rbx
    4386:	44 8b 5f 28          	mov    0x28(%rdi),%r11d
    438a:	41 ff c8             	dec    %r8d
    438d:	31 c0                	xor    %eax,%eax
    438f:	48 63 5f 30          	movslq 0x30(%rdi),%rbx
    4393:	31 d2                	xor    %edx,%edx
    4395:	41 39 c0             	cmp    %eax,%r8d
    4398:	8d 0c 06             	lea    (%rsi,%rax,1),%ecx
    439b:	78 24                	js     43c1 <grayscale_convert+0x4a>
    439d:	4d 8b 32             	mov    (%r10),%r14
    43a0:	49 8b 3c c1          	mov    (%r9,%rax,8),%rdi
    43a4:	49 8b 0c ce          	mov    (%r14,%rcx,8),%rcx
    43a8:	41 39 d3             	cmp    %edx,%r11d
    43ab:	76 0f                	jbe    43bc <grayscale_convert+0x45>
    43ad:	44 8a 37             	mov    (%rdi),%r14b
    43b0:	48 01 df             	add    %rbx,%rdi
    43b3:	44 88 34 11          	mov    %r14b,(%rcx,%rdx,1)
    43b7:	48 ff c2             	inc    %rdx
    43ba:	eb ec                	jmp    43a8 <grayscale_convert+0x31>
    43bc:	48 ff c0             	inc    %rax
    43bf:	eb d2                	jmp    4393 <grayscale_convert+0x1c>
    43c1:	5b                   	pop    %rbx
    43c2:	41 5e                	pop    %r14
    43c4:	c3                   	ret    

00000000000043c5 <null_convert>:
    43c5:	f3 0f 1e fa          	endbr64 
    43c9:	41 56                	push   %r14
    43cb:	49 89 f1             	mov    %rsi,%r9
    43ce:	49 89 d2             	mov    %rdx,%r10
    43d1:	41 89 cb             	mov    %ecx,%r11d
    43d4:	41 55                	push   %r13
    43d6:	41 ff c8             	dec    %r8d
    43d9:	31 c9                	xor    %ecx,%ecx
    43db:	41 54                	push   %r12
    43dd:	55                   	push   %rbp
    43de:	53                   	push   %rbx
    43df:	4c 63 67 44          	movslq 0x44(%rdi),%r12
    43e3:	8b 6f 28             	mov    0x28(%rdi),%ebp
    43e6:	4c 89 e3             	mov    %r12,%rbx
    43e9:	31 d2                	xor    %edx,%edx
    43eb:	41 39 c8             	cmp    %ecx,%r8d
    43ee:	41 8d 04 0b          	lea    (%r11,%rcx,1),%eax
    43f2:	78 38                	js     442c <null_convert+0x67>
    43f4:	48 c1 e0 03          	shl    $0x3,%rax
    43f8:	31 f6                	xor    %esi,%esi
    43fa:	39 d3                	cmp    %edx,%ebx
    43fc:	7e 29                	jle    4427 <null_convert+0x62>
    43fe:	4d 8b 2c d2          	mov    (%r10,%rdx,8),%r13
    4402:	49 8b 3c c9          	mov    (%r9,%rcx,8),%rdi
    4406:	4d 8b 6c 05 00       	mov    0x0(%r13,%rax,1),%r13
    440b:	48 01 d7             	add    %rdx,%rdi
    440e:	39 f5                	cmp    %esi,%ebp
    4410:	76 10                	jbe    4422 <null_convert+0x5d>
    4412:	44 8a 37             	mov    (%rdi),%r14b
    4415:	4c 01 e7             	add    %r12,%rdi
    4418:	45 88 74 35 00       	mov    %r14b,0x0(%r13,%rsi,1)
    441d:	48 ff c6             	inc    %rsi
    4420:	eb ec                	jmp    440e <null_convert+0x49>
    4422:	48 ff c2             	inc    %rdx
    4425:	eb d1                	jmp    43f8 <null_convert+0x33>
    4427:	48 ff c1             	inc    %rcx
    442a:	eb bd                	jmp    43e9 <null_convert+0x24>
    442c:	5b                   	pop    %rbx
    442d:	5d                   	pop    %rbp
    442e:	41 5c                	pop    %r12
    4430:	41 5d                	pop    %r13
    4432:	41 5e                	pop    %r14
    4434:	c3                   	ret    

0000000000004435 <null_method>:
    4435:	f3 0f 1e fa          	endbr64 
    4439:	c3                   	ret    

000000000000443a <__bswap_16>:
    443a:	f3 0f 1e fa          	endbr64 
    443e:	89 f8                	mov    %edi,%eax
    4440:	86 e0                	xchg   %ah,%al
    4442:	c3                   	ret    

0000000000004443 <__bswap_32>:
    4443:	f3 0f 1e fa          	endbr64 
    4447:	89 f8                	mov    %edi,%eax
    4449:	0f c8                	bswap  %eax
    444b:	c3                   	ret    

000000000000444c <__bswap_64>:
    444c:	f3 0f 1e fa          	endbr64 
    4450:	48 89 f8             	mov    %rdi,%rax
    4453:	48 0f c8             	bswap  %rax
    4456:	c3                   	ret    

0000000000004457 <__uint16_identity>:
    4457:	f3 0f 1e fa          	endbr64 
    445b:	89 f8                	mov    %edi,%eax
    445d:	c3                   	ret    

000000000000445e <__uint32_identity>:
    445e:	f3 0f 1e fa          	endbr64 
    4462:	89 f8                	mov    %edi,%eax
    4464:	c3                   	ret    

0000000000004465 <__uint64_identity>:
    4465:	f3 0f 1e fa          	endbr64 
    4469:	48 89 f8             	mov    %rdi,%rax
    446c:	c3                   	ret    

000000000000446d <jinit_color_converter>:
    446d:	f3 0f 1e fa          	endbr64 
    4471:	55                   	push   %rbp
    4472:	48 89 fd             	mov    %rdi,%rbp
    4475:	ba 18 00 00 00       	mov    $0x18,%edx
    447a:	be 01 00 00 00       	mov    $0x1,%esi
    447f:	53                   	push   %rbx
    4480:	51                   	push   %rcx
    4481:	48 8b 47 08          	mov    0x8(%rdi),%rax
    4485:	ff 10                	call   *(%rax)
    4487:	8b 55 34             	mov    0x34(%rbp),%edx
    448a:	48 8d 0d a4 ff ff ff 	lea    -0x5c(%rip),%rcx        # 4435 <null_method>
    4491:	48 89 c3             	mov    %rax,%rbx
    4494:	48 89 85 d0 01 00 00 	mov    %rax,0x1d0(%rbp)
    449b:	83 fa 03             	cmp    $0x3,%edx
    449e:	48 89 08             	mov    %rcx,(%rax)
    44a1:	77 0d                	ja     44b0 <jinit_color_converter+0x43>
    44a3:	83 fa 01             	cmp    $0x1,%edx
    44a6:	77 16                	ja     44be <jinit_color_converter+0x51>
    44a8:	75 1c                	jne    44c6 <jinit_color_converter+0x59>
    44aa:	83 7d 30 01          	cmpl   $0x1,0x30(%rbp)
    44ae:	eb 12                	jmp    44c2 <jinit_color_converter+0x55>
    44b0:	83 ea 04             	sub    $0x4,%edx
    44b3:	83 fa 01             	cmp    $0x1,%edx
    44b6:	77 0e                	ja     44c6 <jinit_color_converter+0x59>
    44b8:	83 7d 30 04          	cmpl   $0x4,0x30(%rbp)
    44bc:	eb 04                	jmp    44c2 <jinit_color_converter+0x55>
    44be:	83 7d 30 03          	cmpl   $0x3,0x30(%rbp)
    44c2:	75 08                	jne    44cc <jinit_color_converter+0x5f>
    44c4:	eb 16                	jmp    44dc <jinit_color_converter+0x6f>
    44c6:	83 7d 30 00          	cmpl   $0x0,0x30(%rbp)
    44ca:	7f 10                	jg     44dc <jinit_color_converter+0x6f>
    44cc:	48 8b 75 00          	mov    0x0(%rbp),%rsi
    44d0:	48 89 ef             	mov    %rbp,%rdi
    44d3:	c7 46 28 07 00 00 00 	movl   $0x7,0x28(%rsi)
    44da:	ff 16                	call   *(%rsi)
    44dc:	8b 7d 48             	mov    0x48(%rbp),%edi
    44df:	4c 8d 05 42 76 01 00 	lea    0x17642(%rip),%r8        # 1bb28 <_IO_stdin_used+0xb28>
    44e6:	44 8d 4f ff          	lea    -0x1(%rdi),%r9d
    44ea:	41 83 f9 04          	cmp    $0x4,%r9d
    44ee:	0f 87 20 01 00 00    	ja     4614 <jinit_color_converter+0x1a7>
    44f4:	4f 63 1c 88          	movslq (%r8,%r9,4),%r11
    44f8:	4d 01 c3             	add    %r8,%r11
    44fb:	3e 41 ff e3          	notrack jmp *%r11
    44ff:	83 7d 44 01          	cmpl   $0x1,0x44(%rbp)
    4503:	48 89 ef             	mov    %rbp,%rdi
    4506:	74 0f                	je     4517 <jinit_color_converter+0xaa>
    4508:	4c 8b 45 00          	mov    0x0(%rbp),%r8
    450c:	41 c7 40 28 08 00 00 	movl   $0x8,0x28(%r8)
    4513:	00 
    4514:	41 ff 10             	call   *(%r8)
    4517:	8b 7d 34             	mov    0x34(%rbp),%edi
    451a:	83 ff 01             	cmp    $0x1,%edi
    451d:	74 24                	je     4543 <jinit_color_converter+0xd6>
    451f:	83 ff 02             	cmp    $0x2,%edi
    4522:	75 16                	jne    453a <jinit_color_converter+0xcd>
    4524:	4c 8d 0d 02 fb ff ff 	lea    -0x4fe(%rip),%r9        # 402d <rgb_ycc_start>
    452b:	48 8d 2d a3 fc ff ff 	lea    -0x35d(%rip),%rbp        # 41d5 <rgb_gray_convert>
    4532:	4c 89 0b             	mov    %r9,(%rbx)
    4535:	e9 fe 00 00 00       	jmp    4638 <jinit_color_converter+0x1cb>
    453a:	83 ff 03             	cmp    $0x3,%edi
    453d:	0f 85 bb 00 00 00    	jne    45fe <jinit_color_converter+0x191>
    4543:	48 8d 2d 2d fe ff ff 	lea    -0x1d3(%rip),%rbp        # 4377 <grayscale_convert>
    454a:	e9 e9 00 00 00       	jmp    4638 <jinit_color_converter+0x1cb>
    454f:	83 7d 44 03          	cmpl   $0x3,0x44(%rbp)
    4553:	48 89 ef             	mov    %rbp,%rdi
    4556:	74 0d                	je     4565 <jinit_color_converter+0xf8>
    4558:	48 8b 75 00          	mov    0x0(%rbp),%rsi
    455c:	c7 46 28 08 00 00 00 	movl   $0x8,0x28(%rsi)
    4563:	ff 16                	call   *(%rsi)
    4565:	83 7d 34 02          	cmpl   $0x2,0x34(%rbp)
    4569:	e9 8e 00 00 00       	jmp    45fc <jinit_color_converter+0x18f>
    456e:	83 7d 44 03          	cmpl   $0x3,0x44(%rbp)
    4572:	48 89 ef             	mov    %rbp,%rdi
    4575:	74 0d                	je     4584 <jinit_color_converter+0x117>
    4577:	48 8b 55 00          	mov    0x0(%rbp),%rdx
    457b:	c7 42 28 08 00 00 00 	movl   $0x8,0x28(%rdx)
    4582:	ff 12                	call   *(%rdx)
    4584:	8b 4d 34             	mov    0x34(%rbp),%ecx
    4587:	83 f9 02             	cmp    $0x2,%ecx
    458a:	75 16                	jne    45a2 <jinit_color_converter+0x135>
    458c:	48 8d 2d 9a fa ff ff 	lea    -0x566(%rip),%rbp        # 402d <rgb_ycc_start>
    4593:	48 89 2b             	mov    %rbp,(%rbx)
    4596:	48 8d 2d 49 fb ff ff 	lea    -0x4b7(%rip),%rbp        # 40e6 <rgb_ycc_convert>
    459d:	e9 96 00 00 00       	jmp    4638 <jinit_color_converter+0x1cb>
    45a2:	83 f9 03             	cmp    $0x3,%ecx
    45a5:	eb 55                	jmp    45fc <jinit_color_converter+0x18f>
    45a7:	83 7d 44 04          	cmpl   $0x4,0x44(%rbp)
    45ab:	48 89 ef             	mov    %rbp,%rdi
    45ae:	74 0d                	je     45bd <jinit_color_converter+0x150>
    45b0:	48 8b 45 00          	mov    0x0(%rbp),%rax
    45b4:	c7 40 28 08 00 00 00 	movl   $0x8,0x28(%rax)
    45bb:	ff 10                	call   *(%rax)
    45bd:	83 7d 34 04          	cmpl   $0x4,0x34(%rbp)
    45c1:	eb 39                	jmp    45fc <jinit_color_converter+0x18f>
    45c3:	83 7d 44 04          	cmpl   $0x4,0x44(%rbp)
    45c7:	48 89 ef             	mov    %rbp,%rdi
    45ca:	74 0f                	je     45db <jinit_color_converter+0x16e>
    45cc:	4c 8b 55 00          	mov    0x0(%rbp),%r10
    45d0:	41 c7 42 28 08 00 00 	movl   $0x8,0x28(%r10)
    45d7:	00 
    45d8:	41 ff 12             	call   *(%r10)
    45db:	44 8b 5d 34          	mov    0x34(%rbp),%r11d
    45df:	41 83 fb 04          	cmp    $0x4,%r11d
    45e3:	75 13                	jne    45f8 <jinit_color_converter+0x18b>
    45e5:	48 8d 15 41 fa ff ff 	lea    -0x5bf(%rip),%rdx        # 402d <rgb_ycc_start>
    45ec:	48 8d 2d 60 fc ff ff 	lea    -0x3a0(%rip),%rbp        # 4253 <cmyk_ycck_convert>
    45f3:	48 89 13             	mov    %rdx,(%rbx)
    45f6:	eb 40                	jmp    4638 <jinit_color_converter+0x1cb>
    45f8:	41 83 fb 05          	cmp    $0x5,%r11d
    45fc:	74 33                	je     4631 <jinit_color_converter+0x1c4>
    45fe:	48 8b 5d 00          	mov    0x0(%rbp),%rbx
    4602:	48 89 ef             	mov    %rbp,%rdi
    4605:	c7 43 28 19 00 00 00 	movl   $0x19,0x28(%rbx)
    460c:	48 8b 03             	mov    (%rbx),%rax
    460f:	5a                   	pop    %rdx
    4610:	5b                   	pop    %rbx
    4611:	5d                   	pop    %rbp
    4612:	ff e0                	jmp    *%rax
    4614:	3b 7d 34             	cmp    0x34(%rbp),%edi
    4617:	75 08                	jne    4621 <jinit_color_converter+0x1b4>
    4619:	8b 4d 30             	mov    0x30(%rbp),%ecx
    461c:	39 4d 44             	cmp    %ecx,0x44(%rbp)
    461f:	74 10                	je     4631 <jinit_color_converter+0x1c4>
    4621:	48 8b 75 00          	mov    0x0(%rbp),%rsi
    4625:	48 89 ef             	mov    %rbp,%rdi
    4628:	c7 46 28 19 00 00 00 	movl   $0x19,0x28(%rsi)
    462f:	ff 16                	call   *(%rsi)
    4631:	48 8d 2d 8d fd ff ff 	lea    -0x273(%rip),%rbp        # 43c5 <null_convert>
    4638:	48 89 6b 08          	mov    %rbp,0x8(%rbx)
    463c:	58                   	pop    %rax
    463d:	5b                   	pop    %rbx
    463e:	5d                   	pop    %rbp
    463f:	c3                   	ret    

0000000000004640 <start_pass_fdctmgr>:
    4640:	f3 0f 1e fa          	endbr64 
    4644:	41 57                	push   %r15
    4646:	41 56                	push   %r14
    4648:	41 55                	push   %r13
    464a:	41 54                	push   %r12
    464c:	4c 8d 2d ed 74 01 00 	lea    0x174ed(%rip),%r13        # 1bb40 <aanscalefactor.0>
    4653:	55                   	push   %rbp
    4654:	53                   	push   %rbx
    4655:	48 89 fb             	mov    %rdi,%rbx
    4658:	31 ed                	xor    %ebp,%ebp
    465a:	48 83 ec 58          	sub    $0x58,%rsp
    465e:	48 8b 47 50          	mov    0x50(%rdi),%rax
    4662:	4c 8b b7 e0 01 00 00 	mov    0x1e0(%rdi),%r14
    4669:	48 89 04 24          	mov    %rax,(%rsp)
    466d:	39 6b 44             	cmp    %ebp,0x44(%rbx)
    4670:	0f 8e 1b 02 00 00    	jle    4891 <start_pass_fdctmgr+0x251>
    4676:	48 6b d5 60          	imul   $0x60,%rbp,%rdx
    467a:	48 8b 0c 24          	mov    (%rsp),%rcx
    467e:	4c 63 7c 11 10       	movslq 0x10(%rcx,%rdx,1),%r15
    4683:	41 83 ff 03          	cmp    $0x3,%r15d
    4687:	4c 89 fe             	mov    %r15,%rsi
    468a:	77 08                	ja     4694 <start_pass_fdctmgr+0x54>
    468c:	4a 83 7c fb 58 00    	cmpq   $0x0,0x58(%rbx,%r15,8)
    4692:	75 15                	jne    46a9 <start_pass_fdctmgr+0x69>
    4694:	4c 8b 03             	mov    (%rbx),%r8
    4697:	48 89 df             	mov    %rbx,%rdi
    469a:	41 c7 40 28 33 00 00 	movl   $0x33,0x28(%r8)
    46a1:	00 
    46a2:	41 89 70 2c          	mov    %esi,0x2c(%r8)
    46a6:	41 ff 10             	call   *(%r8)
    46a9:	8b bb 0c 01 00 00    	mov    0x10c(%rbx),%edi
    46af:	4e 8b 64 fb 58       	mov    0x58(%rbx,%r15,8),%r12
    46b4:	83 ff 01             	cmp    $0x1,%edi
    46b7:	74 61                	je     471a <start_pass_fdctmgr+0xda>
    46b9:	83 ff 02             	cmp    $0x2,%edi
    46bc:	0f 84 ca 00 00 00    	je     478c <start_pass_fdctmgr+0x14c>
    46c2:	85 ff                	test   %edi,%edi
    46c4:	0f 85 ac 01 00 00    	jne    4876 <start_pass_fdctmgr+0x236>
    46ca:	4b 83 7c fe 18 00    	cmpq   $0x0,0x18(%r14,%r15,8)
    46d0:	49 8d 77 02          	lea    0x2(%r15),%rsi
    46d4:	75 22                	jne    46f8 <start_pass_fdctmgr+0xb8>
    46d6:	48 8b 43 08          	mov    0x8(%rbx),%rax
    46da:	ba 00 01 00 00       	mov    $0x100,%edx
    46df:	48 89 df             	mov    %rbx,%rdi
    46e2:	48 89 74 24 08       	mov    %rsi,0x8(%rsp)
    46e7:	be 01 00 00 00       	mov    $0x1,%esi
    46ec:	ff 10                	call   *(%rax)
    46ee:	4c 8b 44 24 08       	mov    0x8(%rsp),%r8
    46f3:	4b 89 44 c6 08       	mov    %rax,0x8(%r14,%r8,8)
    46f8:	4f 8b 7c fe 18       	mov    0x18(%r14,%r15,8),%r15
    46fd:	31 ff                	xor    %edi,%edi
    46ff:	45 0f b7 0c 7c       	movzwl (%r12,%rdi,2),%r9d
    4704:	41 c1 e1 03          	shl    $0x3,%r9d
    4708:	45 89 0c bf          	mov    %r9d,(%r15,%rdi,4)
    470c:	48 ff c7             	inc    %rdi
    470f:	48 83 ff 40          	cmp    $0x40,%rdi
    4713:	75 ea                	jne    46ff <start_pass_fdctmgr+0xbf>
    4715:	e9 6f 01 00 00       	jmp    4889 <start_pass_fdctmgr+0x249>
    471a:	4b 83 7c fe 18 00    	cmpq   $0x0,0x18(%r14,%r15,8)
    4720:	4d 8d 4f 02          	lea    0x2(%r15),%r9
    4724:	75 22                	jne    4748 <start_pass_fdctmgr+0x108>
    4726:	48 8b 43 08          	mov    0x8(%rbx),%rax
    472a:	ba 00 01 00 00       	mov    $0x100,%edx
    472f:	be 01 00 00 00       	mov    $0x1,%esi
    4734:	48 89 df             	mov    %rbx,%rdi
    4737:	4c 89 4c 24 08       	mov    %r9,0x8(%rsp)
    473c:	ff 10                	call   *(%rax)
    473e:	4c 8b 54 24 08       	mov    0x8(%rsp),%r10
    4743:	4b 89 44 d6 08       	mov    %rax,0x8(%r14,%r10,8)
    4748:	4f 8b 5c fe 18       	mov    0x18(%r14,%r15,8),%r11
    474d:	31 d2                	xor    %edx,%edx
    474f:	4c 8d 3d 2a 74 01 00 	lea    0x1742a(%rip),%r15        # 1bb80 <aanscales.1>
    4756:	41 0f b7 0c 14       	movzwl (%r12,%rdx,1),%ecx
    475b:	49 0f bf 34 17       	movswq (%r15,%rdx,1),%rsi
    4760:	4c 8d 3d 19 74 01 00 	lea    0x17419(%rip),%r15        # 1bb80 <aanscales.1>
    4767:	48 0f af ce          	imul   %rsi,%rcx
    476b:	48 81 c1 00 04 00 00 	add    $0x400,%rcx
    4772:	48 c1 f9 0b          	sar    $0xb,%rcx
    4776:	41 89 0c 53          	mov    %ecx,(%r11,%rdx,2)
    477a:	48 83 c2 02          	add    $0x2,%rdx
    477e:	48 81 fa 80 00 00 00 	cmp    $0x80,%rdx
    4785:	75 cf                	jne    4756 <start_pass_fdctmgr+0x116>
    4787:	e9 fd 00 00 00       	jmp    4889 <start_pass_fdctmgr+0x249>
    478c:	4b 83 7c fe 40 00    	cmpq   $0x0,0x40(%r14,%r15,8)
    4792:	4d 8d 47 08          	lea    0x8(%r15),%r8
    4796:	75 21                	jne    47b9 <start_pass_fdctmgr+0x179>
    4798:	48 8b 43 08          	mov    0x8(%rbx),%rax
    479c:	ba 00 01 00 00       	mov    $0x100,%edx
    47a1:	be 01 00 00 00       	mov    $0x1,%esi
    47a6:	48 89 df             	mov    %rbx,%rdi
    47a9:	4c 89 44 24 08       	mov    %r8,0x8(%rsp)
    47ae:	ff 10                	call   *(%rax)
    47b0:	48 8b 7c 24 08       	mov    0x8(%rsp),%rdi
    47b5:	49 89 04 fe          	mov    %rax,(%r14,%rdi,8)
    47b9:	45 31 d2             	xor    %r10d,%r10d
    47bc:	4f 8b 4c fe 40       	mov    0x40(%r14,%r15,8),%r9
    47c1:	f2 0f 10 0d 37 74 01 	movsd  0x17437(%rip),%xmm1        # 1bc00 <aanscales.1+0x80>
    47c8:	00 
    47c9:	f2 43 0f 10 44 15 00 	movsd  0x0(%r13,%r10,1),%xmm0
    47d0:	4c 8d 1d 69 73 01 00 	lea    0x17369(%rip),%r11        # 1bb40 <aanscalefactor.0>
    47d7:	49 8d 52 08          	lea    0x8(%r10),%rdx
    47db:	0f 28 f1             	movaps %xmm1,%xmm6
    47de:	f2 0f 11 44 24 28    	movsd  %xmm0,0x28(%rsp)
    47e4:	43 0f b7 0c 54       	movzwl (%r12,%r10,2),%ecx
    47e9:	f2 41 0f 10 13       	movsd  (%r11),%xmm2
    47ee:	49 83 c3 08          	add    $0x8,%r11
    47f2:	f2 0f 2a d9          	cvtsi2sd %ecx,%xmm3
    47f6:	f2 0f 11 54 24 38    	movsd  %xmm2,0x38(%rsp)
    47fc:	f2 0f 11 5c 24 20    	movsd  %xmm3,0x20(%rsp)
    4802:	f2 0f 10 64 24 20    	movsd  0x20(%rsp),%xmm4
    4808:	f2 0f 59 64 24 28    	mulsd  0x28(%rsp),%xmm4
    480e:	f2 0f 11 64 24 30    	movsd  %xmm4,0x30(%rsp)
    4814:	f2 0f 10 6c 24 30    	movsd  0x30(%rsp),%xmm5
    481a:	f2 0f 59 6c 24 38    	mulsd  0x38(%rsp),%xmm5
    4820:	f2 0f 11 6c 24 40    	movsd  %xmm5,0x40(%rsp)
    4826:	f2 0f 5e 74 24 40    	divsd  0x40(%rsp),%xmm6
    482c:	f2 0f 11 74 24 48    	movsd  %xmm6,0x48(%rsp)
    4832:	f2 0f 5a 7c 24 48    	cvtsd2ss 0x48(%rsp),%xmm7
    4838:	f3 0f 11 7c 24 1c    	movss  %xmm7,0x1c(%rsp)
    483e:	0f 28 f1             	movaps %xmm1,%xmm6
    4841:	f3 44 0f 10 44 24 1c 	movss  0x1c(%rsp),%xmm8
    4848:	f3 47 0f 11 04 91    	movss  %xmm8,(%r9,%r10,4)
    484e:	49 ff c2             	inc    %r10
    4851:	49 39 d2             	cmp    %rdx,%r10
    4854:	75 8e                	jne    47e4 <start_pass_fdctmgr+0x1a4>
    4856:	49 83 fa 40          	cmp    $0x40,%r10
    485a:	4c 8d 1d df 72 01 00 	lea    0x172df(%rip),%r11        # 1bb40 <aanscalefactor.0>
    4861:	49 8d 52 08          	lea    0x8(%r10),%rdx
    4865:	74 22                	je     4889 <start_pass_fdctmgr+0x249>
    4867:	f2 43 0f 10 44 15 00 	movsd  0x0(%r13,%r10,1),%xmm0
    486e:	0f 28 f1             	movaps %xmm1,%xmm6
    4871:	e9 68 ff ff ff       	jmp    47de <start_pass_fdctmgr+0x19e>
    4876:	4c 8b 23             	mov    (%rbx),%r12
    4879:	48 89 df             	mov    %rbx,%rdi
    487c:	41 c7 44 24 28 2f 00 	movl   $0x2f,0x28(%r12)
    4883:	00 00 
    4885:	41 ff 14 24          	call   *(%r12)
    4889:	48 ff c5             	inc    %rbp
    488c:	e9 dc fd ff ff       	jmp    466d <start_pass_fdctmgr+0x2d>
    4891:	48 83 c4 58          	add    $0x58,%rsp
    4895:	5b                   	pop    %rbx
    4896:	5d                   	pop    %rbp
    4897:	41 5c                	pop    %r12
    4899:	41 5d                	pop    %r13
    489b:	41 5e                	pop    %r14
    489d:	41 5f                	pop    %r15
    489f:	c3                   	ret    

00000000000048a0 <forward_DCT>:
    48a0:	f3 0f 1e fa          	endbr64 
    48a4:	41 57                	push   %r15
    48a6:	45 89 c0             	mov    %r8d,%r8d
    48a9:	41 56                	push   %r14
    48ab:	49 89 ce             	mov    %rcx,%r14
    48ae:	4a 8d 14 c2          	lea    (%rdx,%r8,8),%rdx
    48b2:	41 55                	push   %r13
    48b4:	41 54                	push   %r12
    48b6:	45 31 ed             	xor    %r13d,%r13d
    48b9:	55                   	push   %rbp
    48ba:	53                   	push   %rbx
    48bb:	44 89 cb             	mov    %r9d,%ebx
    48be:	48 81 ec 38 01 00 00 	sub    $0x138,%rsp
    48c5:	8b 8c 24 70 01 00 00 	mov    0x170(%rsp),%ecx
    48cc:	48 8b 87 e0 01 00 00 	mov    0x1e0(%rdi),%rax
    48d3:	64 48 8b 3c 25 28 00 	mov    %fs:0x28,%rdi
    48da:	00 00 
    48dc:	48 89 bc 24 28 01 00 	mov    %rdi,0x128(%rsp)
    48e3:	00 
    48e4:	31 ff                	xor    %edi,%edi
    48e6:	48 63 76 10          	movslq 0x10(%rsi),%rsi
    48ea:	48 8d bc 24 28 01 00 	lea    0x128(%rsp),%rdi
    48f1:	00 
    48f2:	48 c1 e1 07          	shl    $0x7,%rcx
    48f6:	48 89 54 24 10       	mov    %rdx,0x10(%rsp)
    48fb:	48 8b 68 10          	mov    0x10(%rax),%rbp
    48ff:	48 89 4c 24 08       	mov    %rcx,0x8(%rsp)
    4904:	4c 8b 64 f0 18       	mov    0x18(%rax,%rsi,8),%r12
    4909:	48 89 7c 24 18       	mov    %rdi,0x18(%rsp)
    490e:	4c 8b 4c 24 10       	mov    0x10(%rsp),%r9
    4913:	4c 39 6c 24 08       	cmp    %r13,0x8(%rsp)
    4918:	4c 8d 5c 24 28       	lea    0x28(%rsp),%r11
    491d:	41 89 da             	mov    %ebx,%r10d
    4920:	0f 84 d8 00 00 00    	je     49fe <forward_DCT+0x15e>
    4926:	4d 89 df             	mov    %r11,%r15
    4929:	4d 03 11             	add    (%r9),%r10
    492c:	4c 89 d6             	mov    %r10,%rsi
    492f:	49 83 c1 08          	add    $0x8,%r9
    4933:	41 89 da             	mov    %ebx,%r10d
    4936:	0f b6 06             	movzbl (%rsi),%eax
    4939:	83 c0 80             	add    $0xffffff80,%eax
    493c:	41 89 03             	mov    %eax,(%r11)
    493f:	0f b6 4e 01          	movzbl 0x1(%rsi),%ecx
    4943:	83 c1 80             	add    $0xffffff80,%ecx
    4946:	41 89 4b 04          	mov    %ecx,0x4(%r11)
    494a:	44 0f b6 46 02       	movzbl 0x2(%rsi),%r8d
    494f:	41 83 c0 80          	add    $0xffffff80,%r8d
    4953:	45 89 43 08          	mov    %r8d,0x8(%r11)
    4957:	0f b6 56 03          	movzbl 0x3(%rsi),%edx
    495b:	83 c2 80             	add    $0xffffff80,%edx
    495e:	41 89 53 0c          	mov    %edx,0xc(%r11)
    4962:	0f b6 7e 04          	movzbl 0x4(%rsi),%edi
    4966:	83 c7 80             	add    $0xffffff80,%edi
    4969:	41 89 7b 10          	mov    %edi,0x10(%r11)
    496d:	0f b6 46 05          	movzbl 0x5(%rsi),%eax
    4971:	83 c0 80             	add    $0xffffff80,%eax
    4974:	41 89 43 14          	mov    %eax,0x14(%r11)
    4978:	0f b6 4e 06          	movzbl 0x6(%rsi),%ecx
    497c:	83 c1 80             	add    $0xffffff80,%ecx
    497f:	41 89 4b 18          	mov    %ecx,0x18(%r11)
    4983:	0f b6 76 07          	movzbl 0x7(%rsi),%esi
    4987:	49 83 c3 20          	add    $0x20,%r11
    498b:	83 c6 80             	add    $0xffffff80,%esi
    498e:	4c 3b 5c 24 18       	cmp    0x18(%rsp),%r11
    4993:	41 89 73 fc          	mov    %esi,-0x4(%r11)
    4997:	75 90                	jne    4929 <forward_DCT+0x89>
    4999:	4c 89 ff             	mov    %r15,%rdi
    499c:	ff d5                	call   *%rbp
    499e:	4f 8d 14 2e          	lea    (%r14,%r13,1),%r10
    49a2:	45 31 c9             	xor    %r9d,%r9d
    49a5:	31 ff                	xor    %edi,%edi
    49a7:	45 31 db             	xor    %r11d,%r11d
    49aa:	47 8b 04 8c          	mov    (%r12,%r9,4),%r8d
    49ae:	43 8b 14 8f          	mov    (%r15,%r9,4),%edx
    49b2:	44 89 c0             	mov    %r8d,%eax
    49b5:	d1 f8                	sar    %eax
    49b7:	85 d2                	test   %edx,%edx
    49b9:	79 16                	jns    49d1 <forward_DCT+0x131>
    49bb:	29 d0                	sub    %edx,%eax
    49bd:	44 39 c0             	cmp    %r8d,%eax
    49c0:	7c 06                	jl     49c8 <forward_DCT+0x128>
    49c2:	99                   	cltd   
    49c3:	41 f7 f8             	idiv   %r8d
    49c6:	89 c7                	mov    %eax,%edi
    49c8:	f7 df                	neg    %edi
    49ca:	41 89 fb             	mov    %edi,%r11d
    49cd:	31 ff                	xor    %edi,%edi
    49cf:	eb 10                	jmp    49e1 <forward_DCT+0x141>
    49d1:	01 d0                	add    %edx,%eax
    49d3:	31 ff                	xor    %edi,%edi
    49d5:	41 39 c0             	cmp    %eax,%r8d
    49d8:	7f 07                	jg     49e1 <forward_DCT+0x141>
    49da:	99                   	cltd   
    49db:	41 f7 f8             	idiv   %r8d
    49de:	41 89 c3             	mov    %eax,%r11d
    49e1:	66 47 89 1c 4a       	mov    %r11w,(%r10,%r9,2)
    49e6:	49 ff c1             	inc    %r9
    49e9:	45 31 db             	xor    %r11d,%r11d
    49ec:	49 83 f9 40          	cmp    $0x40,%r9
    49f0:	75 b8                	jne    49aa <forward_DCT+0x10a>
    49f2:	83 c3 08             	add    $0x8,%ebx
    49f5:	49 83 ed 80          	sub    $0xffffffffffffff80,%r13
    49f9:	e9 10 ff ff ff       	jmp    490e <forward_DCT+0x6e>
    49fe:	48 8b 84 24 28 01 00 	mov    0x128(%rsp),%rax
    4a05:	00 
    4a06:	64 48 2b 04 25 28 00 	sub    %fs:0x28,%rax
    4a0d:	00 00 
    4a0f:	74 05                	je     4a16 <forward_DCT+0x176>
    4a11:	e8 6a d8 ff ff       	call   2280 <__stack_chk_fail@plt>
    4a16:	48 81 c4 38 01 00 00 	add    $0x138,%rsp
    4a1d:	5b                   	pop    %rbx
    4a1e:	5d                   	pop    %rbp
    4a1f:	41 5c                	pop    %r12
    4a21:	41 5d                	pop    %r13
    4a23:	41 5e                	pop    %r14
    4a25:	41 5f                	pop    %r15
    4a27:	c3                   	ret    

0000000000004a28 <forward_DCT_float>:
    4a28:	f3 0f 1e fa          	endbr64 
    4a2c:	41 57                	push   %r15
    4a2e:	45 89 c0             	mov    %r8d,%r8d
    4a31:	49 89 cf             	mov    %rcx,%r15
    4a34:	41 56                	push   %r14
    4a36:	4a 8d 14 c2          	lea    (%rdx,%r8,8),%rdx
    4a3a:	45 31 f6             	xor    %r14d,%r14d
    4a3d:	41 55                	push   %r13
    4a3f:	41 54                	push   %r12
    4a41:	55                   	push   %rbp
    4a42:	53                   	push   %rbx
    4a43:	44 89 cb             	mov    %r9d,%ebx
    4a46:	48 81 ec 68 01 00 00 	sub    $0x168,%rsp
    4a4d:	48 8b 87 e0 01 00 00 	mov    0x1e0(%rdi),%rax
    4a54:	48 63 4e 10          	movslq 0x10(%rsi),%rcx
    4a58:	64 48 8b 34 25 28 00 	mov    %fs:0x28,%rsi
    4a5f:	00 00 
    4a61:	48 89 b4 24 58 01 00 	mov    %rsi,0x158(%rsp)
    4a68:	00 
    4a69:	31 f6                	xor    %esi,%esi
    4a6b:	48 8d b4 24 58 01 00 	lea    0x158(%rsp),%rsi
    4a72:	00 
    4a73:	8b ac 24 a0 01 00 00 	mov    0x1a0(%rsp),%ebp
    4a7a:	4c 8b 60 38          	mov    0x38(%rax),%r12
    4a7e:	4c 8b 6c c8 40       	mov    0x40(%rax,%rcx,8),%r13
    4a83:	48 89 54 24 08       	mov    %rdx,0x8(%rsp)
    4a88:	48 89 74 24 10       	mov    %rsi,0x10(%rsp)
    4a8d:	48 c1 e5 07          	shl    $0x7,%rbp
    4a91:	4c 8b 4c 24 08       	mov    0x8(%rsp),%r9
    4a96:	4c 39 f5             	cmp    %r14,%rbp
    4a99:	48 8d 44 24 58       	lea    0x58(%rsp),%rax
    4a9e:	41 89 db             	mov    %ebx,%r11d
    4aa1:	0f 84 9c 01 00 00    	je     4c43 <forward_DCT_float+0x21b>
    4aa7:	48 89 c7             	mov    %rax,%rdi
    4aaa:	49 8b 09             	mov    (%r9),%rcx
    4aad:	49 83 c1 08          	add    $0x8,%r9
    4ab1:	4c 01 d9             	add    %r11,%rcx
    4ab4:	44 0f b6 11          	movzbl (%rcx),%r10d
    4ab8:	41 89 db             	mov    %ebx,%r11d
    4abb:	41 83 c2 80          	add    $0xffffff80,%r10d
    4abf:	f3 41 0f 2a c2       	cvtsi2ss %r10d,%xmm0
    4ac4:	f3 0f 11 44 24 28    	movss  %xmm0,0x28(%rsp)
    4aca:	f3 0f 10 4c 24 28    	movss  0x28(%rsp),%xmm1
    4ad0:	f3 0f 11 08          	movss  %xmm1,(%rax)
    4ad4:	44 0f b6 41 01       	movzbl 0x1(%rcx),%r8d
    4ad9:	41 83 c0 80          	add    $0xffffff80,%r8d
    4add:	f3 41 0f 2a d0       	cvtsi2ss %r8d,%xmm2
    4ae2:	f3 0f 11 54 24 2c    	movss  %xmm2,0x2c(%rsp)
    4ae8:	f3 0f 10 5c 24 2c    	movss  0x2c(%rsp),%xmm3
    4aee:	f3 0f 11 58 04       	movss  %xmm3,0x4(%rax)
    4af3:	0f b6 51 02          	movzbl 0x2(%rcx),%edx
    4af7:	83 c2 80             	add    $0xffffff80,%edx
    4afa:	f3 0f 2a e2          	cvtsi2ss %edx,%xmm4
    4afe:	f3 0f 11 64 24 30    	movss  %xmm4,0x30(%rsp)
    4b04:	f3 0f 10 6c 24 30    	movss  0x30(%rsp),%xmm5
    4b0a:	f3 0f 11 68 08       	movss  %xmm5,0x8(%rax)
    4b0f:	0f b6 71 03          	movzbl 0x3(%rcx),%esi
    4b13:	83 c6 80             	add    $0xffffff80,%esi
    4b16:	f3 0f 2a f6          	cvtsi2ss %esi,%xmm6
    4b1a:	f3 0f 11 74 24 34    	movss  %xmm6,0x34(%rsp)
    4b20:	f3 0f 10 7c 24 34    	movss  0x34(%rsp),%xmm7
    4b26:	f3 0f 11 78 0c       	movss  %xmm7,0xc(%rax)
    4b2b:	44 0f b6 51 04       	movzbl 0x4(%rcx),%r10d
    4b30:	41 83 c2 80          	add    $0xffffff80,%r10d
    4b34:	f3 45 0f 2a c2       	cvtsi2ss %r10d,%xmm8
    4b39:	f3 44 0f 11 44 24 38 	movss  %xmm8,0x38(%rsp)
    4b40:	f3 44 0f 10 4c 24 38 	movss  0x38(%rsp),%xmm9
    4b47:	f3 44 0f 11 48 10    	movss  %xmm9,0x10(%rax)
    4b4d:	44 0f b6 41 05       	movzbl 0x5(%rcx),%r8d
    4b52:	41 83 c0 80          	add    $0xffffff80,%r8d
    4b56:	f3 45 0f 2a d0       	cvtsi2ss %r8d,%xmm10
    4b5b:	f3 44 0f 11 54 24 3c 	movss  %xmm10,0x3c(%rsp)
    4b62:	f3 44 0f 10 5c 24 3c 	movss  0x3c(%rsp),%xmm11
    4b69:	f3 44 0f 11 58 14    	movss  %xmm11,0x14(%rax)
    4b6f:	0f b6 51 06          	movzbl 0x6(%rcx),%edx
    4b73:	83 c2 80             	add    $0xffffff80,%edx
    4b76:	f3 44 0f 2a e2       	cvtsi2ss %edx,%xmm12
    4b7b:	f3 44 0f 11 64 24 40 	movss  %xmm12,0x40(%rsp)
    4b82:	f3 44 0f 10 6c 24 40 	movss  0x40(%rsp),%xmm13
    4b89:	f3 44 0f 11 68 18    	movss  %xmm13,0x18(%rax)
    4b8f:	0f b6 49 07          	movzbl 0x7(%rcx),%ecx
    4b93:	48 83 c0 20          	add    $0x20,%rax
    4b97:	83 c1 80             	add    $0xffffff80,%ecx
    4b9a:	f3 44 0f 2a f1       	cvtsi2ss %ecx,%xmm14
    4b9f:	48 3b 44 24 10       	cmp    0x10(%rsp),%rax
    4ba4:	f3 44 0f 11 74 24 44 	movss  %xmm14,0x44(%rsp)
    4bab:	f3 44 0f 10 7c 24 44 	movss  0x44(%rsp),%xmm15
    4bb2:	f3 44 0f 11 78 fc    	movss  %xmm15,-0x4(%rax)
    4bb8:	0f 85 ec fe ff ff    	jne    4aaa <forward_DCT_float+0x82>
    4bbe:	48 89 7c 24 18       	mov    %rdi,0x18(%rsp)
    4bc3:	41 ff d4             	call   *%r12
    4bc6:	f3 0f 10 25 3a 70 01 	movss  0x1703a(%rip),%xmm4        # 1bc08 <aanscales.1+0x88>
    4bcd:	00 
    4bce:	48 8b 7c 24 18       	mov    0x18(%rsp),%rdi
    4bd3:	4f 8d 1c 37          	lea    (%r15,%r14,1),%r11
    4bd7:	45 31 c9             	xor    %r9d,%r9d
    4bda:	0f 28 dc             	movaps %xmm4,%xmm3
    4bdd:	f3 42 0f 10 04 8f    	movss  (%rdi,%r9,4),%xmm0
    4be3:	f3 0f 10 25 1d 70 01 	movss  0x1701d(%rip),%xmm4        # 1bc08 <aanscales.1+0x88>
    4bea:	00 
    4beb:	f3 0f 11 44 24 48    	movss  %xmm0,0x48(%rsp)
    4bf1:	f3 43 0f 10 4c 8d 00 	movss  0x0(%r13,%r9,4),%xmm1
    4bf8:	f3 0f 10 54 24 48    	movss  0x48(%rsp),%xmm2
    4bfe:	f3 0f 11 4c 24 4c    	movss  %xmm1,0x4c(%rsp)
    4c04:	f3 0f 59 54 24 4c    	mulss  0x4c(%rsp),%xmm2
    4c0a:	f3 0f 11 54 24 54    	movss  %xmm2,0x54(%rsp)
    4c10:	f3 0f 58 5c 24 54    	addss  0x54(%rsp),%xmm3
    4c16:	f3 0f 11 5c 24 50    	movss  %xmm3,0x50(%rsp)
    4c1c:	0f 28 dc             	movaps %xmm4,%xmm3
    4c1f:	f3 0f 2c 44 24 50    	cvttss2si 0x50(%rsp),%eax
    4c25:	66 2d 00 40          	sub    $0x4000,%ax
    4c29:	66 43 89 04 4b       	mov    %ax,(%r11,%r9,2)
    4c2e:	49 ff c1             	inc    %r9
    4c31:	49 83 f9 40          	cmp    $0x40,%r9
    4c35:	75 a6                	jne    4bdd <forward_DCT_float+0x1b5>
    4c37:	83 c3 08             	add    $0x8,%ebx
    4c3a:	49 83 ee 80          	sub    $0xffffffffffffff80,%r14
    4c3e:	e9 4e fe ff ff       	jmp    4a91 <forward_DCT_float+0x69>
    4c43:	48 8b 84 24 58 01 00 	mov    0x158(%rsp),%rax
    4c4a:	00 
    4c4b:	64 48 2b 04 25 28 00 	sub    %fs:0x28,%rax
    4c52:	00 00 
    4c54:	74 05                	je     4c5b <forward_DCT_float+0x233>
    4c56:	e8 25 d6 ff ff       	call   2280 <__stack_chk_fail@plt>
    4c5b:	48 81 c4 68 01 00 00 	add    $0x168,%rsp
    4c62:	5b                   	pop    %rbx
    4c63:	5d                   	pop    %rbp
    4c64:	41 5c                	pop    %r12
    4c66:	41 5d                	pop    %r13
    4c68:	41 5e                	pop    %r14
    4c6a:	41 5f                	pop    %r15
    4c6c:	c3                   	ret    

0000000000004c6d <__bswap_16>:
    4c6d:	f3 0f 1e fa          	endbr64 
    4c71:	89 f8                	mov    %edi,%eax
    4c73:	86 e0                	xchg   %ah,%al
    4c75:	c3                   	ret    

0000000000004c76 <__bswap_32>:
    4c76:	f3 0f 1e fa          	endbr64 
    4c7a:	89 f8                	mov    %edi,%eax
    4c7c:	0f c8                	bswap  %eax
    4c7e:	c3                   	ret    

0000000000004c7f <__bswap_64>:
    4c7f:	f3 0f 1e fa          	endbr64 
    4c83:	48 89 f8             	mov    %rdi,%rax
    4c86:	48 0f c8             	bswap  %rax
    4c89:	c3                   	ret    

0000000000004c8a <__uint16_identity>:
    4c8a:	f3 0f 1e fa          	endbr64 
    4c8e:	89 f8                	mov    %edi,%eax
    4c90:	c3                   	ret    

0000000000004c91 <__uint32_identity>:
    4c91:	f3 0f 1e fa          	endbr64 
    4c95:	89 f8                	mov    %edi,%eax
    4c97:	c3                   	ret    

0000000000004c98 <__uint64_identity>:
    4c98:	f3 0f 1e fa          	endbr64 
    4c9c:	48 89 f8             	mov    %rdi,%rax
    4c9f:	c3                   	ret    

0000000000004ca0 <jinit_forward_dct>:
    4ca0:	f3 0f 1e fa          	endbr64 
    4ca4:	53                   	push   %rbx
    4ca5:	ba 60 00 00 00       	mov    $0x60,%edx
    4caa:	be 01 00 00 00       	mov    $0x1,%esi
    4caf:	48 83 ec 10          	sub    $0x10,%rsp
    4cb3:	48 8b 47 08          	mov    0x8(%rdi),%rax
    4cb7:	48 89 7c 24 08       	mov    %rdi,0x8(%rsp)
    4cbc:	ff 10                	call   *(%rax)
    4cbe:	48 8b 7c 24 08       	mov    0x8(%rsp),%rdi
    4cc3:	48 8d 0d 76 f9 ff ff 	lea    -0x68a(%rip),%rcx        # 4640 <start_pass_fdctmgr>
    4cca:	48 89 c3             	mov    %rax,%rbx
    4ccd:	8b 97 0c 01 00 00    	mov    0x10c(%rdi),%edx
    4cd3:	48 89 87 e0 01 00 00 	mov    %rax,0x1e0(%rdi)
    4cda:	48 89 08             	mov    %rcx,(%rax)
    4cdd:	83 fa 01             	cmp    $0x1,%edx
    4ce0:	74 21                	je     4d03 <jinit_forward_dct+0x63>
    4ce2:	83 fa 02             	cmp    $0x2,%edx
    4ce5:	74 34                	je     4d1b <jinit_forward_dct+0x7b>
    4ce7:	85 d2                	test   %edx,%edx
    4ce9:	0f 85 88 00 00 00    	jne    4d77 <jinit_forward_dct+0xd7>
    4cef:	4c 8d 15 aa fb ff ff 	lea    -0x456(%rip),%r10        # 48a0 <forward_DCT>
    4cf6:	48 8d 3d cf e0 00 00 	lea    0xe0cf(%rip),%rdi        # 12dcc <jpeg_fdct_islow>
    4cfd:	4c 89 50 08          	mov    %r10,0x8(%rax)
    4d01:	eb 12                	jmp    4d15 <jinit_forward_dct+0x75>
    4d03:	48 8d 35 96 fb ff ff 	lea    -0x46a(%rip),%rsi        # 48a0 <forward_DCT>
    4d0a:	48 8d 3d 71 de 00 00 	lea    0xde71(%rip),%rdi        # 12b82 <jpeg_fdct_ifast>
    4d11:	48 89 70 08          	mov    %rsi,0x8(%rax)
    4d15:	48 89 7b 10          	mov    %rdi,0x10(%rbx)
    4d19:	eb 16                	jmp    4d31 <jinit_forward_dct+0x91>
    4d1b:	4c 8d 05 35 d6 00 00 	lea    0xd635(%rip),%r8        # 12357 <jpeg_fdct_float>
    4d22:	4c 8d 0d ff fc ff ff 	lea    -0x301(%rip),%r9        # 4a28 <forward_DCT_float>
    4d29:	4c 89 48 08          	mov    %r9,0x8(%rax)
    4d2d:	4c 89 40 38          	mov    %r8,0x38(%rax)
    4d31:	48 c7 43 18 00 00 00 	movq   $0x0,0x18(%rbx)
    4d38:	00 
    4d39:	48 c7 43 40 00 00 00 	movq   $0x0,0x40(%rbx)
    4d40:	00 
    4d41:	48 c7 43 20 00 00 00 	movq   $0x0,0x20(%rbx)
    4d48:	00 
    4d49:	48 c7 43 48 00 00 00 	movq   $0x0,0x48(%rbx)
    4d50:	00 
    4d51:	48 c7 43 28 00 00 00 	movq   $0x0,0x28(%rbx)
    4d58:	00 
    4d59:	48 c7 43 50 00 00 00 	movq   $0x0,0x50(%rbx)
    4d60:	00 
    4d61:	48 c7 43 30 00 00 00 	movq   $0x0,0x30(%rbx)
    4d68:	00 
    4d69:	48 c7 43 58 00 00 00 	movq   $0x0,0x58(%rbx)
    4d70:	00 
    4d71:	48 83 c4 10          	add    $0x10,%rsp
    4d75:	5b                   	pop    %rbx
    4d76:	c3                   	ret    
    4d77:	4c 8b 1f             	mov    (%rdi),%r11
    4d7a:	41 c7 43 28 2f 00 00 	movl   $0x2f,0x28(%r11)
    4d81:	00 
    4d82:	41 ff 13             	call   *(%r11)
    4d85:	eb aa                	jmp    4d31 <jinit_forward_dct+0x91>

0000000000004d87 <dump_buffer>:
    4d87:	55                   	push   %rbp
    4d88:	53                   	push   %rbx
    4d89:	48 89 fb             	mov    %rdi,%rbx
    4d8c:	51                   	push   %rcx
    4d8d:	48 8b 7f 30          	mov    0x30(%rdi),%rdi
    4d91:	48 8b 6f 20          	mov    0x20(%rdi),%rbp
    4d95:	ff 55 18             	call   *0x18(%rbp)
    4d98:	85 c0                	test   %eax,%eax
    4d9a:	74 14                	je     4db0 <dump_buffer+0x29>
    4d9c:	48 8b 4d 00          	mov    0x0(%rbp),%rcx
    4da0:	48 8b 55 08          	mov    0x8(%rbp),%rdx
    4da4:	b8 01 00 00 00       	mov    $0x1,%eax
    4da9:	48 89 0b             	mov    %rcx,(%rbx)
    4dac:	48 89 53 08          	mov    %rdx,0x8(%rbx)
    4db0:	5a                   	pop    %rdx
    4db1:	5b                   	pop    %rbx
    4db2:	5d                   	pop    %rbp
    4db3:	c3                   	ret    

0000000000004db4 <encode_mcu_gather>:
    4db4:	f3 0f 1e fa          	endbr64 
    4db8:	41 57                	push   %r15
    4dba:	49 89 f1             	mov    %rsi,%r9
    4dbd:	49 89 f8             	mov    %rdi,%r8
    4dc0:	41 56                	push   %r14
    4dc2:	41 55                	push   %r13
    4dc4:	41 54                	push   %r12
    4dc6:	55                   	push   %rbp
    4dc7:	53                   	push   %rbx
    4dc8:	8b 97 10 01 00 00    	mov    0x110(%rdi),%edx
    4dce:	48 8b b7 e8 01 00 00 	mov    0x1e8(%rdi),%rsi
    4dd5:	85 d2                	test   %edx,%edx
    4dd7:	74 27                	je     4e00 <encode_mcu_gather+0x4c>
    4dd9:	83 7e 38 00          	cmpl   $0x0,0x38(%rsi)
    4ddd:	75 1e                	jne    4dfd <encode_mcu_gather+0x49>
    4ddf:	48 63 8f 3c 01 00 00 	movslq 0x13c(%rdi),%rcx
    4de6:	31 ff                	xor    %edi,%edi
    4de8:	31 c0                	xor    %eax,%eax
    4dea:	85 c9                	test   %ecx,%ecx
    4dec:	48 0f 48 cf          	cmovs  %rdi,%rcx
    4df0:	48 8d 7e 24          	lea    0x24(%rsi),%rdi
    4df4:	48 c1 e1 02          	shl    $0x2,%rcx
    4df8:	f3 aa                	rep stos %al,%es:(%rdi)
    4dfa:	89 56 38             	mov    %edx,0x38(%rsi)
    4dfd:	ff 4e 38             	decl   0x38(%rsi)
    4e00:	45 8b a0 68 01 00 00 	mov    0x168(%r8),%r12d
    4e07:	4c 8d 2d 6e 89 01 00 	lea    0x1896e(%rip),%r13        # 1d77c <jpeg_natural_order+0xfc>
    4e0e:	45 31 d2             	xor    %r10d,%r10d
    4e11:	45 39 d4             	cmp    %r10d,%r12d
    4e14:	0f 8e e3 00 00 00    	jle    4efd <encode_mcu_gather+0x149>
    4e1a:	4b 63 9c 90 6c 01 00 	movslq 0x16c(%r8,%r10,4),%rbx
    4e21:	00 
    4e22:	4b 8b 2c d1          	mov    (%r9,%r10,8),%rbp
    4e26:	4d 8b b4 d8 40 01 00 	mov    0x140(%r8,%rbx,8),%r14
    4e2d:	00 
    4e2e:	44 0f bf 5d 00       	movswl 0x0(%rbp),%r11d
    4e33:	8b 54 9e 24          	mov    0x24(%rsi,%rbx,4),%edx
    4e37:	4d 63 7e 18          	movslq 0x18(%r14),%r15
    4e3b:	49 63 7e 14          	movslq 0x14(%r14),%rdi
    4e3f:	44 89 d8             	mov    %r11d,%eax
    4e42:	29 d0                	sub    %edx,%eax
    4e44:	4a 8b 8c fe a0 00 00 	mov    0xa0(%rsi,%r15,8),%rcx
    4e4b:	00 
    4e4c:	4c 8b bc fe 80 00 00 	mov    0x80(%rsi,%rdi,8),%r15
    4e53:	00 
    4e54:	79 05                	jns    4e5b <encode_mcu_gather+0xa7>
    4e56:	89 d0                	mov    %edx,%eax
    4e58:	44 29 d8             	sub    %r11d,%eax
    4e5b:	45 31 f6             	xor    %r14d,%r14d
    4e5e:	85 c0                	test   %eax,%eax
    4e60:	74 07                	je     4e69 <encode_mcu_gather+0xb5>
    4e62:	41 ff c6             	inc    %r14d
    4e65:	d1 f8                	sar    %eax
    4e67:	eb f5                	jmp    4e5e <encode_mcu_gather+0xaa>
    4e69:	49 63 d6             	movslq %r14d,%rdx
    4e6c:	48 8d 3d 0d 88 01 00 	lea    0x1880d(%rip),%rdi        # 1d680 <jpeg_natural_order>
    4e73:	41 89 c6             	mov    %eax,%r14d
    4e76:	49 ff 04 d7          	incq   (%r15,%rdx,8)
    4e7a:	4c 63 7f 04          	movslq 0x4(%rdi),%r15
    4e7e:	66 46 8b 7c 7d 00    	mov    0x0(%rbp,%r15,2),%r15w
    4e84:	66 45 85 ff          	test   %r15w,%r15w
    4e88:	75 08                	jne    4e92 <encode_mcu_gather+0xde>
    4e8a:	ff c0                	inc    %eax
    4e8c:	48 83 c7 04          	add    $0x4,%rdi
    4e90:	eb 4f                	jmp    4ee1 <encode_mcu_gather+0x12d>
    4e92:	41 83 fe 0f          	cmp    $0xf,%r14d
    4e96:	7e 0d                	jle    4ea5 <encode_mcu_gather+0xf1>
    4e98:	48 ff 81 80 07 00 00 	incq   0x780(%rcx)
    4e9f:	41 83 ee 10          	sub    $0x10,%r14d
    4ea3:	eb ed                	jmp    4e92 <encode_mcu_gather+0xde>
    4ea5:	89 c2                	mov    %eax,%edx
    4ea7:	41 be 01 00 00 00    	mov    $0x1,%r14d
    4ead:	c1 ea 04             	shr    $0x4,%edx
    4eb0:	6b d2 f0             	imul   $0xfffffff0,%edx,%edx
    4eb3:	01 c2                	add    %eax,%edx
    4eb5:	44 89 f8             	mov    %r15d,%eax
    4eb8:	66 f7 d8             	neg    %ax
    4ebb:	41 0f 48 c7          	cmovs  %r15d,%eax
    4ebf:	0f b7 c0             	movzwl %ax,%eax
    4ec2:	d1 f8                	sar    %eax
    4ec4:	74 05                	je     4ecb <encode_mcu_gather+0x117>
    4ec6:	41 ff c6             	inc    %r14d
    4ec9:	eb f7                	jmp    4ec2 <encode_mcu_gather+0x10e>
    4ecb:	c1 e2 04             	shl    $0x4,%edx
    4ece:	48 83 c7 04          	add    $0x4,%rdi
    4ed2:	44 01 f2             	add    %r14d,%edx
    4ed5:	4c 63 fa             	movslq %edx,%r15
    4ed8:	41 89 c6             	mov    %eax,%r14d
    4edb:	4a ff 04 f9          	incq   (%rcx,%r15,8)
    4edf:	eb 03                	jmp    4ee4 <encode_mcu_gather+0x130>
    4ee1:	41 89 c6             	mov    %eax,%r14d
    4ee4:	4c 39 ef             	cmp    %r13,%rdi
    4ee7:	75 91                	jne    4e7a <encode_mcu_gather+0xc6>
    4ee9:	85 c0                	test   %eax,%eax
    4eeb:	74 03                	je     4ef0 <encode_mcu_gather+0x13c>
    4eed:	48 ff 01             	incq   (%rcx)
    4ef0:	44 89 5c 9e 24       	mov    %r11d,0x24(%rsi,%rbx,4)
    4ef5:	49 ff c2             	inc    %r10
    4ef8:	e9 14 ff ff ff       	jmp    4e11 <encode_mcu_gather+0x5d>
    4efd:	b8 01 00 00 00       	mov    $0x1,%eax
    4f02:	5b                   	pop    %rbx
    4f03:	5d                   	pop    %rbp
    4f04:	41 5c                	pop    %r12
    4f06:	41 5d                	pop    %r13
    4f08:	41 5e                	pop    %r14
    4f0a:	41 5f                	pop    %r15
    4f0c:	c3                   	ret    

0000000000004f0d <__bswap_16>:
    4f0d:	f3 0f 1e fa          	endbr64 
    4f11:	89 f8                	mov    %edi,%eax
    4f13:	86 e0                	xchg   %ah,%al
    4f15:	c3                   	ret    

0000000000004f16 <__bswap_32>:
    4f16:	f3 0f 1e fa          	endbr64 
    4f1a:	89 f8                	mov    %edi,%eax
    4f1c:	0f c8                	bswap  %eax
    4f1e:	c3                   	ret    

0000000000004f1f <__bswap_64>:
    4f1f:	f3 0f 1e fa          	endbr64 
    4f23:	48 89 f8             	mov    %rdi,%rax
    4f26:	48 0f c8             	bswap  %rax
    4f29:	c3                   	ret    

0000000000004f2a <__uint16_identity>:
    4f2a:	f3 0f 1e fa          	endbr64 
    4f2e:	89 f8                	mov    %edi,%eax
    4f30:	c3                   	ret    

0000000000004f31 <__uint32_identity>:
    4f31:	f3 0f 1e fa          	endbr64 
    4f35:	89 f8                	mov    %edi,%eax
    4f37:	c3                   	ret    

0000000000004f38 <__uint64_identity>:
    4f38:	f3 0f 1e fa          	endbr64 
    4f3c:	48 89 f8             	mov    %rdi,%rax
    4f3f:	c3                   	ret    

0000000000004f40 <jpeg_make_c_derived_tbl>:
    4f40:	f3 0f 1e fa          	endbr64 
    4f44:	55                   	push   %rbp
    4f45:	53                   	push   %rbx
    4f46:	48 89 f3             	mov    %rsi,%rbx
    4f49:	48 89 d5             	mov    %rdx,%rbp
    4f4c:	48 81 ec 18 05 00 00 	sub    $0x518,%rsp
    4f53:	64 48 8b 04 25 28 00 	mov    %fs:0x28,%rax
    4f5a:	00 00 
    4f5c:	48 89 84 24 08 05 00 	mov    %rax,0x508(%rsp)
    4f63:	00 
    4f64:	31 c0                	xor    %eax,%eax
    4f66:	48 83 3a 00          	cmpq   $0x0,(%rdx)
    4f6a:	75 14                	jne    4f80 <jpeg_make_c_derived_tbl+0x40>
    4f6c:	48 8b 47 08          	mov    0x8(%rdi),%rax
    4f70:	ba 00 05 00 00       	mov    $0x500,%edx
    4f75:	be 01 00 00 00       	mov    $0x1,%esi
    4f7a:	ff 10                	call   *(%rax)
    4f7c:	48 89 45 00          	mov    %rax,0x0(%rbp)
    4f80:	41 b9 01 00 00 00    	mov    $0x1,%r9d
    4f86:	41 bb 01 00 00 00    	mov    $0x1,%r11d
    4f8c:	31 d2                	xor    %edx,%edx
    4f8e:	4c 8b 45 00          	mov    0x0(%rbp),%r8
    4f92:	44 89 cf             	mov    %r9d,%edi
    4f95:	42 0f b6 0c 1b       	movzbl (%rbx,%r11,1),%ecx
    4f9a:	48 89 d6             	mov    %rdx,%rsi
    4f9d:	29 d7                	sub    %edx,%edi
    4f9f:	eb 02                	jmp    4fa3 <jpeg_make_c_derived_tbl+0x63>
    4fa1:	eb 00                	jmp    4fa3 <jpeg_make_c_derived_tbl+0x63>
    4fa3:	44 8d 14 17          	lea    (%rdi,%rdx,1),%r10d
    4fa7:	44 39 d1             	cmp    %r10d,%ecx
    4faa:	7c 0d                	jl     4fb9 <jpeg_make_c_derived_tbl+0x79>
    4fac:	44 88 9c 14 07 04 00 	mov    %r11b,0x407(%rsp,%rdx,1)
    4fb3:	00 
    4fb4:	48 ff c2             	inc    %rdx
    4fb7:	eb e8                	jmp    4fa1 <jpeg_make_c_derived_tbl+0x61>
    4fb9:	49 ff c3             	inc    %r11
    4fbc:	01 ce                	add    %ecx,%esi
    4fbe:	44 89 cf             	mov    %r9d,%edi
    4fc1:	49 83 fb 11          	cmp    $0x11,%r11
    4fc5:	48 63 d6             	movslq %esi,%rdx
    4fc8:	74 09                	je     4fd3 <jpeg_make_c_derived_tbl+0x93>
    4fca:	29 f7                	sub    %esi,%edi
    4fcc:	42 0f b6 0c 1b       	movzbl (%rbx,%r11,1),%ecx
    4fd1:	eb ce                	jmp    4fa1 <jpeg_make_c_derived_tbl+0x61>
    4fd3:	48 63 ee             	movslq %esi,%rbp
    4fd6:	4c 8d 94 24 07 04 00 	lea    0x407(%rsp),%r10
    4fdd:	00 
    4fde:	31 d2                	xor    %edx,%edx
    4fe0:	31 c9                	xor    %ecx,%ecx
    4fe2:	c6 84 2c 07 04 00 00 	movb   $0x0,0x407(%rsp,%rbp,1)
    4fe9:	00 
    4fea:	0f be bc 24 07 04 00 	movsbl 0x407(%rsp),%edi
    4ff1:	00 
    4ff2:	48 63 c1             	movslq %ecx,%rax
    4ff5:	80 bc 04 07 04 00 00 	cmpb   $0x0,0x407(%rsp,%rax,1)
    4ffc:	00 
    4ffd:	74 23                	je     5022 <jpeg_make_c_derived_tbl+0xe2>
    4fff:	29 ca                	sub    %ecx,%edx
    5001:	46 0f be 1c 10       	movsbl (%rax,%r10,1),%r11d
    5006:	44 8d 0c 02          	lea    (%rdx,%rax,1),%r9d
    500a:	41 39 fb             	cmp    %edi,%r11d
    500d:	75 09                	jne    5018 <jpeg_make_c_derived_tbl+0xd8>
    500f:	44 89 0c 84          	mov    %r9d,(%rsp,%rax,4)
    5013:	48 ff c0             	inc    %rax
    5016:	eb e9                	jmp    5001 <jpeg_make_c_derived_tbl+0xc1>
    5018:	89 c1                	mov    %eax,%ecx
    501a:	ff c7                	inc    %edi
    501c:	43 8d 14 09          	lea    (%r9,%r9,1),%edx
    5020:	eb d0                	jmp    4ff2 <jpeg_make_c_derived_tbl+0xb2>
    5022:	b9 40 00 00 00       	mov    $0x40,%ecx
    5027:	49 8d b8 00 04 00 00 	lea    0x400(%r8),%rdi
    502e:	31 c0                	xor    %eax,%eax
    5030:	31 ed                	xor    %ebp,%ebp
    5032:	f3 ab                	rep stos %eax,%es:(%rdi)
    5034:	39 ee                	cmp    %ebp,%esi
    5036:	7e 23                	jle    505b <jpeg_make_c_derived_tbl+0x11b>
    5038:	44 0f b6 5c 2b 11    	movzbl 0x11(%rbx,%rbp,1),%r11d
    503e:	44 8b 0c ac          	mov    (%rsp,%rbp,4),%r9d
    5042:	44 8a 94 2c 07 04 00 	mov    0x407(%rsp,%rbp,1),%r10b
    5049:	00 
    504a:	47 89 0c 98          	mov    %r9d,(%r8,%r11,4)
    504e:	48 ff c5             	inc    %rbp
    5051:	47 88 94 18 00 04 00 	mov    %r10b,0x400(%r8,%r11,1)
    5058:	00 
    5059:	eb d9                	jmp    5034 <jpeg_make_c_derived_tbl+0xf4>
    505b:	48 8b 84 24 08 05 00 	mov    0x508(%rsp),%rax
    5062:	00 
    5063:	64 48 2b 04 25 28 00 	sub    %fs:0x28,%rax
    506a:	00 00 
    506c:	74 05                	je     5073 <jpeg_make_c_derived_tbl+0x133>
    506e:	e8 0d d2 ff ff       	call   2280 <__stack_chk_fail@plt>
    5073:	48 81 c4 18 05 00 00 	add    $0x518,%rsp
    507a:	5b                   	pop    %rbx
    507b:	5d                   	pop    %rbp
    507c:	c3                   	ret    

000000000000507d <start_pass_huff>:
    507d:	f3 0f 1e fa          	endbr64 
    5081:	41 57                	push   %r15
    5083:	48 8d 15 83 02 00 00 	lea    0x283(%rip),%rdx        # 530d <finish_pass_huff>
    508a:	41 56                	push   %r14
    508c:	48 8d 05 44 03 00 00 	lea    0x344(%rip),%rax        # 53d7 <encode_mcu_huff>
    5093:	48 8d 0d 1a fd ff ff 	lea    -0x2e6(%rip),%rcx        # 4db4 <encode_mcu_gather>
    509a:	45 31 f6             	xor    %r14d,%r14d
    509d:	41 55                	push   %r13
    509f:	41 54                	push   %r12
    50a1:	55                   	push   %rbp
    50a2:	41 89 f4             	mov    %esi,%r12d
    50a5:	53                   	push   %rbx
    50a6:	48 8d 35 86 09 00 00 	lea    0x986(%rip),%rsi        # 5a33 <finish_pass_gather>
    50ad:	48 89 fb             	mov    %rdi,%rbx
    50b0:	48 83 ec 18          	sub    $0x18,%rsp
    50b4:	45 85 e4             	test   %r12d,%r12d
    50b7:	48 8b af e8 01 00 00 	mov    0x1e8(%rdi),%rbp
    50be:	48 0f 45 d6          	cmovne %rsi,%rdx
    50c2:	48 0f 45 c1          	cmovne %rcx,%rax
    50c6:	48 89 55 10          	mov    %rdx,0x10(%rbp)
    50ca:	48 89 45 08          	mov    %rax,0x8(%rbp)
    50ce:	44 39 b3 3c 01 00 00 	cmp    %r14d,0x13c(%rbx)
    50d5:	0f 8e 31 01 00 00    	jle    520c <start_pass_huff+0x18f>
    50db:	4a 8b bc f3 40 01 00 	mov    0x140(%rbx,%r14,8),%rdi
    50e2:	00 
    50e3:	4c 63 7f 14          	movslq 0x14(%rdi),%r15
    50e7:	44 8b 57 18          	mov    0x18(%rdi),%r10d
    50eb:	41 83 ff 03          	cmp    $0x3,%r15d
    50ef:	4d 89 f8             	mov    %r15,%r8
    50f2:	77 0d                	ja     5101 <start_pass_huff+0x84>
    50f4:	4a 83 7c fb 78 00    	cmpq   $0x0,0x78(%rbx,%r15,8)
    50fa:	75 24                	jne    5120 <start_pass_huff+0xa3>
    50fc:	45 85 e4             	test   %r12d,%r12d
    50ff:	75 1f                	jne    5120 <start_pass_huff+0xa3>
    5101:	4c 8b 0b             	mov    (%rbx),%r9
    5104:	48 89 df             	mov    %rbx,%rdi
    5107:	44 89 54 24 08       	mov    %r10d,0x8(%rsp)
    510c:	41 c7 41 28 31 00 00 	movl   $0x31,0x28(%r9)
    5113:	00 
    5114:	45 89 41 2c          	mov    %r8d,0x2c(%r9)
    5118:	41 ff 11             	call   *(%r9)
    511b:	44 8b 54 24 08       	mov    0x8(%rsp),%r10d
    5120:	41 83 fa 03          	cmp    $0x3,%r10d
    5124:	4d 63 ea             	movslq %r10d,%r13
    5127:	77 43                	ja     516c <start_pass_huff+0xef>
    5129:	4a 83 bc eb 98 00 00 	cmpq   $0x0,0x98(%rbx,%r13,8)
    5130:	00 00 
    5132:	75 4d                	jne    5181 <start_pass_huff+0x104>
    5134:	45 85 e4             	test   %r12d,%r12d
    5137:	74 33                	je     516c <start_pass_huff+0xef>
    5139:	4a 83 bc fd 80 00 00 	cmpq   $0x0,0x80(%rbp,%r15,8)
    5140:	00 00 
    5142:	49 8d 57 10          	lea    0x10(%r15),%rdx
    5146:	75 6a                	jne    51b2 <start_pass_huff+0x135>
    5148:	48 8b 43 08          	mov    0x8(%rbx),%rax
    514c:	be 01 00 00 00       	mov    $0x1,%esi
    5151:	48 89 df             	mov    %rbx,%rdi
    5154:	48 89 54 24 08       	mov    %rdx,0x8(%rsp)
    5159:	ba 08 08 00 00       	mov    $0x808,%edx
    515e:	ff 10                	call   *(%rax)
    5160:	48 8b 74 24 08       	mov    0x8(%rsp),%rsi
    5165:	48 89 44 f5 00       	mov    %rax,0x0(%rbp,%rsi,8)
    516a:	eb 46                	jmp    51b2 <start_pass_huff+0x135>
    516c:	4c 8b 1b             	mov    (%rbx),%r11
    516f:	48 89 df             	mov    %rbx,%rdi
    5172:	41 c7 43 28 31 00 00 	movl   $0x31,0x28(%r11)
    5179:	00 
    517a:	45 89 53 2c          	mov    %r10d,0x2c(%r11)
    517e:	41 ff 13             	call   *(%r11)
    5181:	45 85 e4             	test   %r12d,%r12d
    5184:	75 b3                	jne    5139 <start_pass_huff+0xbc>
    5186:	4a 8b 74 fb 78       	mov    0x78(%rbx,%r15,8),%rsi
    518b:	4a 8d 54 fd 40       	lea    0x40(%rbp,%r15,8),%rdx
    5190:	48 89 df             	mov    %rbx,%rdi
    5193:	4e 8d 7c ed 60       	lea    0x60(%rbp,%r13,8),%r15
    5198:	e8 a3 fd ff ff       	call   4f40 <jpeg_make_c_derived_tbl>
    519d:	4a 8b b4 eb 98 00 00 	mov    0x98(%rbx,%r13,8),%rsi
    51a4:	00 
    51a5:	4c 89 fa             	mov    %r15,%rdx
    51a8:	48 89 df             	mov    %rbx,%rdi
    51ab:	e8 90 fd ff ff       	call   4f40 <jpeg_make_c_derived_tbl>
    51b0:	eb 49                	jmp    51fb <start_pass_huff+0x17e>
    51b2:	4a 8b bc fd 80 00 00 	mov    0x80(%rbp,%r15,8),%rdi
    51b9:	00 
    51ba:	b9 02 02 00 00       	mov    $0x202,%ecx
    51bf:	31 c0                	xor    %eax,%eax
    51c1:	4d 8d 7d 14          	lea    0x14(%r13),%r15
    51c5:	f3 ab                	rep stos %eax,%es:(%rdi)
    51c7:	4a 83 bc ed a0 00 00 	cmpq   $0x0,0xa0(%rbp,%r13,8)
    51ce:	00 00 
    51d0:	75 18                	jne    51ea <start_pass_huff+0x16d>
    51d2:	48 8b 43 08          	mov    0x8(%rbx),%rax
    51d6:	ba 08 08 00 00       	mov    $0x808,%edx
    51db:	be 01 00 00 00       	mov    $0x1,%esi
    51e0:	48 89 df             	mov    %rbx,%rdi
    51e3:	ff 10                	call   *(%rax)
    51e5:	4a 89 44 fd 00       	mov    %rax,0x0(%rbp,%r15,8)
    51ea:	4a 8b bc ed a0 00 00 	mov    0xa0(%rbp,%r13,8),%rdi
    51f1:	00 
    51f2:	b9 02 02 00 00       	mov    $0x202,%ecx
    51f7:	31 c0                	xor    %eax,%eax
    51f9:	f3 ab                	rep stos %eax,%es:(%rdi)
    51fb:	42 c7 44 b5 24 00 00 	movl   $0x0,0x24(%rbp,%r14,4)
    5202:	00 00 
    5204:	49 ff c6             	inc    %r14
    5207:	e9 c2 fe ff ff       	jmp    50ce <start_pass_huff+0x51>
    520c:	8b 9b 10 01 00 00    	mov    0x110(%rbx),%ebx
    5212:	48 c7 45 18 00 00 00 	movq   $0x0,0x18(%rbp)
    5219:	00 
    521a:	c7 45 20 00 00 00 00 	movl   $0x0,0x20(%rbp)
    5221:	89 5d 38             	mov    %ebx,0x38(%rbp)
    5224:	c7 45 3c 00 00 00 00 	movl   $0x0,0x3c(%rbp)
    522b:	48 83 c4 18          	add    $0x18,%rsp
    522f:	5b                   	pop    %rbx
    5230:	5d                   	pop    %rbp
    5231:	41 5c                	pop    %r12
    5233:	41 5d                	pop    %r13
    5235:	41 5e                	pop    %r14
    5237:	41 5f                	pop    %r15
    5239:	c3                   	ret    

000000000000523a <emit_bits>:
    523a:	f3 0f 1e fa          	endbr64 
    523e:	85 d2                	test   %edx,%edx
    5240:	41 56                	push   %r14
    5242:	41 55                	push   %r13
    5244:	41 89 d6             	mov    %edx,%r14d
    5247:	41 89 f5             	mov    %esi,%r13d
    524a:	41 54                	push   %r12
    524c:	55                   	push   %rbp
    524d:	53                   	push   %rbx
    524e:	44 8b 67 18          	mov    0x18(%rdi),%r12d
    5252:	48 89 fb             	mov    %rdi,%rbx
    5255:	75 10                	jne    5267 <emit_bits+0x2d>
    5257:	48 8b 7f 30          	mov    0x30(%rdi),%rdi
    525b:	48 8b 07             	mov    (%rdi),%rax
    525e:	c7 40 28 27 00 00 00 	movl   $0x27,0x28(%rax)
    5265:	ff 10                	call   *(%rax)
    5267:	bd 01 00 00 00       	mov    $0x1,%ebp
    526c:	44 89 f1             	mov    %r14d,%ecx
    526f:	45 01 f4             	add    %r14d,%r12d
    5272:	ba 18 00 00 00       	mov    $0x18,%edx
    5277:	48 d3 e5             	shl    %cl,%rbp
    527a:	44 29 e2             	sub    %r12d,%edx
    527d:	48 ff cd             	dec    %rbp
    5280:	89 d1                	mov    %edx,%ecx
    5282:	4c 21 ed             	and    %r13,%rbp
    5285:	48 d3 e5             	shl    %cl,%rbp
    5288:	48 0b 6b 10          	or     0x10(%rbx),%rbp
    528c:	49 89 e8             	mov    %rbp,%r8
    528f:	41 83 fc 07          	cmp    $0x7,%r12d
    5293:	48 89 df             	mov    %rbx,%rdi
    5296:	7e 5f                	jle    52f7 <emit_bits+0xbd>
    5298:	48 8b 33             	mov    (%rbx),%rsi
    529b:	49 c1 f8 10          	sar    $0x10,%r8
    529f:	45 0f b6 f0          	movzbl %r8b,%r14d
    52a3:	4c 8d 4e 01          	lea    0x1(%rsi),%r9
    52a7:	4c 89 0b             	mov    %r9,(%rbx)
    52aa:	44 88 06             	mov    %r8b,(%rsi)
    52ad:	48 ff 4b 08          	decq   0x8(%rbx)
    52b1:	74 0b                	je     52be <emit_bits+0x84>
    52b3:	41 81 fe ff 00 00 00 	cmp    $0xff,%r14d
    52ba:	75 26                	jne    52e2 <emit_bits+0xa8>
    52bc:	eb 10                	jmp    52ce <emit_bits+0x94>
    52be:	e8 c4 fa ff ff       	call   4d87 <dump_buffer>
    52c3:	85 c0                	test   %eax,%eax
    52c5:	48 89 df             	mov    %rbx,%rdi
    52c8:	75 e9                	jne    52b3 <emit_bits+0x79>
    52ca:	31 c0                	xor    %eax,%eax
    52cc:	eb 36                	jmp    5304 <emit_bits+0xca>
    52ce:	4c 8b 13             	mov    (%rbx),%r10
    52d1:	4d 8d 5a 01          	lea    0x1(%r10),%r11
    52d5:	4c 89 1b             	mov    %r11,(%rbx)
    52d8:	41 c6 02 00          	movb   $0x0,(%r10)
    52dc:	48 ff 4b 08          	decq   0x8(%rbx)
    52e0:	74 0a                	je     52ec <emit_bits+0xb2>
    52e2:	48 c1 e5 08          	shl    $0x8,%rbp
    52e6:	41 83 ec 08          	sub    $0x8,%r12d
    52ea:	eb a0                	jmp    528c <emit_bits+0x52>
    52ec:	e8 96 fa ff ff       	call   4d87 <dump_buffer>
    52f1:	85 c0                	test   %eax,%eax
    52f3:	75 ed                	jne    52e2 <emit_bits+0xa8>
    52f5:	eb d3                	jmp    52ca <emit_bits+0x90>
    52f7:	48 89 6b 10          	mov    %rbp,0x10(%rbx)
    52fb:	b8 01 00 00 00       	mov    $0x1,%eax
    5300:	44 89 63 18          	mov    %r12d,0x18(%rbx)
    5304:	5b                   	pop    %rbx
    5305:	5d                   	pop    %rbp
    5306:	41 5c                	pop    %r12
    5308:	41 5d                	pop    %r13
    530a:	41 5e                	pop    %r14
    530c:	c3                   	ret    

000000000000530d <finish_pass_huff>:
    530d:	f3 0f 1e fa          	endbr64 
    5311:	55                   	push   %rbp
    5312:	ba 07 00 00 00       	mov    $0x7,%edx
    5317:	be 7f 00 00 00       	mov    $0x7f,%esi
    531c:	53                   	push   %rbx
    531d:	48 89 fb             	mov    %rdi,%rbx
    5320:	48 83 ec 48          	sub    $0x48,%rsp
    5324:	48 8b 43 20          	mov    0x20(%rbx),%rax
    5328:	48 8b ab e8 01 00 00 	mov    0x1e8(%rbx),%rbp
    532f:	49 89 e0             	mov    %rsp,%r8
    5332:	4c 89 c7             	mov    %r8,%rdi
    5335:	64 48 8b 0c 25 28 00 	mov    %fs:0x28,%rcx
    533c:	00 00 
    533e:	48 89 4c 24 38       	mov    %rcx,0x38(%rsp)
    5343:	48 8b 08             	mov    (%rax),%rcx
    5346:	4c 8b 48 08          	mov    0x8(%rax),%r9
    534a:	0f 10 45 18          	movups 0x18(%rbp),%xmm0
    534e:	0f 10 55 28          	movups 0x28(%rbp),%xmm2
    5352:	4c 89 4c 24 08       	mov    %r9,0x8(%rsp)
    5357:	0f 11 44 24 10       	movups %xmm0,0x10(%rsp)
    535c:	48 89 5c 24 30       	mov    %rbx,0x30(%rsp)
    5361:	0f 11 54 24 20       	movups %xmm2,0x20(%rsp)
    5366:	48 89 0c 24          	mov    %rcx,(%rsp)
    536a:	e8 cb fe ff ff       	call   523a <emit_bits>
    536f:	85 c0                	test   %eax,%eax
    5371:	75 11                	jne    5384 <finish_pass_huff+0x77>
    5373:	48 8b 13             	mov    (%rbx),%rdx
    5376:	48 89 df             	mov    %rbx,%rdi
    5379:	c7 42 28 16 00 00 00 	movl   $0x16,0x28(%rdx)
    5380:	ff 12                	call   *(%rdx)
    5382:	eb 11                	jmp    5395 <finish_pass_huff+0x88>
    5384:	48 c7 44 24 10 00 00 	movq   $0x0,0x10(%rsp)
    538b:	00 00 
    538d:	c7 44 24 18 00 00 00 	movl   $0x0,0x18(%rsp)
    5394:	00 
    5395:	48 8b 73 20          	mov    0x20(%rbx),%rsi
    5399:	48 8b 3c 24          	mov    (%rsp),%rdi
    539d:	4c 8b 54 24 08       	mov    0x8(%rsp),%r10
    53a2:	0f 10 4c 24 10       	movups 0x10(%rsp),%xmm1
    53a7:	48 89 3e             	mov    %rdi,(%rsi)
    53aa:	0f 10 5c 24 20       	movups 0x20(%rsp),%xmm3
    53af:	4c 89 56 08          	mov    %r10,0x8(%rsi)
    53b3:	0f 11 4d 18          	movups %xmm1,0x18(%rbp)
    53b7:	0f 11 5d 28          	movups %xmm3,0x28(%rbp)
    53bb:	48 8b 44 24 38       	mov    0x38(%rsp),%rax
    53c0:	64 48 2b 04 25 28 00 	sub    %fs:0x28,%rax
    53c7:	00 00 
    53c9:	74 05                	je     53d0 <finish_pass_huff+0xc3>
    53cb:	e8 b0 ce ff ff       	call   2280 <__stack_chk_fail@plt>
    53d0:	48 83 c4 48          	add    $0x48,%rsp
    53d4:	5b                   	pop    %rbx
    53d5:	5d                   	pop    %rbp
    53d6:	c3                   	ret    

00000000000053d7 <encode_mcu_huff>:
    53d7:	f3 0f 1e fa          	endbr64 
    53db:	41 57                	push   %r15
    53dd:	41 56                	push   %r14
    53df:	41 55                	push   %r13
    53e1:	41 54                	push   %r12
    53e3:	55                   	push   %rbp
    53e4:	53                   	push   %rbx
    53e5:	48 89 fd             	mov    %rdi,%rbp
    53e8:	48 83 ec 78          	sub    $0x78,%rsp
    53ec:	48 8b 9f e8 01 00 00 	mov    0x1e8(%rdi),%rbx
    53f3:	48 8b 47 20          	mov    0x20(%rdi),%rax
    53f7:	48 89 74 24 18       	mov    %rsi,0x18(%rsp)
    53fc:	48 8b 48 08          	mov    0x8(%rax),%rcx
    5400:	0f 10 43 18          	movups 0x18(%rbx),%xmm0
    5404:	64 48 8b 14 25 28 00 	mov    %fs:0x28,%rdx
    540b:	00 00 
    540d:	48 89 54 24 68       	mov    %rdx,0x68(%rsp)
    5412:	31 d2                	xor    %edx,%edx
    5414:	48 8b 10             	mov    (%rax),%rdx
    5417:	0f 10 53 28          	movups 0x28(%rbx),%xmm2
    541b:	83 bf 10 01 00 00 00 	cmpl   $0x0,0x110(%rdi)
    5422:	48 89 4c 24 38       	mov    %rcx,0x38(%rsp)
    5427:	48 89 54 24 30       	mov    %rdx,0x30(%rsp)
    542c:	0f 11 44 24 40       	movups %xmm0,0x40(%rsp)
    5431:	48 89 7c 24 60       	mov    %rdi,0x60(%rsp)
    5436:	0f 11 54 24 50       	movups %xmm2,0x50(%rsp)
    543b:	75 08                	jne    5445 <encode_mcu_huff+0x6e>
    543d:	45 31 e4             	xor    %r12d,%r12d
    5440:	e9 60 01 00 00       	jmp    55a5 <encode_mcu_huff+0x1ce>
    5445:	83 7b 38 00          	cmpl   $0x0,0x38(%rbx)
    5449:	75 f2                	jne    543d <encode_mcu_huff+0x66>
    544b:	4c 8d 64 24 30       	lea    0x30(%rsp),%r12
    5450:	ba 07 00 00 00       	mov    $0x7,%edx
    5455:	be 7f 00 00 00       	mov    $0x7f,%esi
    545a:	4c 89 e7             	mov    %r12,%rdi
    545d:	44 8b 6b 3c          	mov    0x3c(%rbx),%r13d
    5461:	e8 d4 fd ff ff       	call   523a <emit_bits>
    5466:	85 c0                	test   %eax,%eax
    5468:	75 07                	jne    5471 <encode_mcu_huff+0x9a>
    546a:	31 c0                	xor    %eax,%eax
    546c:	e9 04 03 00 00       	jmp    5775 <encode_mcu_huff+0x39e>
    5471:	48 8b 74 24 30       	mov    0x30(%rsp),%rsi
    5476:	c7 44 24 48 00 00 00 	movl   $0x0,0x48(%rsp)
    547d:	00 
    547e:	48 c7 44 24 40 00 00 	movq   $0x0,0x40(%rsp)
    5485:	00 00 
    5487:	48 8d 7e 01          	lea    0x1(%rsi),%rdi
    548b:	48 89 7c 24 30       	mov    %rdi,0x30(%rsp)
    5490:	c6 06 ff             	movb   $0xff,(%rsi)
    5493:	48 ff 4c 24 38       	decq   0x38(%rsp)
    5498:	74 1e                	je     54b8 <encode_mcu_huff+0xe1>
    549a:	4c 8b 44 24 30       	mov    0x30(%rsp),%r8
    549f:	41 83 ed 30          	sub    $0x30,%r13d
    54a3:	4d 8d 48 01          	lea    0x1(%r8),%r9
    54a7:	4c 89 4c 24 30       	mov    %r9,0x30(%rsp)
    54ac:	45 88 28             	mov    %r13b,(%r8)
    54af:	48 ff 4c 24 38       	decq   0x38(%rsp)
    54b4:	75 1c                	jne    54d2 <encode_mcu_huff+0xfb>
    54b6:	eb 0e                	jmp    54c6 <encode_mcu_huff+0xef>
    54b8:	4c 89 e7             	mov    %r12,%rdi
    54bb:	e8 c7 f8 ff ff       	call   4d87 <dump_buffer>
    54c0:	85 c0                	test   %eax,%eax
    54c2:	75 d6                	jne    549a <encode_mcu_huff+0xc3>
    54c4:	eb a4                	jmp    546a <encode_mcu_huff+0x93>
    54c6:	4c 89 e7             	mov    %r12,%rdi
    54c9:	e8 b9 f8 ff ff       	call   4d87 <dump_buffer>
    54ce:	85 c0                	test   %eax,%eax
    54d0:	74 98                	je     546a <encode_mcu_huff+0x93>
    54d2:	4c 8b 54 24 60       	mov    0x60(%rsp),%r10
    54d7:	45 31 db             	xor    %r11d,%r11d
    54da:	31 c0                	xor    %eax,%eax
    54dc:	48 8d 7c 24 4c       	lea    0x4c(%rsp),%rdi
    54e1:	49 63 8a 3c 01 00 00 	movslq 0x13c(%r10),%rcx
    54e8:	85 c9                	test   %ecx,%ecx
    54ea:	49 0f 48 cb          	cmovs  %r11,%rcx
    54ee:	48 c1 e1 02          	shl    $0x2,%rcx
    54f2:	f3 aa                	rep stos %al,%es:(%rdi)
    54f4:	e9 44 ff ff ff       	jmp    543d <encode_mcu_huff+0x66>
    54f9:	4d 63 c6             	movslq %r14d,%r8
    54fc:	89 74 24 28          	mov    %esi,0x28(%rsp)
    5500:	48 8d 7c 24 30       	lea    0x30(%rsp),%rdi
    5505:	46 0f be 8c 02 00 04 	movsbl 0x400(%rdx,%r8,1),%r9d
    550c:	00 00 
    550e:	42 8b 34 82          	mov    (%rdx,%r8,4),%esi
    5512:	48 89 7c 24 20       	mov    %rdi,0x20(%rsp)
    5517:	44 89 ca             	mov    %r9d,%edx
    551a:	e8 1b fd ff ff       	call   523a <emit_bits>
    551f:	85 c0                	test   %eax,%eax
    5521:	0f 84 43 ff ff ff    	je     546a <encode_mcu_huff+0x93>
    5527:	45 85 f6             	test   %r14d,%r14d
    552a:	48 8b 7c 24 20       	mov    0x20(%rsp),%rdi
    552f:	44 8b 54 24 28       	mov    0x28(%rsp),%r10d
    5534:	0f 85 e4 00 00 00    	jne    561e <encode_mcu_huff+0x247>
    553a:	4c 8d 35 3f 81 01 00 	lea    0x1813f(%rip),%r14        # 1d680 <jpeg_natural_order>
    5541:	45 89 f9             	mov    %r15d,%r9d
    5544:	48 8d 7c 24 30       	lea    0x30(%rsp),%rdi
    5549:	4c 8d 05 2c 82 01 00 	lea    0x1822c(%rip),%r8        # 1d77c <jpeg_natural_order+0xfc>
    5550:	4d 63 5e 04          	movslq 0x4(%r14),%r11
    5554:	48 8b 44 24 08       	mov    0x8(%rsp),%rax
    5559:	42 0f bf 14 58       	movswl (%rax,%r11,2),%edx
    555e:	85 d2                	test   %edx,%edx
    5560:	0f 85 09 01 00 00    	jne    566f <encode_mcu_huff+0x298>
    5566:	41 ff c7             	inc    %r15d
    5569:	49 83 c6 04          	add    $0x4,%r14
    556d:	45 89 f9             	mov    %r15d,%r9d
    5570:	4d 39 c6             	cmp    %r8,%r14
    5573:	4c 8d 05 02 82 01 00 	lea    0x18202(%rip),%r8        # 1d77c <jpeg_natural_order+0xfc>
    557a:	48 8d 7c 24 30       	lea    0x30(%rsp),%rdi
    557f:	75 cf                	jne    5550 <encode_mcu_huff+0x179>
    5581:	45 85 ff             	test   %r15d,%r15d
    5584:	0f 85 6e 01 00 00    	jne    56f8 <encode_mcu_huff+0x321>
    558a:	4c 8b 54 24 18       	mov    0x18(%rsp),%r10
    558f:	48 63 44 24 14       	movslq 0x14(%rsp),%rax
    5594:	4f 8b 1c e2          	mov    (%r10,%r12,8),%r11
    5598:	49 ff c4             	inc    %r12
    559b:	41 0f bf 0b          	movswl (%r11),%ecx
    559f:	89 4c 84 4c          	mov    %ecx,0x4c(%rsp,%rax,4)
    55a3:	eb 00                	jmp    55a5 <encode_mcu_huff+0x1ce>
    55a5:	44 39 a5 68 01 00 00 	cmp    %r12d,0x168(%rbp)
    55ac:	0f 8e 69 01 00 00    	jle    571b <encode_mcu_huff+0x344>
    55b2:	46 8b ac a5 6c 01 00 	mov    0x16c(%rbp,%r12,4),%r13d
    55b9:	00 
    55ba:	48 8b 74 24 18       	mov    0x18(%rsp),%rsi
    55bf:	44 89 6c 24 14       	mov    %r13d,0x14(%rsp)
    55c4:	4c 63 4c 24 14       	movslq 0x14(%rsp),%r9
    55c9:	4e 8b 04 e6          	mov    (%rsi,%r12,8),%r8
    55cd:	4e 8b 9c cd 40 01 00 	mov    0x140(%rbp,%r9,8),%r11
    55d4:	00 
    55d5:	42 8b 44 8c 4c       	mov    0x4c(%rsp,%r9,4),%eax
    55da:	45 0f bf 10          	movswl (%r8),%r10d
    55de:	4c 89 44 24 08       	mov    %r8,0x8(%rsp)
    55e3:	49 63 4b 18          	movslq 0x18(%r11),%rcx
    55e7:	49 63 7b 14          	movslq 0x14(%r11),%rdi
    55eb:	45 89 d7             	mov    %r10d,%r15d
    55ee:	4c 8b 6c cb 60       	mov    0x60(%rbx,%rcx,8),%r13
    55f3:	48 8b 54 fb 40       	mov    0x40(%rbx,%rdi,8),%rdx
    55f8:	41 29 c7             	sub    %eax,%r15d
    55fb:	44 89 fe             	mov    %r15d,%esi
    55fe:	79 0a                	jns    560a <encode_mcu_huff+0x233>
    5600:	44 29 d0             	sub    %r10d,%eax
    5603:	41 8d 77 ff          	lea    -0x1(%r15),%esi
    5607:	41 89 c7             	mov    %eax,%r15d
    560a:	45 31 f6             	xor    %r14d,%r14d
    560d:	45 85 ff             	test   %r15d,%r15d
    5610:	0f 84 e3 fe ff ff    	je     54f9 <encode_mcu_huff+0x122>
    5616:	41 ff c6             	inc    %r14d
    5619:	41 d1 ff             	sar    %r15d
    561c:	eb ef                	jmp    560d <encode_mcu_huff+0x236>
    561e:	44 89 f2             	mov    %r14d,%edx
    5621:	44 89 d6             	mov    %r10d,%esi
    5624:	e8 11 fc ff ff       	call   523a <emit_bits>
    5629:	85 c0                	test   %eax,%eax
    562b:	0f 85 09 ff ff ff    	jne    553a <encode_mcu_huff+0x163>
    5631:	e9 34 fe ff ff       	jmp    546a <encode_mcu_huff+0x93>
    5636:	41 8b b5 c0 03 00 00 	mov    0x3c0(%r13),%esi
    563d:	89 54 24 20          	mov    %edx,0x20(%rsp)
    5641:	41 0f be 95 f0 04 00 	movsbl 0x4f0(%r13),%edx
    5648:	00 
    5649:	44 89 4c 24 28       	mov    %r9d,0x28(%rsp)
    564e:	e8 e7 fb ff ff       	call   523a <emit_bits>
    5653:	85 c0                	test   %eax,%eax
    5655:	48 8d 7c 24 30       	lea    0x30(%rsp),%rdi
    565a:	0f 84 0a fe ff ff    	je     546a <encode_mcu_huff+0x93>
    5660:	44 8b 4c 24 28       	mov    0x28(%rsp),%r9d
    5665:	8b 54 24 20          	mov    0x20(%rsp),%edx
    5669:	41 83 e9 10          	sub    $0x10,%r9d
    566d:	eb 00                	jmp    566f <encode_mcu_huff+0x298>
    566f:	41 83 f9 0f          	cmp    $0xf,%r9d
    5673:	7f c1                	jg     5636 <encode_mcu_huff+0x25f>
    5675:	85 d2                	test   %edx,%edx
    5677:	89 d7                	mov    %edx,%edi
    5679:	41 89 d7             	mov    %edx,%r15d
    567c:	b9 01 00 00 00       	mov    $0x1,%ecx
    5681:	79 08                	jns    568b <encode_mcu_huff+0x2b4>
    5683:	8d 7a ff             	lea    -0x1(%rdx),%edi
    5686:	f7 da                	neg    %edx
    5688:	41 89 d7             	mov    %edx,%r15d
    568b:	41 d1 ff             	sar    %r15d
    568e:	74 04                	je     5694 <encode_mcu_huff+0x2bd>
    5690:	ff c1                	inc    %ecx
    5692:	eb f7                	jmp    568b <encode_mcu_huff+0x2b4>
    5694:	41 c1 e1 04          	shl    $0x4,%r9d
    5698:	89 7c 24 2c          	mov    %edi,0x2c(%rsp)
    569c:	41 01 c9             	add    %ecx,%r9d
    569f:	48 8d 7c 24 30       	lea    0x30(%rsp),%rdi
    56a4:	89 4c 24 28          	mov    %ecx,0x28(%rsp)
    56a8:	49 63 f1             	movslq %r9d,%rsi
    56ab:	48 89 7c 24 20       	mov    %rdi,0x20(%rsp)
    56b0:	41 0f be 94 35 00 04 	movsbl 0x400(%r13,%rsi,1),%edx
    56b7:	00 00 
    56b9:	41 8b 74 b5 00       	mov    0x0(%r13,%rsi,4),%esi
    56be:	e8 77 fb ff ff       	call   523a <emit_bits>
    56c3:	85 c0                	test   %eax,%eax
    56c5:	48 8b 7c 24 20       	mov    0x20(%rsp),%rdi
    56ca:	8b 54 24 28          	mov    0x28(%rsp),%edx
    56ce:	8b 74 24 2c          	mov    0x2c(%rsp),%esi
    56d2:	0f 84 92 fd ff ff    	je     546a <encode_mcu_huff+0x93>
    56d8:	e8 5d fb ff ff       	call   523a <emit_bits>
    56dd:	4c 8d 05 98 80 01 00 	lea    0x18098(%rip),%r8        # 1d77c <jpeg_natural_order+0xfc>
    56e4:	85 c0                	test   %eax,%eax
    56e6:	45 89 f9             	mov    %r15d,%r9d
    56e9:	0f 84 7b fd ff ff    	je     546a <encode_mcu_huff+0x93>
    56ef:	49 83 c6 04          	add    $0x4,%r14
    56f3:	e9 78 fe ff ff       	jmp    5570 <encode_mcu_huff+0x199>
    56f8:	41 0f be 95 00 04 00 	movsbl 0x400(%r13),%edx
    56ff:	00 
    5700:	41 8b 75 00          	mov    0x0(%r13),%esi
    5704:	48 8d 7c 24 30       	lea    0x30(%rsp),%rdi
    5709:	e8 2c fb ff ff       	call   523a <emit_bits>
    570e:	85 c0                	test   %eax,%eax
    5710:	0f 85 74 fe ff ff    	jne    558a <encode_mcu_huff+0x1b3>
    5716:	e9 4f fd ff ff       	jmp    546a <encode_mcu_huff+0x93>
    571b:	4c 8b 7c 24 30       	mov    0x30(%rsp),%r15
    5720:	48 8b 54 24 38       	mov    0x38(%rsp),%rdx
    5725:	b8 01 00 00 00       	mov    $0x1,%eax
    572a:	44 8b b5 10 01 00 00 	mov    0x110(%rbp),%r14d
    5731:	48 8b 6d 20          	mov    0x20(%rbp),%rbp
    5735:	0f 10 4c 24 40       	movups 0x40(%rsp),%xmm1
    573a:	0f 10 5c 24 50       	movups 0x50(%rsp),%xmm3
    573f:	45 85 f6             	test   %r14d,%r14d
    5742:	4c 89 7d 00          	mov    %r15,0x0(%rbp)
    5746:	48 89 55 08          	mov    %rdx,0x8(%rbp)
    574a:	0f 11 4b 18          	movups %xmm1,0x18(%rbx)
    574e:	0f 11 5b 28          	movups %xmm3,0x28(%rbx)
    5752:	74 21                	je     5775 <encode_mcu_huff+0x39e>
    5754:	83 7b 38 00          	cmpl   $0x0,0x38(%rbx)
    5758:	75 13                	jne    576d <encode_mcu_huff+0x396>
    575a:	44 8b 63 3c          	mov    0x3c(%rbx),%r12d
    575e:	44 89 73 38          	mov    %r14d,0x38(%rbx)
    5762:	41 ff c4             	inc    %r12d
    5765:	41 83 e4 07          	and    $0x7,%r12d
    5769:	44 89 63 3c          	mov    %r12d,0x3c(%rbx)
    576d:	ff 4b 38             	decl   0x38(%rbx)
    5770:	b8 01 00 00 00       	mov    $0x1,%eax
    5775:	48 8b 54 24 68       	mov    0x68(%rsp),%rdx
    577a:	64 48 2b 14 25 28 00 	sub    %fs:0x28,%rdx
    5781:	00 00 
    5783:	74 05                	je     578a <encode_mcu_huff+0x3b3>
    5785:	e8 f6 ca ff ff       	call   2280 <__stack_chk_fail@plt>
    578a:	48 83 c4 78          	add    $0x78,%rsp
    578e:	5b                   	pop    %rbx
    578f:	5d                   	pop    %rbp
    5790:	41 5c                	pop    %r12
    5792:	41 5d                	pop    %r13
    5794:	41 5e                	pop    %r14
    5796:	41 5f                	pop    %r15
    5798:	c3                   	ret    

0000000000005799 <jpeg_gen_optimal_table>:
    5799:	f3 0f 1e fa          	endbr64 
    579d:	41 57                	push   %r15
    579f:	b9 21 00 00 00       	mov    $0x21,%ecx
    57a4:	41 bf 01 01 00 00    	mov    $0x101,%r15d
    57aa:	31 c0                	xor    %eax,%eax
    57ac:	41 56                	push   %r14
    57ae:	49 89 fe             	mov    %rdi,%r14
    57b1:	45 31 db             	xor    %r11d,%r11d
    57b4:	41 b2 ff             	mov    $0xff,%r10b
    57b7:	41 55                	push   %r13
    57b9:	49 89 d0             	mov    %rdx,%r8
    57bc:	41 54                	push   %r12
    57be:	ba 04 04 00 00       	mov    $0x404,%edx
    57c3:	55                   	push   %rbp
    57c4:	53                   	push   %rbx
    57c5:	48 89 f3             	mov    %rsi,%rbx
    57c8:	48 81 ec 48 08 00 00 	sub    $0x848,%rsp
    57cf:	64 4c 8b 2c 25 28 00 	mov    %fs:0x28,%r13
    57d6:	00 00 
    57d8:	4c 89 ac 24 38 08 00 	mov    %r13,0x838(%rsp)
    57df:	00 
    57e0:	45 31 ed             	xor    %r13d,%r13d
    57e3:	48 8d ac 24 17 08 00 	lea    0x817(%rsp),%rbp
    57ea:	00 
    57eb:	48 89 ef             	mov    %rbp,%rdi
    57ee:	4c 8d 64 24 0c       	lea    0xc(%rsp),%r12
    57f3:	f3 aa                	rep stos %al,%es:(%rdi)
    57f5:	4c 89 e7             	mov    %r12,%rdi
    57f8:	4c 89 f9             	mov    %r15,%rcx
    57fb:	44 89 d8             	mov    %r11d,%eax
    57fe:	f3 ab                	rep stos %eax,%es:(%rdi)
    5800:	48 89 d1             	mov    %rdx,%rcx
    5803:	4c 8d 8c 24 10 04 00 	lea    0x410(%rsp),%r9
    580a:	00 
    580b:	44 89 d0             	mov    %r10d,%eax
    580e:	49 c7 80 00 08 00 00 	movq   $0x1,0x800(%r8)
    5815:	01 00 00 00 
    5819:	4c 89 cf             	mov    %r9,%rdi
    581c:	f3 aa                	rep stos %al,%es:(%rdi)
    581e:	41 bb 00 ca 9a 3b    	mov    $0x3b9aca00,%r11d
    5824:	45 31 ed             	xor    %r13d,%r13d
    5827:	83 ca ff             	or     $0xffffffff,%edx
    582a:	4b 8b 34 e8          	mov    (%r8,%r13,8),%rsi
    582e:	4c 39 de             	cmp    %r11,%rsi
    5831:	41 0f 9e c7          	setle  %r15b
    5835:	48 85 f6             	test   %rsi,%rsi
    5838:	41 0f 95 c1          	setne  %r9b
    583c:	45 84 cf             	test   %r9b,%r15b
    583f:	41 0f 45 d5          	cmovne %r13d,%edx
    5843:	4c 0f 45 de          	cmovne %rsi,%r11
    5847:	49 ff c5             	inc    %r13
    584a:	49 81 fd 01 01 00 00 	cmp    $0x101,%r13
    5851:	75 d7                	jne    582a <jpeg_gen_optimal_table+0x91>
    5853:	41 bd 00 ca 9a 3b    	mov    $0x3b9aca00,%r13d
    5859:	31 c9                	xor    %ecx,%ecx
    585b:	83 c8 ff             	or     $0xffffffff,%eax
    585e:	49 8b 3c c8          	mov    (%r8,%rcx,8),%rdi
    5862:	48 85 ff             	test   %rdi,%rdi
    5865:	41 0f 95 c3          	setne  %r11b
    5869:	4c 39 ef             	cmp    %r13,%rdi
    586c:	41 0f 9e c2          	setle  %r10b
    5870:	45 21 d3             	and    %r10d,%r11d
    5873:	39 ca                	cmp    %ecx,%edx
    5875:	40 0f 95 c6          	setne  %sil
    5879:	41 84 f3             	test   %sil,%r11b
    587c:	0f 45 c1             	cmovne %ecx,%eax
    587f:	4c 0f 45 ef          	cmovne %rdi,%r13
    5883:	48 ff c1             	inc    %rcx
    5886:	48 81 f9 01 01 00 00 	cmp    $0x101,%rcx
    588d:	75 cf                	jne    585e <jpeg_gen_optimal_table+0xc5>
    588f:	83 f8 ff             	cmp    $0xffffffff,%eax
    5892:	4c 63 fa             	movslq %edx,%r15
    5895:	4c 63 d8             	movslq %eax,%r11
    5898:	74 5a                	je     58f4 <jpeg_gen_optimal_table+0x15b>
    589a:	4b 8d 0c d8          	lea    (%r8,%r11,8),%rcx
    589e:	4c 8b 09             	mov    (%rcx),%r9
    58a1:	4f 01 0c f8          	add    %r9,(%r8,%r15,8)
    58a5:	48 c7 01 00 00 00 00 	movq   $0x0,(%rcx)
    58ac:	42 ff 44 bc 0c       	incl   0xc(%rsp,%r15,4)
    58b1:	4c 63 ea             	movslq %edx,%r13
    58b4:	4a 63 bc ac 10 04 00 	movslq 0x410(%rsp,%r13,4),%rdi
    58bb:	00 
    58bc:	85 ff                	test   %edi,%edi
    58be:	48 89 fa             	mov    %rdi,%rdx
    58c1:	78 06                	js     58c9 <jpeg_gen_optimal_table+0x130>
    58c3:	ff 44 bc 0c          	incl   0xc(%rsp,%rdi,4)
    58c7:	eb e8                	jmp    58b1 <jpeg_gen_optimal_table+0x118>
    58c9:	42 ff 44 9c 0c       	incl   0xc(%rsp,%r11,4)
    58ce:	4c 63 f8             	movslq %eax,%r15
    58d1:	42 89 84 ac 10 04 00 	mov    %eax,0x410(%rsp,%r13,4)
    58d8:	00 
    58d9:	4e 63 94 bc 10 04 00 	movslq 0x410(%rsp,%r15,4),%r10
    58e0:	00 
    58e1:	45 85 d2             	test   %r10d,%r10d
    58e4:	4d 89 d7             	mov    %r10,%r15
    58e7:	0f 88 31 ff ff ff    	js     581e <jpeg_gen_optimal_table+0x85>
    58ed:	42 ff 44 94 0c       	incl   0xc(%rsp,%r10,4)
    58f2:	eb e5                	jmp    58d9 <jpeg_gen_optimal_table+0x140>
    58f4:	45 31 ed             	xor    %r13d,%r13d
    58f7:	4c 89 f7             	mov    %r14,%rdi
    58fa:	4f 63 0c ac          	movslq (%r12,%r13,4),%r9
    58fe:	45 85 c9             	test   %r9d,%r9d
    5901:	4d 89 cf             	mov    %r9,%r15
    5904:	74 1d                	je     5923 <jpeg_gen_optimal_table+0x18a>
    5906:	41 83 f9 20          	cmp    $0x20,%r9d
    590a:	7e 0f                	jle    591b <jpeg_gen_optimal_table+0x182>
    590c:	49 8b 0e             	mov    (%r14),%rcx
    590f:	c7 41 28 26 00 00 00 	movl   $0x26,0x28(%rcx)
    5916:	ff 11                	call   *(%rcx)
    5918:	4d 63 cf             	movslq %r15d,%r9
    591b:	42 fe 84 0c 17 08 00 	incb   0x817(%rsp,%r9,1)
    5922:	00 
    5923:	49 ff c5             	inc    %r13
    5926:	4c 89 f7             	mov    %r14,%rdi
    5929:	49 81 fd 01 01 00 00 	cmp    $0x101,%r13
    5930:	75 c8                	jne    58fa <jpeg_gen_optimal_table+0x161>
    5932:	ba 1e 00 00 00       	mov    $0x1e,%edx
    5937:	48 89 e8             	mov    %rbp,%rax
    593a:	4c 8d 9c 24 18 08 00 	lea    0x818(%rsp),%r11
    5941:	00 
    5942:	49 89 d6             	mov    %rdx,%r14
    5945:	eb 02                	jmp    5949 <jpeg_gen_optimal_table+0x1b0>
    5947:	eb 00                	jmp    5949 <jpeg_gen_optimal_table+0x1b0>
    5949:	40 8a 78 20          	mov    0x20(%rax),%dil
    594d:	40 84 ff             	test   %dil,%dil
    5950:	74 34                	je     5986 <jpeg_gen_optimal_table+0x1ed>
    5952:	4d 63 d6             	movslq %r14d,%r10
    5955:	49 ff ce             	dec    %r14
    5958:	43 80 3c 33 00       	cmpb   $0x0,(%r11,%r14,1)
    595d:	74 f3                	je     5952 <jpeg_gen_optimal_table+0x1b9>
    595f:	41 8d 72 01          	lea    0x1(%r10),%esi
    5963:	83 ef 02             	sub    $0x2,%edi
    5966:	fe 40 1f             	incb   0x1f(%rax)
    5969:	49 89 d6             	mov    %rdx,%r14
    596c:	4c 63 c6             	movslq %esi,%r8
    596f:	40 88 78 20          	mov    %dil,0x20(%rax)
    5973:	42 80 84 04 17 08 00 	addb   $0x2,0x817(%rsp,%r8,1)
    597a:	00 02 
    597c:	42 fe 8c 14 17 08 00 	decb   0x817(%rsp,%r10,1)
    5983:	00 
    5984:	eb c1                	jmp    5947 <jpeg_gen_optimal_table+0x1ae>
    5986:	48 ff ca             	dec    %rdx
    5989:	48 ff c8             	dec    %rax
    598c:	48 83 fa 0e          	cmp    $0xe,%rdx
    5990:	49 89 d6             	mov    %rdx,%r14
    5993:	75 b2                	jne    5947 <jpeg_gen_optimal_table+0x1ae>
    5995:	41 bd 10 00 00 00    	mov    $0x10,%r13d
    599b:	4c 8d bc 24 18 08 00 	lea    0x818(%rsp),%r15
    59a2:	00 
    59a3:	4d 63 cd             	movslq %r13d,%r9
    59a6:	49 ff cd             	dec    %r13
    59a9:	47 8a 1c 2f          	mov    (%r15,%r13,1),%r11b
    59ad:	45 84 db             	test   %r11b,%r11b
    59b0:	74 f1                	je     59a3 <jpeg_gen_optimal_table+0x20a>
    59b2:	41 ff cb             	dec    %r11d
    59b5:	31 d2                	xor    %edx,%edx
    59b7:	b9 01 00 00 00       	mov    $0x1,%ecx
    59bc:	31 c0                	xor    %eax,%eax
    59be:	46 88 9c 0c 17 08 00 	mov    %r11b,0x817(%rsp,%r9,1)
    59c5:	00 
    59c6:	0f 10 45 00          	movups 0x0(%rbp),%xmm0
    59ca:	48 63 fa             	movslq %edx,%rdi
    59cd:	0f 11 03             	movups %xmm0,(%rbx)
    59d0:	40 8a 6d 10          	mov    0x10(%rbp),%bpl
    59d4:	40 88 6b 10          	mov    %bpl,0x10(%rbx)
    59d8:	eb 02                	jmp    59dc <jpeg_gen_optimal_table+0x243>
    59da:	eb 00                	jmp    59dc <jpeg_gen_optimal_table+0x243>
    59dc:	41 39 0c 84          	cmp    %ecx,(%r12,%rax,4)
    59e0:	75 06                	jne    59e8 <jpeg_gen_optimal_table+0x24f>
    59e2:	88 44 3b 11          	mov    %al,0x11(%rbx,%rdi,1)
    59e6:	ff c2                	inc    %edx
    59e8:	48 ff c0             	inc    %rax
    59eb:	48 63 fa             	movslq %edx,%rdi
    59ee:	48 3d 00 01 00 00    	cmp    $0x100,%rax
    59f4:	75 e4                	jne    59da <jpeg_gen_optimal_table+0x241>
    59f6:	ff c1                	inc    %ecx
    59f8:	31 c0                	xor    %eax,%eax
    59fa:	83 f9 21             	cmp    $0x21,%ecx
    59fd:	75 db                	jne    59da <jpeg_gen_optimal_table+0x241>
    59ff:	c7 83 14 01 00 00 00 	movl   $0x0,0x114(%rbx)
    5a06:	00 00 00 
    5a09:	48 8b 84 24 38 08 00 	mov    0x838(%rsp),%rax
    5a10:	00 
    5a11:	64 48 2b 04 25 28 00 	sub    %fs:0x28,%rax
    5a18:	00 00 
    5a1a:	74 05                	je     5a21 <jpeg_gen_optimal_table+0x288>
    5a1c:	e8 5f c8 ff ff       	call   2280 <__stack_chk_fail@plt>
    5a21:	48 81 c4 48 08 00 00 	add    $0x848,%rsp
    5a28:	5b                   	pop    %rbx
    5a29:	5d                   	pop    %rbp
    5a2a:	41 5c                	pop    %r12
    5a2c:	41 5d                	pop    %r13
    5a2e:	41 5e                	pop    %r14
    5a30:	41 5f                	pop    %r15
    5a32:	c3                   	ret    

0000000000005a33 <finish_pass_gather>:
    5a33:	f3 0f 1e fa          	endbr64 
    5a37:	41 57                	push   %r15
    5a39:	0f 57 c0             	xorps  %xmm0,%xmm0
    5a3c:	41 56                	push   %r14
    5a3e:	41 55                	push   %r13
    5a40:	41 54                	push   %r12
    5a42:	45 31 ed             	xor    %r13d,%r13d
    5a45:	55                   	push   %rbp
    5a46:	53                   	push   %rbx
    5a47:	48 89 fb             	mov    %rdi,%rbx
    5a4a:	48 83 ec 48          	sub    $0x48,%rsp
    5a4e:	64 48 8b 04 25 28 00 	mov    %fs:0x28,%rax
    5a55:	00 00 
    5a57:	48 89 44 24 38       	mov    %rax,0x38(%rsp)
    5a5c:	31 c0                	xor    %eax,%eax
    5a5e:	4c 8b b7 e8 01 00 00 	mov    0x1e8(%rdi),%r14
    5a65:	0f 11 44 24 18       	movups %xmm0,0x18(%rsp)
    5a6a:	0f 11 44 24 28       	movups %xmm0,0x28(%rsp)
    5a6f:	eb 02                	jmp    5a73 <finish_pass_gather+0x40>
    5a71:	eb 00                	jmp    5a73 <finish_pass_gather+0x40>
    5a73:	44 39 ab 3c 01 00 00 	cmp    %r13d,0x13c(%rbx)
    5a7a:	48 89 df             	mov    %rbx,%rdi
    5a7d:	0f 8e d4 00 00 00    	jle    5b57 <finish_pass_gather+0x124>
    5a83:	4a 8b 84 eb 40 01 00 	mov    0x140(%rbx,%r13,8),%rax
    5a8a:	00 
    5a8b:	4c 63 60 14          	movslq 0x14(%rax),%r12
    5a8f:	48 63 68 18          	movslq 0x18(%rax),%rbp
    5a93:	42 83 7c a4 18 00    	cmpl   $0x0,0x18(%rsp,%r12,4)
    5a99:	49 8d 4c 24 0e       	lea    0xe(%r12),%rcx
    5a9e:	49 89 ef             	mov    %rbp,%r15
    5aa1:	75 52                	jne    5af5 <finish_pass_gather+0xc2>
    5aa3:	4a 83 7c e3 78 00    	cmpq   $0x0,0x78(%rbx,%r12,8)
    5aa9:	75 29                	jne    5ad4 <finish_pass_gather+0xa1>
    5aab:	48 89 4c 24 08       	mov    %rcx,0x8(%rsp)
    5ab0:	49 63 ef             	movslq %r15d,%rbp
    5ab3:	e8 06 19 00 00       	call   73be <jpeg_alloc_huff_table>
    5ab8:	48 8b 74 24 08       	mov    0x8(%rsp),%rsi
    5abd:	4b 8b 94 e6 80 00 00 	mov    0x80(%r14,%r12,8),%rdx
    5ac4:	00 
    5ac5:	48 89 df             	mov    %rbx,%rdi
    5ac8:	48 89 44 f3 08       	mov    %rax,0x8(%rbx,%rsi,8)
    5acd:	4a 8b 74 e3 78       	mov    0x78(%rbx,%r12,8),%rsi
    5ad2:	eb 10                	jmp    5ae4 <finish_pass_gather+0xb1>
    5ad4:	4a 8b 74 e3 78       	mov    0x78(%rbx,%r12,8),%rsi
    5ad9:	4b 8b 94 e6 80 00 00 	mov    0x80(%r14,%r12,8),%rdx
    5ae0:	00 
    5ae1:	49 63 ef             	movslq %r15d,%rbp
    5ae4:	e8 b0 fc ff ff       	call   5799 <jpeg_gen_optimal_table>
    5ae9:	42 c7 44 a4 18 01 00 	movl   $0x1,0x18(%rsp,%r12,4)
    5af0:	00 00 
    5af2:	48 89 df             	mov    %rbx,%rdi
    5af5:	83 7c ac 28 00       	cmpl   $0x0,0x28(%rsp,%rbp,4)
    5afa:	4c 8d 65 12          	lea    0x12(%rbp),%r12
    5afe:	75 4f                	jne    5b4f <finish_pass_gather+0x11c>
    5b00:	48 83 bc eb 98 00 00 	cmpq   $0x0,0x98(%rbx,%rbp,8)
    5b07:	00 00 
    5b09:	75 1f                	jne    5b2a <finish_pass_gather+0xf7>
    5b0b:	e8 ae 18 00 00       	call   73be <jpeg_alloc_huff_table>
    5b10:	49 8b 94 ee a0 00 00 	mov    0xa0(%r14,%rbp,8),%rdx
    5b17:	00 
    5b18:	48 89 df             	mov    %rbx,%rdi
    5b1b:	4a 89 44 e3 08       	mov    %rax,0x8(%rbx,%r12,8)
    5b20:	48 8b b4 eb 98 00 00 	mov    0x98(%rbx,%rbp,8),%rsi
    5b27:	00 
    5b28:	eb 10                	jmp    5b3a <finish_pass_gather+0x107>
    5b2a:	48 8b b4 eb 98 00 00 	mov    0x98(%rbx,%rbp,8),%rsi
    5b31:	00 
    5b32:	49 8b 94 ee a0 00 00 	mov    0xa0(%r14,%rbp,8),%rdx
    5b39:	00 
    5b3a:	49 ff c5             	inc    %r13
    5b3d:	e8 57 fc ff ff       	call   5799 <jpeg_gen_optimal_table>
    5b42:	c7 44 ac 28 01 00 00 	movl   $0x1,0x28(%rsp,%rbp,4)
    5b49:	00 
    5b4a:	e9 22 ff ff ff       	jmp    5a71 <finish_pass_gather+0x3e>
    5b4f:	49 ff c5             	inc    %r13
    5b52:	e9 1a ff ff ff       	jmp    5a71 <finish_pass_gather+0x3e>
    5b57:	48 8b 44 24 38       	mov    0x38(%rsp),%rax
    5b5c:	64 48 2b 04 25 28 00 	sub    %fs:0x28,%rax
    5b63:	00 00 
    5b65:	74 05                	je     5b6c <finish_pass_gather+0x139>
    5b67:	e8 14 c7 ff ff       	call   2280 <__stack_chk_fail@plt>
    5b6c:	48 83 c4 48          	add    $0x48,%rsp
    5b70:	5b                   	pop    %rbx
    5b71:	5d                   	pop    %rbp
    5b72:	41 5c                	pop    %r12
    5b74:	41 5d                	pop    %r13
    5b76:	41 5e                	pop    %r14
    5b78:	41 5f                	pop    %r15
    5b7a:	c3                   	ret    

0000000000005b7b <jinit_huff_encoder>:
    5b7b:	f3 0f 1e fa          	endbr64 
    5b7f:	53                   	push   %rbx
    5b80:	48 8b 47 08          	mov    0x8(%rdi),%rax
    5b84:	48 89 fb             	mov    %rdi,%rbx
    5b87:	ba c0 00 00 00       	mov    $0xc0,%edx
    5b8c:	be 01 00 00 00       	mov    $0x1,%esi
    5b91:	ff 10                	call   *(%rax)
    5b93:	48 8d 15 e3 f4 ff ff 	lea    -0xb1d(%rip),%rdx        # 507d <start_pass_huff>
    5b9a:	31 f6                	xor    %esi,%esi
    5b9c:	48 8d 78 40          	lea    0x40(%rax),%rdi
    5ba0:	b9 20 00 00 00       	mov    $0x20,%ecx
    5ba5:	48 89 83 e8 01 00 00 	mov    %rax,0x1e8(%rbx)
    5bac:	48 89 10             	mov    %rdx,(%rax)
    5baf:	89 f0                	mov    %esi,%eax
    5bb1:	f3 ab                	rep stos %eax,%es:(%rdi)
    5bb3:	5b                   	pop    %rbx
    5bb4:	c3                   	ret    

0000000000005bb5 <__bswap_16>:
    5bb5:	f3 0f 1e fa          	endbr64 
    5bb9:	89 f8                	mov    %edi,%eax
    5bbb:	86 e0                	xchg   %ah,%al
    5bbd:	c3                   	ret    

0000000000005bbe <__bswap_32>:
    5bbe:	f3 0f 1e fa          	endbr64 
    5bc2:	89 f8                	mov    %edi,%eax
    5bc4:	0f c8                	bswap  %eax
    5bc6:	c3                   	ret    

0000000000005bc7 <__bswap_64>:
    5bc7:	f3 0f 1e fa          	endbr64 
    5bcb:	48 89 f8             	mov    %rdi,%rax
    5bce:	48 0f c8             	bswap  %rax
    5bd1:	c3                   	ret    

0000000000005bd2 <__uint16_identity>:
    5bd2:	f3 0f 1e fa          	endbr64 
    5bd6:	89 f8                	mov    %edi,%eax
    5bd8:	c3                   	ret    

0000000000005bd9 <__uint32_identity>:
    5bd9:	f3 0f 1e fa          	endbr64 
    5bdd:	89 f8                	mov    %edi,%eax
    5bdf:	c3                   	ret    

0000000000005be0 <__uint64_identity>:
    5be0:	f3 0f 1e fa          	endbr64 
    5be4:	48 89 f8             	mov    %rdi,%rax
    5be7:	c3                   	ret    

0000000000005be8 <jinit_compress_master>:
    5be8:	f3 0f 1e fa          	endbr64 
    5bec:	55                   	push   %rbp
    5bed:	48 89 fd             	mov    %rdi,%rbp
    5bf0:	31 f6                	xor    %esi,%esi
    5bf2:	e8 38 14 00 00       	call   702f <jinit_c_master_control>
    5bf7:	83 bd f8 00 00 00 00 	cmpl   $0x0,0xf8(%rbp)
    5bfe:	75 1a                	jne    5c1a <jinit_compress_master+0x32>
    5c00:	48 89 ef             	mov    %rbp,%rdi
    5c03:	e8 65 e8 ff ff       	call   446d <jinit_color_converter>
    5c08:	48 89 ef             	mov    %rbp,%rdi
    5c0b:	e8 b9 3a 00 00       	call   96c9 <jinit_downsampler>
    5c10:	48 89 ef             	mov    %rbp,%rdi
    5c13:	31 f6                	xor    %esi,%esi
    5c15:	e8 5d 31 00 00       	call   8d77 <jinit_c_prep_controller>
    5c1a:	48 89 ef             	mov    %rbp,%rdi
    5c1d:	e8 7e f0 ff ff       	call   4ca0 <jinit_forward_dct>
    5c22:	83 bd fc 00 00 00 00 	cmpl   $0x0,0xfc(%rbp)
    5c29:	74 12                	je     5c3d <jinit_compress_master+0x55>
    5c2b:	48 8b 45 00          	mov    0x0(%rbp),%rax
    5c2f:	48 89 ef             	mov    %rbp,%rdi
    5c32:	c7 40 28 01 00 00 00 	movl   $0x1,0x28(%rax)
    5c39:	ff 10                	call   *(%rax)
    5c3b:	eb 18                	jmp    5c55 <jinit_compress_master+0x6d>
    5c3d:	83 bd 2c 01 00 00 00 	cmpl   $0x0,0x12c(%rbp)
    5c44:	48 89 ef             	mov    %rbp,%rdi
    5c47:	74 07                	je     5c50 <jinit_compress_master+0x68>
    5c49:	e8 a0 2c 00 00       	call   88ee <jinit_phuff_encoder>
    5c4e:	eb 05                	jmp    5c55 <jinit_compress_master+0x6d>
    5c50:	e8 26 ff ff ff       	call   5b7b <jinit_huff_encoder>
    5c55:	83 bd e8 00 00 00 01 	cmpl   $0x1,0xe8(%rbp)
    5c5c:	be 01 00 00 00       	mov    $0x1,%esi
    5c61:	7f 0d                	jg     5c70 <jinit_compress_master+0x88>
    5c63:	31 f6                	xor    %esi,%esi
    5c65:	83 bd 00 01 00 00 00 	cmpl   $0x0,0x100(%rbp)
    5c6c:	40 0f 95 c6          	setne  %sil
    5c70:	48 89 ef             	mov    %rbp,%rdi
    5c73:	e8 ce e2 ff ff       	call   3f46 <jinit_c_coef_controller>
    5c78:	48 89 ef             	mov    %rbp,%rdi
    5c7b:	31 f6                	xor    %esi,%esi
    5c7d:	e8 66 01 00 00       	call   5de8 <jinit_c_main_controller>
    5c82:	48 89 ef             	mov    %rbp,%rdi
    5c85:	e8 4d 0a 00 00       	call   66d7 <jinit_marker_writer>
    5c8a:	48 8b 55 08          	mov    0x8(%rbp),%rdx
    5c8e:	48 89 ef             	mov    %rbp,%rdi
    5c91:	ff 52 30             	call   *0x30(%rdx)
    5c94:	48 8b 8d c8 01 00 00 	mov    0x1c8(%rbp),%rcx
    5c9b:	48 89 ef             	mov    %rbp,%rdi
    5c9e:	5d                   	pop    %rbp
    5c9f:	48 8b 71 08          	mov    0x8(%rcx),%rsi
    5ca3:	ff e6                	jmp    *%rsi

0000000000005ca5 <start_pass_main>:
    5ca5:	f3 0f 1e fa          	endbr64 
    5ca9:	83 bf f8 00 00 00 00 	cmpl   $0x0,0xf8(%rdi)
    5cb0:	75 35                	jne    5ce7 <start_pass_main+0x42>
    5cb2:	48 8b 87 b0 01 00 00 	mov    0x1b0(%rdi),%rax
    5cb9:	85 f6                	test   %esi,%esi
    5cbb:	48 c7 40 10 00 00 00 	movq   $0x0,0x10(%rax)
    5cc2:	00 
    5cc3:	c7 40 18 00 00 00 00 	movl   $0x0,0x18(%rax)
    5cca:	89 70 1c             	mov    %esi,0x1c(%rax)
    5ccd:	75 0c                	jne    5cdb <start_pass_main+0x36>
    5ccf:	48 8d 15 12 00 00 00 	lea    0x12(%rip),%rdx        # 5ce8 <process_data_simple_main>
    5cd6:	48 89 50 08          	mov    %rdx,0x8(%rax)
    5cda:	c3                   	ret    
    5cdb:	48 8b 0f             	mov    (%rdi),%rcx
    5cde:	c7 41 28 04 00 00 00 	movl   $0x4,0x28(%rcx)
    5ce5:	ff 21                	jmp    *(%rcx)
    5ce7:	c3                   	ret    

0000000000005ce8 <process_data_simple_main>:
    5ce8:	f3 0f 1e fa          	endbr64 
    5cec:	41 57                	push   %r15
    5cee:	41 56                	push   %r14
    5cf0:	41 55                	push   %r13
    5cf2:	41 89 ce             	mov    %ecx,%r14d
    5cf5:	49 89 f5             	mov    %rsi,%r13
    5cf8:	41 54                	push   %r12
    5cfa:	55                   	push   %rbp
    5cfb:	49 89 d4             	mov    %rdx,%r12
    5cfe:	48 89 fd             	mov    %rdi,%rbp
    5d01:	53                   	push   %rbx
    5d02:	50                   	push   %rax
    5d03:	48 8b 9f b0 01 00 00 	mov    0x1b0(%rdi),%rbx
    5d0a:	8b 85 38 01 00 00    	mov    0x138(%rbp),%eax
    5d10:	4c 8d 7b 14          	lea    0x14(%rbx),%r15
    5d14:	4c 8d 43 20          	lea    0x20(%rbx),%r8
    5d18:	4d 89 f9             	mov    %r15,%r9
    5d1b:	39 43 10             	cmp    %eax,0x10(%rbx)
    5d1e:	0f 83 85 00 00 00    	jae    5da9 <process_data_simple_main+0xc1>
    5d24:	83 7b 14 07          	cmpl   $0x7,0x14(%rbx)
    5d28:	77 1b                	ja     5d45 <process_data_simple_main+0x5d>
    5d2a:	41 52                	push   %r10
    5d2c:	4c 8b 95 b8 01 00 00 	mov    0x1b8(%rbp),%r10
    5d33:	6a 08                	push   $0x8
    5d35:	41 ff 52 08          	call   *0x8(%r10)
    5d39:	48 8d 73 20          	lea    0x20(%rbx),%rsi
    5d3d:	48 89 ef             	mov    %rbp,%rdi
    5d40:	41 5b                	pop    %r11
    5d42:	58                   	pop    %rax
    5d43:	eb 04                	jmp    5d49 <process_data_simple_main+0x61>
    5d45:	48 8d 73 20          	lea    0x20(%rbx),%rsi
    5d49:	83 7b 14 08          	cmpl   $0x8,0x14(%rbx)
    5d4d:	75 5a                	jne    5da9 <process_data_simple_main+0xc1>
    5d4f:	48 8b 85 c0 01 00 00 	mov    0x1c0(%rbp),%rax
    5d56:	ff 50 08             	call   *0x8(%rax)
    5d59:	85 c0                	test   %eax,%eax
    5d5b:	4d 89 f9             	mov    %r15,%r9
    5d5e:	4c 8d 43 20          	lea    0x20(%rbx),%r8
    5d62:	44 89 f1             	mov    %r14d,%ecx
    5d65:	4c 89 e2             	mov    %r12,%rdx
    5d68:	4c 89 ee             	mov    %r13,%rsi
    5d6b:	48 89 ef             	mov    %rbp,%rdi
    5d6e:	75 13                	jne    5d83 <process_data_simple_main+0x9b>
    5d70:	83 7b 18 00          	cmpl   $0x0,0x18(%rbx)
    5d74:	75 33                	jne    5da9 <process_data_simple_main+0xc1>
    5d76:	41 ff 0c 24          	decl   (%r12)
    5d7a:	c7 43 18 01 00 00 00 	movl   $0x1,0x18(%rbx)
    5d81:	eb 26                	jmp    5da9 <process_data_simple_main+0xc1>
    5d83:	83 7b 18 00          	cmpl   $0x0,0x18(%rbx)
    5d87:	74 0b                	je     5d94 <process_data_simple_main+0xac>
    5d89:	41 ff 04 24          	incl   (%r12)
    5d8d:	c7 43 18 00 00 00 00 	movl   $0x0,0x18(%rbx)
    5d94:	c7 43 14 00 00 00 00 	movl   $0x0,0x14(%rbx)
    5d9b:	8b 85 38 01 00 00    	mov    0x138(%rbp),%eax
    5da1:	ff 43 10             	incl   0x10(%rbx)
    5da4:	e9 72 ff ff ff       	jmp    5d1b <process_data_simple_main+0x33>
    5da9:	58                   	pop    %rax
    5daa:	5b                   	pop    %rbx
    5dab:	5d                   	pop    %rbp
    5dac:	41 5c                	pop    %r12
    5dae:	41 5d                	pop    %r13
    5db0:	41 5e                	pop    %r14
    5db2:	41 5f                	pop    %r15
    5db4:	c3                   	ret    

0000000000005db5 <__bswap_16>:
    5db5:	f3 0f 1e fa          	endbr64 
    5db9:	89 f8                	mov    %edi,%eax
    5dbb:	86 e0                	xchg   %ah,%al
    5dbd:	c3                   	ret    

0000000000005dbe <__bswap_32>:
    5dbe:	f3 0f 1e fa          	endbr64 
    5dc2:	89 f8                	mov    %edi,%eax
    5dc4:	0f c8                	bswap  %eax
    5dc6:	c3                   	ret    

0000000000005dc7 <__bswap_64>:
    5dc7:	f3 0f 1e fa          	endbr64 
    5dcb:	48 89 f8             	mov    %rdi,%rax
    5dce:	48 0f c8             	bswap  %rax
    5dd1:	c3                   	ret    

0000000000005dd2 <__uint16_identity>:
    5dd2:	f3 0f 1e fa          	endbr64 
    5dd6:	89 f8                	mov    %edi,%eax
    5dd8:	c3                   	ret    

0000000000005dd9 <__uint32_identity>:
    5dd9:	f3 0f 1e fa          	endbr64 
    5ddd:	89 f8                	mov    %edi,%eax
    5ddf:	c3                   	ret    

0000000000005de0 <__uint64_identity>:
    5de0:	f3 0f 1e fa          	endbr64 
    5de4:	48 89 f8             	mov    %rdi,%rax
    5de7:	c3                   	ret    

0000000000005de8 <jinit_c_main_controller>:
    5de8:	f3 0f 1e fa          	endbr64 
    5dec:	41 55                	push   %r13
    5dee:	ba 70 00 00 00       	mov    $0x70,%edx
    5df3:	41 54                	push   %r12
    5df5:	55                   	push   %rbp
    5df6:	48 89 fd             	mov    %rdi,%rbp
    5df9:	41 89 f4             	mov    %esi,%r12d
    5dfc:	53                   	push   %rbx
    5dfd:	be 01 00 00 00       	mov    $0x1,%esi
    5e02:	51                   	push   %rcx
    5e03:	48 8b 47 08          	mov    0x8(%rdi),%rax
    5e07:	ff 10                	call   *(%rax)
    5e09:	48 8d 15 95 fe ff ff 	lea    -0x16b(%rip),%rdx        # 5ca5 <start_pass_main>
    5e10:	83 bd f8 00 00 00 00 	cmpl   $0x0,0xf8(%rbp)
    5e17:	48 89 c3             	mov    %rax,%rbx
    5e1a:	48 89 85 b0 01 00 00 	mov    %rax,0x1b0(%rbp)
    5e21:	48 89 10             	mov    %rdx,(%rax)
    5e24:	75 5f                	jne    5e85 <jinit_c_main_controller+0x9d>
    5e26:	45 85 e4             	test   %r12d,%r12d
    5e29:	74 1a                	je     5e45 <jinit_c_main_controller+0x5d>
    5e2b:	48 8b 4d 00          	mov    0x0(%rbp),%rcx
    5e2f:	48 89 ef             	mov    %rbp,%rdi
    5e32:	c7 41 28 04 00 00 00 	movl   $0x4,0x28(%rcx)
    5e39:	48 8b 31             	mov    (%rcx),%rsi
    5e3c:	5a                   	pop    %rdx
    5e3d:	5b                   	pop    %rbx
    5e3e:	5d                   	pop    %rbp
    5e3f:	41 5c                	pop    %r12
    5e41:	41 5d                	pop    %r13
    5e43:	ff e6                	jmp    *%rsi
    5e45:	4c 8b 6d 50          	mov    0x50(%rbp),%r13
    5e49:	be 01 00 00 00       	mov    $0x1,%esi
    5e4e:	48 89 ef             	mov    %rbp,%rdi
    5e51:	45 31 e4             	xor    %r12d,%r12d
    5e54:	44 39 65 44          	cmp    %r12d,0x44(%rbp)
    5e58:	7e 2b                	jle    5e85 <jinit_c_main_controller+0x9d>
    5e5a:	41 8b 4d 0c          	mov    0xc(%r13),%ecx
    5e5e:	41 8b 55 1c          	mov    0x1c(%r13),%edx
    5e62:	48 8b 45 08          	mov    0x8(%rbp),%rax
    5e66:	49 83 c5 60          	add    $0x60,%r13
    5e6a:	c1 e1 03             	shl    $0x3,%ecx
    5e6d:	c1 e2 03             	shl    $0x3,%edx
    5e70:	ff 50 10             	call   *0x10(%rax)
    5e73:	be 01 00 00 00       	mov    $0x1,%esi
    5e78:	48 89 ef             	mov    %rbp,%rdi
    5e7b:	4a 89 44 e3 20       	mov    %rax,0x20(%rbx,%r12,8)
    5e80:	49 ff c4             	inc    %r12
    5e83:	eb cf                	jmp    5e54 <jinit_c_main_controller+0x6c>
    5e85:	58                   	pop    %rax
    5e86:	5b                   	pop    %rbx
    5e87:	5d                   	pop    %rbp
    5e88:	41 5c                	pop    %r12
    5e8a:	41 5d                	pop    %r13
    5e8c:	c3                   	ret    

0000000000005e8d <emit_byte>:
    5e8d:	48 8b 47 20          	mov    0x20(%rdi),%rax
    5e91:	48 8b 10             	mov    (%rax),%rdx
    5e94:	48 8d 4a 01          	lea    0x1(%rdx),%rcx
    5e98:	48 89 08             	mov    %rcx,(%rax)
    5e9b:	40 88 32             	mov    %sil,(%rdx)
    5e9e:	48 8b 70 08          	mov    0x8(%rax),%rsi
    5ea2:	4c 8d 46 ff          	lea    -0x1(%rsi),%r8
    5ea6:	4d 85 c0             	test   %r8,%r8
    5ea9:	4c 89 40 08          	mov    %r8,0x8(%rax)
    5ead:	75 2f                	jne    5ede <emit_byte+0x51>
    5eaf:	48 83 ec 18          	sub    $0x18,%rsp
    5eb3:	48 89 7c 24 08       	mov    %rdi,0x8(%rsp)
    5eb8:	ff 50 18             	call   *0x18(%rax)
    5ebb:	85 c0                	test   %eax,%eax
    5ebd:	75 1a                	jne    5ed9 <emit_byte+0x4c>
    5ebf:	48 8b 7c 24 08       	mov    0x8(%rsp),%rdi
    5ec4:	4c 8b 0f             	mov    (%rdi),%r9
    5ec7:	41 c7 41 28 16 00 00 	movl   $0x16,0x28(%r9)
    5ece:	00 
    5ecf:	4d 8b 11             	mov    (%r9),%r10
    5ed2:	48 83 c4 18          	add    $0x18,%rsp
    5ed6:	41 ff e2             	jmp    *%r10
    5ed9:	48 83 c4 18          	add    $0x18,%rsp
    5edd:	c3                   	ret    
    5ede:	c3                   	ret    

0000000000005edf <emit_marker>:
    5edf:	41 54                	push   %r12
    5ee1:	41 89 f4             	mov    %esi,%r12d
    5ee4:	be ff 00 00 00       	mov    $0xff,%esi
    5ee9:	48 83 ec 10          	sub    $0x10,%rsp
    5eed:	48 89 7c 24 08       	mov    %rdi,0x8(%rsp)
    5ef2:	e8 96 ff ff ff       	call   5e8d <emit_byte>
    5ef7:	48 8b 7c 24 08       	mov    0x8(%rsp),%rdi
    5efc:	48 83 c4 10          	add    $0x10,%rsp
    5f00:	44 89 e6             	mov    %r12d,%esi
    5f03:	41 5c                	pop    %r12
    5f05:	e9 83 ff ff ff       	jmp    5e8d <emit_byte>

0000000000005f0a <emit_2bytes>:
    5f0a:	55                   	push   %rbp
    5f0b:	89 f0                	mov    %esi,%eax
    5f0d:	0f b6 f4             	movzbl %ah,%esi
    5f10:	0f b6 e8             	movzbl %al,%ebp
    5f13:	48 83 ec 10          	sub    $0x10,%rsp
    5f17:	48 89 7c 24 08       	mov    %rdi,0x8(%rsp)
    5f1c:	e8 6c ff ff ff       	call   5e8d <emit_byte>
    5f21:	48 8b 7c 24 08       	mov    0x8(%rsp),%rdi
    5f26:	48 83 c4 10          	add    $0x10,%rsp
    5f2a:	89 ee                	mov    %ebp,%esi
    5f2c:	5d                   	pop    %rbp
    5f2d:	e9 5b ff ff ff       	jmp    5e8d <emit_byte>

0000000000005f32 <emit_dqt>:
    5f32:	48 63 c6             	movslq %esi,%rax
    5f35:	41 57                	push   %r15
    5f37:	41 56                	push   %r14
    5f39:	49 89 c7             	mov    %rax,%r15
    5f3c:	41 55                	push   %r13
    5f3e:	41 54                	push   %r12
    5f40:	55                   	push   %rbp
    5f41:	53                   	push   %rbx
    5f42:	51                   	push   %rcx
    5f43:	4c 8b 6c c7 58       	mov    0x58(%rdi,%rax,8),%r13
    5f48:	48 89 fb             	mov    %rdi,%rbx
    5f4b:	4d 85 ed             	test   %r13,%r13
    5f4e:	75 0f                	jne    5f5f <emit_dqt+0x2d>
    5f50:	48 8b 17             	mov    (%rdi),%rdx
    5f53:	c7 42 28 33 00 00 00 	movl   $0x33,0x28(%rdx)
    5f5a:	89 42 2c             	mov    %eax,0x2c(%rdx)
    5f5d:	ff 12                	call   *(%rdx)
    5f5f:	be 01 00 00 00       	mov    $0x1,%esi
    5f64:	31 c9                	xor    %ecx,%ecx
    5f66:	45 31 e4             	xor    %r12d,%r12d
    5f69:	66 41 81 7c 4d 00 ff 	cmpw   $0xff,0x0(%r13,%rcx,2)
    5f70:	00 
    5f71:	44 0f 47 e6          	cmova  %esi,%r12d
    5f75:	48 ff c1             	inc    %rcx
    5f78:	48 83 f9 40          	cmp    $0x40,%rcx
    5f7c:	75 eb                	jne    5f69 <emit_dqt+0x37>
    5f7e:	41 83 bd 80 00 00 00 	cmpl   $0x0,0x80(%r13)
    5f85:	00 
    5f86:	0f 85 94 00 00 00    	jne    6020 <emit_dqt+0xee>
    5f8c:	be db 00 00 00       	mov    $0xdb,%esi
    5f91:	48 89 df             	mov    %rbx,%rdi
    5f94:	48 8d 2d e5 76 01 00 	lea    0x176e5(%rip),%rbp        # 1d680 <jpeg_natural_order>
    5f9b:	e8 3f ff ff ff       	call   5edf <emit_marker>
    5fa0:	41 83 fc 01          	cmp    $0x1,%r12d
    5fa4:	48 89 df             	mov    %rbx,%rdi
    5fa7:	19 f6                	sbb    %esi,%esi
    5fa9:	4c 8d b5 00 01 00 00 	lea    0x100(%rbp),%r14
    5fb0:	83 e6 c0             	and    $0xffffffc0,%esi
    5fb3:	81 c6 83 00 00 00    	add    $0x83,%esi
    5fb9:	e8 4c ff ff ff       	call   5f0a <emit_2bytes>
    5fbe:	44 89 e6             	mov    %r12d,%esi
    5fc1:	48 89 df             	mov    %rbx,%rdi
    5fc4:	c1 e6 04             	shl    $0x4,%esi
    5fc7:	44 01 fe             	add    %r15d,%esi
    5fca:	e8 be fe ff ff       	call   5e8d <emit_byte>
    5fcf:	48 89 df             	mov    %rbx,%rdi
    5fd2:	4c 63 45 00          	movslq 0x0(%rbp),%r8
    5fd6:	45 85 e4             	test   %r12d,%r12d
    5fd9:	66 47 8b 4c 45 00    	mov    0x0(%r13,%r8,2),%r9w
    5fdf:	74 1c                	je     5ffd <emit_dqt+0xcb>
    5fe1:	41 0f b7 f1          	movzwl %r9w,%esi
    5fe5:	48 89 df             	mov    %rbx,%rdi
    5fe8:	45 0f b6 f9          	movzbl %r9b,%r15d
    5fec:	48 83 c5 04          	add    $0x4,%rbp
    5ff0:	c1 ee 08             	shr    $0x8,%esi
    5ff3:	e8 95 fe ff ff       	call   5e8d <emit_byte>
    5ff8:	48 89 df             	mov    %rbx,%rdi
    5ffb:	eb 08                	jmp    6005 <emit_dqt+0xd3>
    5ffd:	45 0f b6 f9          	movzbl %r9b,%r15d
    6001:	48 83 c5 04          	add    $0x4,%rbp
    6005:	44 89 fe             	mov    %r15d,%esi
    6008:	e8 80 fe ff ff       	call   5e8d <emit_byte>
    600d:	49 39 ee             	cmp    %rbp,%r14
    6010:	48 89 df             	mov    %rbx,%rdi
    6013:	75 bd                	jne    5fd2 <emit_dqt+0xa0>
    6015:	41 c7 85 80 00 00 00 	movl   $0x1,0x80(%r13)
    601c:	01 00 00 00 
    6020:	44 89 e0             	mov    %r12d,%eax
    6023:	5a                   	pop    %rdx
    6024:	5b                   	pop    %rbx
    6025:	5d                   	pop    %rbp
    6026:	41 5c                	pop    %r12
    6028:	41 5d                	pop    %r13
    602a:	41 5e                	pop    %r14
    602c:	41 5f                	pop    %r15
    602e:	c3                   	ret    

000000000000602f <emit_dht>:
    602f:	48 63 c6             	movslq %esi,%rax
    6032:	85 d2                	test   %edx,%edx
    6034:	41 56                	push   %r14
    6036:	41 55                	push   %r13
    6038:	49 89 c5             	mov    %rax,%r13
    603b:	41 54                	push   %r12
    603d:	55                   	push   %rbp
    603e:	53                   	push   %rbx
    603f:	48 89 fb             	mov    %rdi,%rbx
    6042:	74 0e                	je     6052 <emit_dht+0x23>
    6044:	4c 8b a4 c7 98 00 00 	mov    0x98(%rdi,%rax,8),%r12
    604b:	00 
    604c:	41 83 c5 10          	add    $0x10,%r13d
    6050:	eb 05                	jmp    6057 <emit_dht+0x28>
    6052:	4c 8b 64 c7 78       	mov    0x78(%rdi,%rax,8),%r12
    6057:	4d 85 e4             	test   %r12,%r12
    605a:	75 13                	jne    606f <emit_dht+0x40>
    605c:	48 8b 13             	mov    (%rbx),%rdx
    605f:	48 89 df             	mov    %rbx,%rdi
    6062:	c7 42 28 31 00 00 00 	movl   $0x31,0x28(%rdx)
    6069:	44 89 6a 2c          	mov    %r13d,0x2c(%rdx)
    606d:	ff 12                	call   *(%rdx)
    606f:	41 8b ac 24 14 01 00 	mov    0x114(%r12),%ebp
    6076:	00 
    6077:	85 ed                	test   %ebp,%ebp
    6079:	0f 85 80 00 00 00    	jne    60ff <emit_dht+0xd0>
    607f:	be c4 00 00 00       	mov    $0xc4,%esi
    6084:	48 89 df             	mov    %rbx,%rdi
    6087:	e8 53 fe ff ff       	call   5edf <emit_marker>
    608c:	b9 01 00 00 00       	mov    $0x1,%ecx
    6091:	41 0f b6 34 0c       	movzbl (%r12,%rcx,1),%esi
    6096:	48 ff c1             	inc    %rcx
    6099:	01 f5                	add    %esi,%ebp
    609b:	48 83 f9 11          	cmp    $0x11,%rcx
    609f:	75 f0                	jne    6091 <emit_dht+0x62>
    60a1:	48 89 df             	mov    %rbx,%rdi
    60a4:	8d 75 13             	lea    0x13(%rbp),%esi
    60a7:	41 be 01 00 00 00    	mov    $0x1,%r14d
    60ad:	e8 58 fe ff ff       	call   5f0a <emit_2bytes>
    60b2:	44 89 ee             	mov    %r13d,%esi
    60b5:	48 89 df             	mov    %rbx,%rdi
    60b8:	e8 d0 fd ff ff       	call   5e8d <emit_byte>
    60bd:	43 0f b6 34 34       	movzbl (%r12,%r14,1),%esi
    60c2:	48 89 df             	mov    %rbx,%rdi
    60c5:	49 ff c6             	inc    %r14
    60c8:	e8 c0 fd ff ff       	call   5e8d <emit_byte>
    60cd:	49 83 fe 11          	cmp    $0x11,%r14
    60d1:	75 ea                	jne    60bd <emit_dht+0x8e>
    60d3:	48 63 ed             	movslq %ebp,%rbp
    60d6:	4d 89 e5             	mov    %r12,%r13
    60d9:	4c 01 e5             	add    %r12,%rbp
    60dc:	4c 39 ed             	cmp    %r13,%rbp
    60df:	48 89 df             	mov    %rbx,%rdi
    60e2:	74 0f                	je     60f3 <emit_dht+0xc4>
    60e4:	41 0f b6 75 11       	movzbl 0x11(%r13),%esi
    60e9:	49 ff c5             	inc    %r13
    60ec:	e8 9c fd ff ff       	call   5e8d <emit_byte>
    60f1:	eb e9                	jmp    60dc <emit_dht+0xad>
    60f3:	41 c7 84 24 14 01 00 	movl   $0x1,0x114(%r12)
    60fa:	00 01 00 00 00 
    60ff:	5b                   	pop    %rbx
    6100:	5d                   	pop    %rbp
    6101:	41 5c                	pop    %r12
    6103:	41 5d                	pop    %r13
    6105:	41 5e                	pop    %r14
    6107:	c3                   	ret    

0000000000006108 <emit_sof>:
    6108:	41 54                	push   %r12
    610a:	55                   	push   %rbp
    610b:	53                   	push   %rbx
    610c:	48 89 fb             	mov    %rdi,%rbx
    610f:	e8 cb fd ff ff       	call   5edf <emit_marker>
    6114:	6b 73 44 03          	imul   $0x3,0x44(%rbx),%esi
    6118:	48 89 df             	mov    %rbx,%rdi
    611b:	83 c6 08             	add    $0x8,%esi
    611e:	e8 e7 fd ff ff       	call   5f0a <emit_2bytes>
    6123:	81 7b 2c ff ff 00 00 	cmpl   $0xffff,0x2c(%rbx)
    612a:	77 09                	ja     6135 <emit_sof+0x2d>
    612c:	81 7b 28 ff ff 00 00 	cmpl   $0xffff,0x28(%rbx)
    6133:	76 16                	jbe    614b <emit_sof+0x43>
    6135:	48 ba 28 00 00 00 ff 	movabs $0xffff00000028,%rdx
    613c:	ff 00 00 
    613f:	48 8b 03             	mov    (%rbx),%rax
    6142:	48 89 df             	mov    %rbx,%rdi
    6145:	48 89 50 28          	mov    %rdx,0x28(%rax)
    6149:	ff 10                	call   *(%rax)
    614b:	8b 73 40             	mov    0x40(%rbx),%esi
    614e:	48 89 df             	mov    %rbx,%rdi
    6151:	45 31 e4             	xor    %r12d,%r12d
    6154:	e8 34 fd ff ff       	call   5e8d <emit_byte>
    6159:	8b 73 2c             	mov    0x2c(%rbx),%esi
    615c:	48 89 df             	mov    %rbx,%rdi
    615f:	e8 a6 fd ff ff       	call   5f0a <emit_2bytes>
    6164:	8b 73 28             	mov    0x28(%rbx),%esi
    6167:	48 89 df             	mov    %rbx,%rdi
    616a:	e8 9b fd ff ff       	call   5f0a <emit_2bytes>
    616f:	8b 73 44             	mov    0x44(%rbx),%esi
    6172:	48 89 df             	mov    %rbx,%rdi
    6175:	e8 13 fd ff ff       	call   5e8d <emit_byte>
    617a:	48 8b 6b 50          	mov    0x50(%rbx),%rbp
    617e:	44 39 63 44          	cmp    %r12d,0x44(%rbx)
    6182:	48 89 df             	mov    %rbx,%rdi
    6185:	7e 2d                	jle    61b4 <emit_sof+0xac>
    6187:	8b 75 00             	mov    0x0(%rbp),%esi
    618a:	41 ff c4             	inc    %r12d
    618d:	e8 fb fc ff ff       	call   5e8d <emit_byte>
    6192:	8b 75 08             	mov    0x8(%rbp),%esi
    6195:	48 89 df             	mov    %rbx,%rdi
    6198:	c1 e6 04             	shl    $0x4,%esi
    619b:	03 75 0c             	add    0xc(%rbp),%esi
    619e:	e8 ea fc ff ff       	call   5e8d <emit_byte>
    61a3:	8b 75 10             	mov    0x10(%rbp),%esi
    61a6:	48 89 df             	mov    %rbx,%rdi
    61a9:	48 83 c5 60          	add    $0x60,%rbp
    61ad:	e8 db fc ff ff       	call   5e8d <emit_byte>
    61b2:	eb ca                	jmp    617e <emit_sof+0x76>
    61b4:	5b                   	pop    %rbx
    61b5:	5d                   	pop    %rbp
    61b6:	41 5c                	pop    %r12
    61b8:	c3                   	ret    

00000000000061b9 <write_any_marker>:
    61b9:	f3 0f 1e fa          	endbr64 
    61bd:	81 f9 fd ff 00 00    	cmp    $0xfffd,%ecx
    61c3:	77 43                	ja     6208 <write_any_marker+0x4f>
    61c5:	41 55                	push   %r13
    61c7:	41 54                	push   %r12
    61c9:	49 89 fc             	mov    %rdi,%r12
    61cc:	41 89 cd             	mov    %ecx,%r13d
    61cf:	55                   	push   %rbp
    61d0:	53                   	push   %rbx
    61d1:	89 cd                	mov    %ecx,%ebp
    61d3:	48 89 d3             	mov    %rdx,%rbx
    61d6:	41 50                	push   %r8
    61d8:	49 01 dd             	add    %rbx,%r13
    61db:	e8 ff fc ff ff       	call   5edf <emit_marker>
    61e0:	4c 89 e7             	mov    %r12,%rdi
    61e3:	8d 75 02             	lea    0x2(%rbp),%esi
    61e6:	e8 1f fd ff ff       	call   5f0a <emit_2bytes>
    61eb:	4c 39 eb             	cmp    %r13,%rbx
    61ee:	4c 89 e7             	mov    %r12,%rdi
