
a.out：     文件格式 elf64-x86-64


Disassembly of section .init:

0000000000001000 <_init>:
    1000:	f3 0f 1e fa          	endbr64 
    1004:	48 83 ec 08          	sub    $0x8,%rsp
    1008:	48 8b 05 d9 7f 00 00 	mov    0x7fd9(%rip),%rax        # 8fe8 <__gmon_start__@Base>
    100f:	48 85 c0             	test   %rax,%rax
    1012:	74 02                	je     1016 <_init+0x16>
    1014:	ff d0                	call   *%rax
    1016:	48 83 c4 08          	add    $0x8,%rsp
    101a:	c3                   	ret    

Disassembly of section .plt:

0000000000001020 <.plt>:
    1020:	ff 35 ca 7e 00 00    	push   0x7eca(%rip)        # 8ef0 <_GLOBAL_OFFSET_TABLE_+0x8>
    1026:	f2 ff 25 cb 7e 00 00 	bnd jmp *0x7ecb(%rip)        # 8ef8 <_GLOBAL_OFFSET_TABLE_+0x10>
    102d:	0f 1f 00             	nopl   (%rax)
    1030:	f3 0f 1e fa          	endbr64 
    1034:	68 00 00 00 00       	push   $0x0
    1039:	f2 e9 e1 ff ff ff    	bnd jmp 1020 <_init+0x20>
    103f:	90                   	nop
    1040:	f3 0f 1e fa          	endbr64 
    1044:	68 01 00 00 00       	push   $0x1
    1049:	f2 e9 d1 ff ff ff    	bnd jmp 1020 <_init+0x20>
    104f:	90                   	nop
    1050:	f3 0f 1e fa          	endbr64 
    1054:	68 02 00 00 00       	push   $0x2
    1059:	f2 e9 c1 ff ff ff    	bnd jmp 1020 <_init+0x20>
    105f:	90                   	nop
    1060:	f3 0f 1e fa          	endbr64 
    1064:	68 03 00 00 00       	push   $0x3
    1069:	f2 e9 b1 ff ff ff    	bnd jmp 1020 <_init+0x20>
    106f:	90                   	nop
    1070:	f3 0f 1e fa          	endbr64 
    1074:	68 04 00 00 00       	push   $0x4
    1079:	f2 e9 a1 ff ff ff    	bnd jmp 1020 <_init+0x20>
    107f:	90                   	nop
    1080:	f3 0f 1e fa          	endbr64 
    1084:	68 05 00 00 00       	push   $0x5
    1089:	f2 e9 91 ff ff ff    	bnd jmp 1020 <_init+0x20>
    108f:	90                   	nop
    1090:	f3 0f 1e fa          	endbr64 
    1094:	68 06 00 00 00       	push   $0x6
    1099:	f2 e9 81 ff ff ff    	bnd jmp 1020 <_init+0x20>
    109f:	90                   	nop
    10a0:	f3 0f 1e fa          	endbr64 
    10a4:	68 07 00 00 00       	push   $0x7
    10a9:	f2 e9 71 ff ff ff    	bnd jmp 1020 <_init+0x20>
    10af:	90                   	nop
    10b0:	f3 0f 1e fa          	endbr64 
    10b4:	68 08 00 00 00       	push   $0x8
    10b9:	f2 e9 61 ff ff ff    	bnd jmp 1020 <_init+0x20>
    10bf:	90                   	nop
    10c0:	f3 0f 1e fa          	endbr64 
    10c4:	68 09 00 00 00       	push   $0x9
    10c9:	f2 e9 51 ff ff ff    	bnd jmp 1020 <_init+0x20>
    10cf:	90                   	nop
    10d0:	f3 0f 1e fa          	endbr64 
    10d4:	68 0a 00 00 00       	push   $0xa
    10d9:	f2 e9 41 ff ff ff    	bnd jmp 1020 <_init+0x20>
    10df:	90                   	nop
    10e0:	f3 0f 1e fa          	endbr64 
    10e4:	68 0b 00 00 00       	push   $0xb
    10e9:	f2 e9 31 ff ff ff    	bnd jmp 1020 <_init+0x20>
    10ef:	90                   	nop
    10f0:	f3 0f 1e fa          	endbr64 
    10f4:	68 0c 00 00 00       	push   $0xc
    10f9:	f2 e9 21 ff ff ff    	bnd jmp 1020 <_init+0x20>
    10ff:	90                   	nop
    1100:	f3 0f 1e fa          	endbr64 
    1104:	68 0d 00 00 00       	push   $0xd
    1109:	f2 e9 11 ff ff ff    	bnd jmp 1020 <_init+0x20>
    110f:	90                   	nop
    1110:	f3 0f 1e fa          	endbr64 
    1114:	68 0e 00 00 00       	push   $0xe
    1119:	f2 e9 01 ff ff ff    	bnd jmp 1020 <_init+0x20>
    111f:	90                   	nop
    1120:	f3 0f 1e fa          	endbr64 
    1124:	68 0f 00 00 00       	push   $0xf
    1129:	f2 e9 f1 fe ff ff    	bnd jmp 1020 <_init+0x20>
    112f:	90                   	nop
    1130:	f3 0f 1e fa          	endbr64 
    1134:	68 10 00 00 00       	push   $0x10
    1139:	f2 e9 e1 fe ff ff    	bnd jmp 1020 <_init+0x20>
    113f:	90                   	nop
    1140:	f3 0f 1e fa          	endbr64 
    1144:	68 11 00 00 00       	push   $0x11
    1149:	f2 e9 d1 fe ff ff    	bnd jmp 1020 <_init+0x20>
    114f:	90                   	nop
    1150:	f3 0f 1e fa          	endbr64 
    1154:	68 12 00 00 00       	push   $0x12
    1159:	f2 e9 c1 fe ff ff    	bnd jmp 1020 <_init+0x20>
    115f:	90                   	nop
    1160:	f3 0f 1e fa          	endbr64 
    1164:	68 13 00 00 00       	push   $0x13
    1169:	f2 e9 b1 fe ff ff    	bnd jmp 1020 <_init+0x20>
    116f:	90                   	nop
    1170:	f3 0f 1e fa          	endbr64 
    1174:	68 14 00 00 00       	push   $0x14
    1179:	f2 e9 a1 fe ff ff    	bnd jmp 1020 <_init+0x20>
    117f:	90                   	nop
    1180:	f3 0f 1e fa          	endbr64 
    1184:	68 15 00 00 00       	push   $0x15
    1189:	f2 e9 91 fe ff ff    	bnd jmp 1020 <_init+0x20>
    118f:	90                   	nop
    1190:	f3 0f 1e fa          	endbr64 
    1194:	68 16 00 00 00       	push   $0x16
    1199:	f2 e9 81 fe ff ff    	bnd jmp 1020 <_init+0x20>
    119f:	90                   	nop
    11a0:	f3 0f 1e fa          	endbr64 
    11a4:	68 17 00 00 00       	push   $0x17
    11a9:	f2 e9 71 fe ff ff    	bnd jmp 1020 <_init+0x20>
    11af:	90                   	nop
    11b0:	f3 0f 1e fa          	endbr64 
    11b4:	68 18 00 00 00       	push   $0x18
    11b9:	f2 e9 61 fe ff ff    	bnd jmp 1020 <_init+0x20>
    11bf:	90                   	nop
    11c0:	f3 0f 1e fa          	endbr64 
    11c4:	68 19 00 00 00       	push   $0x19
    11c9:	f2 e9 51 fe ff ff    	bnd jmp 1020 <_init+0x20>
    11cf:	90                   	nop
    11d0:	f3 0f 1e fa          	endbr64 
    11d4:	68 1a 00 00 00       	push   $0x1a
    11d9:	f2 e9 41 fe ff ff    	bnd jmp 1020 <_init+0x20>
    11df:	90                   	nop

Disassembly of section .plt.got:

00000000000011e0 <__cxa_finalize@plt>:
    11e0:	f3 0f 1e fa          	endbr64 
    11e4:	f2 ff 25 0d 7e 00 00 	bnd jmp *0x7e0d(%rip)        # 8ff8 <__cxa_finalize@GLIBC_2.2.5>
    11eb:	0f 1f 44 00 00       	nopl   0x0(%rax,%rax,1)

Disassembly of section .plt.sec:

00000000000011f0 <getenv@plt>:
    11f0:	f3 0f 1e fa          	endbr64 
    11f4:	f2 ff 25 05 7d 00 00 	bnd jmp *0x7d05(%rip)        # 8f00 <getenv@GLIBC_2.2.5>
    11fb:	0f 1f 44 00 00       	nopl   0x0(%rax,%rax,1)

0000000000001200 <free@plt>:
    1200:	f3 0f 1e fa          	endbr64 
    1204:	f2 ff 25 fd 7c 00 00 	bnd jmp *0x7cfd(%rip)        # 8f08 <free@GLIBC_2.2.5>
    120b:	0f 1f 44 00 00       	nopl   0x0(%rax,%rax,1)

0000000000001210 <puts@plt>:
    1210:	f3 0f 1e fa          	endbr64 
    1214:	f2 ff 25 f5 7c 00 00 	bnd jmp *0x7cf5(%rip)        # 8f10 <puts@GLIBC_2.2.5>
    121b:	0f 1f 44 00 00       	nopl   0x0(%rax,%rax,1)

0000000000001220 <fread@plt>:
    1220:	f3 0f 1e fa          	endbr64 
    1224:	f2 ff 25 ed 7c 00 00 	bnd jmp *0x7ced(%rip)        # 8f18 <fread@GLIBC_2.2.5>
    122b:	0f 1f 44 00 00       	nopl   0x0(%rax,%rax,1)

0000000000001230 <atof@plt>:
    1230:	f3 0f 1e fa          	endbr64 
    1234:	f2 ff 25 e5 7c 00 00 	bnd jmp *0x7ce5(%rip)        # 8f20 <atof@GLIBC_2.2.5>
    123b:	0f 1f 44 00 00       	nopl   0x0(%rax,%rax,1)

0000000000001240 <fclose@plt>:
    1240:	f3 0f 1e fa          	endbr64 
    1244:	f2 ff 25 dd 7c 00 00 	bnd jmp *0x7cdd(%rip)        # 8f28 <fclose@GLIBC_2.2.5>
    124b:	0f 1f 44 00 00       	nopl   0x0(%rax,%rax,1)

0000000000001250 <xopenme_clock_start@plt>:
    1250:	f3 0f 1e fa          	endbr64 
    1254:	f2 ff 25 d5 7c 00 00 	bnd jmp *0x7cd5(%rip)        # 8f30 <xopenme_clock_start@Base>
    125b:	0f 1f 44 00 00       	nopl   0x0(%rax,%rax,1)

0000000000001260 <__stack_chk_fail@plt>:
    1260:	f3 0f 1e fa          	endbr64 
    1264:	f2 ff 25 cd 7c 00 00 	bnd jmp *0x7ccd(%rip)        # 8f38 <__stack_chk_fail@GLIBC_2.4>
    126b:	0f 1f 44 00 00       	nopl   0x0(%rax,%rax,1)

0000000000001270 <xopenme_dump_state@plt>:
    1270:	f3 0f 1e fa          	endbr64 
    1274:	f2 ff 25 c5 7c 00 00 	bnd jmp *0x7cc5(%rip)        # 8f40 <xopenme_dump_state@Base>
    127b:	0f 1f 44 00 00       	nopl   0x0(%rax,%rax,1)

0000000000001280 <fputs@plt>:
    1280:	f3 0f 1e fa          	endbr64 
    1284:	f2 ff 25 bd 7c 00 00 	bnd jmp *0x7cbd(%rip)        # 8f48 <fputs@GLIBC_2.2.5>
    128b:	0f 1f 44 00 00       	nopl   0x0(%rax,%rax,1)

0000000000001290 <fgetc@plt>:
    1290:	f3 0f 1e fa          	endbr64 
    1294:	f2 ff 25 b5 7c 00 00 	bnd jmp *0x7cb5(%rip)        # 8f50 <fgetc@GLIBC_2.2.5>
    129b:	0f 1f 44 00 00       	nopl   0x0(%rax,%rax,1)

00000000000012a0 <fgets@plt>:
    12a0:	f3 0f 1e fa          	endbr64 
    12a4:	f2 ff 25 ad 7c 00 00 	bnd jmp *0x7cad(%rip)        # 8f58 <fgets@GLIBC_2.2.5>
    12ab:	0f 1f 44 00 00       	nopl   0x0(%rax,%rax,1)

00000000000012b0 <xopenme_finish@plt>:
    12b0:	f3 0f 1e fa          	endbr64 
    12b4:	f2 ff 25 a5 7c 00 00 	bnd jmp *0x7ca5(%rip)        # 8f60 <xopenme_finish@Base>
    12bb:	0f 1f 44 00 00       	nopl   0x0(%rax,%rax,1)

00000000000012c0 <xopenme_add_var_i@plt>:
    12c0:	f3 0f 1e fa          	endbr64 
    12c4:	f2 ff 25 9d 7c 00 00 	bnd jmp *0x7c9d(%rip)        # 8f68 <xopenme_add_var_i@Base>
    12cb:	0f 1f 44 00 00       	nopl   0x0(%rax,%rax,1)

00000000000012d0 <sqrtf@plt>:
    12d0:	f3 0f 1e fa          	endbr64 
    12d4:	f2 ff 25 95 7c 00 00 	bnd jmp *0x7c95(%rip)        # 8f70 <sqrtf@GLIBC_2.2.5>
    12db:	0f 1f 44 00 00       	nopl   0x0(%rax,%rax,1)

00000000000012e0 <malloc@plt>:
    12e0:	f3 0f 1e fa          	endbr64 
    12e4:	f2 ff 25 8d 7c 00 00 	bnd jmp *0x7c8d(%rip)        # 8f78 <malloc@GLIBC_2.2.5>
    12eb:	0f 1f 44 00 00       	nopl   0x0(%rax,%rax,1)

00000000000012f0 <__printf_chk@plt>:
    12f0:	f3 0f 1e fa          	endbr64 
    12f4:	f2 ff 25 85 7c 00 00 	bnd jmp *0x7c85(%rip)        # 8f80 <__printf_chk@GLIBC_2.3.4>
    12fb:	0f 1f 44 00 00       	nopl   0x0(%rax,%rax,1)

0000000000001300 <xopenme_init@plt>:
    1300:	f3 0f 1e fa          	endbr64 
    1304:	f2 ff 25 7d 7c 00 00 	bnd jmp *0x7c7d(%rip)        # 8f88 <xopenme_init@Base>
    130b:	0f 1f 44 00 00       	nopl   0x0(%rax,%rax,1)

0000000000001310 <atol@plt>:
    1310:	f3 0f 1e fa          	endbr64 
    1314:	f2 ff 25 75 7c 00 00 	bnd jmp *0x7c75(%rip)        # 8f90 <atol@GLIBC_2.2.5>
    131b:	0f 1f 44 00 00       	nopl   0x0(%rax,%rax,1)

0000000000001320 <fopen@plt>:
    1320:	f3 0f 1e fa          	endbr64 
    1324:	f2 ff 25 6d 7c 00 00 	bnd jmp *0x7c6d(%rip)        # 8f98 <fopen@GLIBC_2.2.5>
    132b:	0f 1f 44 00 00       	nopl   0x0(%rax,%rax,1)

0000000000001330 <atoi@plt>:
    1330:	f3 0f 1e fa          	endbr64 
    1334:	f2 ff 25 65 7c 00 00 	bnd jmp *0x7c65(%rip)        # 8fa0 <atoi@GLIBC_2.2.5>
    133b:	0f 1f 44 00 00       	nopl   0x0(%rax,%rax,1)

0000000000001340 <xopenme_clock_end@plt>:
    1340:	f3 0f 1e fa          	endbr64 
    1344:	f2 ff 25 5d 7c 00 00 	bnd jmp *0x7c5d(%rip)        # 8fa8 <xopenme_clock_end@Base>
    134b:	0f 1f 44 00 00       	nopl   0x0(%rax,%rax,1)

0000000000001350 <exit@plt>:
    1350:	f3 0f 1e fa          	endbr64 
    1354:	f2 ff 25 55 7c 00 00 	bnd jmp *0x7c55(%rip)        # 8fb0 <exit@GLIBC_2.2.5>
    135b:	0f 1f 44 00 00       	nopl   0x0(%rax,%rax,1)

0000000000001360 <fwrite@plt>:
    1360:	f3 0f 1e fa          	endbr64 
    1364:	f2 ff 25 4d 7c 00 00 	bnd jmp *0x7c4d(%rip)        # 8fb8 <fwrite@GLIBC_2.2.5>
    136b:	0f 1f 44 00 00       	nopl   0x0(%rax,%rax,1)

0000000000001370 <__fprintf_chk@plt>:
    1370:	f3 0f 1e fa          	endbr64 
    1374:	f2 ff 25 45 7c 00 00 	bnd jmp *0x7c45(%rip)        # 8fc0 <__fprintf_chk@GLIBC_2.3.4>
    137b:	0f 1f 44 00 00       	nopl   0x0(%rax,%rax,1)

0000000000001380 <getc@plt>:
    1380:	f3 0f 1e fa          	endbr64 
    1384:	f2 ff 25 3d 7c 00 00 	bnd jmp *0x7c3d(%rip)        # 8fc8 <getc@GLIBC_2.2.5>
    138b:	0f 1f 44 00 00       	nopl   0x0(%rax,%rax,1)

0000000000001390 <exp@plt>:
    1390:	f3 0f 1e fa          	endbr64 
    1394:	f2 ff 25 35 7c 00 00 	bnd jmp *0x7c35(%rip)        # 8fd0 <exp@GLIBC_2.29>
    139b:	0f 1f 44 00 00       	nopl   0x0(%rax,%rax,1)

Disassembly of section .text:

00000000000013a0 <main>:
    13a0:	f3 0f 1e fa          	endbr64 
    13a4:	41 57                	push   %r15
    13a6:	41 56                	push   %r14
    13a8:	41 55                	push   %r13
    13aa:	41 54                	push   %r12
    13ac:	55                   	push   %rbp
    13ad:	53                   	push   %rbx
    13ae:	4c 8d 9c 24 00 90 fa 	lea    -0x57000(%rsp),%r11
    13b5:	ff 
    13b6:	48 81 ec 00 10 00 00 	sub    $0x1000,%rsp
    13bd:	48 83 0c 24 00       	orq    $0x0,(%rsp)
    13c2:	4c 39 dc             	cmp    %r11,%rsp
    13c5:	75 ef                	jne    13b6 <main+0x16>
    13c7:	48 81 ec a8 0e 00 00 	sub    $0xea8,%rsp
    13ce:	4c 8d 25 26 61 00 00 	lea    0x6126(%rip),%r12        # 74fb <_IO_stdin_used+0x4fb>
    13d5:	48 c7 44 24 18 01 00 	movq   $0x1,0x18(%rsp)
    13dc:	00 00 
    13de:	89 fd                	mov    %edi,%ebp
    13e0:	bf 01 00 00 00       	mov    $0x1,%edi
    13e5:	49 89 f5             	mov    %rsi,%r13
    13e8:	be 02 00 00 00       	mov    $0x2,%esi
    13ed:	64 48 8b 04 25 28 00 	mov    %fs:0x28,%rax
    13f4:	00 00 
    13f6:	48 89 84 24 98 7e 05 	mov    %rax,0x57e98(%rsp)
    13fd:	00 
    13fe:	31 c0                	xor    %eax,%eax
    1400:	e8 fb fe ff ff       	call   1300 <xopenme_init@plt>
    1405:	4c 89 e7             	mov    %r12,%rdi
    1408:	e8 e3 fd ff ff       	call   11f0 <getenv@plt>
    140d:	4c 89 e7             	mov    %r12,%rdi
    1410:	48 85 c0             	test   %rax,%rax
    1413:	74 12                	je     1427 <main+0x87>
    1415:	e8 d6 fd ff ff       	call   11f0 <getenv@plt>
    141a:	48 89 c7             	mov    %rax,%rdi
    141d:	e8 ee fe ff ff       	call   1310 <atol@plt>
    1422:	48 89 44 24 18       	mov    %rax,0x18(%rsp)
    1427:	83 fd 02             	cmp    $0x2,%ebp
    142a:	7f 05                	jg     1431 <main+0x91>
    142c:	e8 9b 05 00 00       	call   19cc <usage>
    1431:	49 8b 7d 08          	mov    0x8(%r13),%rdi
    1435:	48 8d 4c 24 38       	lea    0x38(%rsp),%rcx
    143a:	48 8d 54 24 34       	lea    0x34(%rsp),%rdx
    143f:	31 db                	xor    %ebx,%ebx
    1441:	48 8d 74 24 40       	lea    0x40(%rsp),%rsi
    1446:	c7 44 24 0c 00 00 00 	movl   $0x0,0xc(%rsp)
    144d:	00 
    144e:	45 31 f6             	xor    %r14d,%r14d
    1451:	45 31 ff             	xor    %r15d,%r15d
    1454:	c7 44 24 04 00 00 00 	movl   $0x0,0x4(%rsp)
    145b:	00 
    145c:	e8 f3 06 00 00       	call   1b54 <get_image>
    1461:	8b 54 24 34          	mov    0x34(%rsp),%edx
    1465:	48 8d 35 9e 60 00 00 	lea    0x609e(%rip),%rsi        # 750a <_IO_stdin_used+0x50a>
    146c:	31 ff                	xor    %edi,%edi
    146e:	c7 44 24 08 01 00 00 	movl   $0x1,0x8(%rsp)
    1475:	00 
    1476:	c7 04 24 14 00 00 00 	movl   $0x14,(%rsp)
    147d:	e8 3e fe ff ff       	call   12c0 <xopenme_add_var_i@plt>
    1482:	8b 54 24 38          	mov    0x38(%rsp),%edx
    1486:	48 8d 35 91 60 00 00 	lea    0x6091(%rip),%rsi        # 751e <_IO_stdin_used+0x51e>
    148d:	bf 01 00 00 00       	mov    $0x1,%edi
    1492:	e8 29 fe ff ff       	call   12c0 <xopenme_add_var_i@plt>
    1497:	c7 44 24 3c 00 00 80 	movl   $0x40800000,0x3c(%rsp)
    149e:	40 
    149f:	ba 03 00 00 00       	mov    $0x3,%edx
    14a4:	48 63 c2             	movslq %edx,%rax
    14a7:	4c 8d 0d b6 60 00 00 	lea    0x60b6(%rip),%r9        # 7564 <_IO_stdin_used+0x564>
    14ae:	44 8d 62 01          	lea    0x1(%rdx),%r12d
    14b2:	39 ea                	cmp    %ebp,%edx
    14b4:	0f 8d f7 00 00 00    	jge    15b1 <main+0x211>
    14ba:	49 8b 7c c5 00       	mov    0x0(%r13,%rax,8),%rdi
    14bf:	48 c1 e0 03          	shl    $0x3,%rax
    14c3:	80 3f 2d             	cmpb   $0x2d,(%rdi)
    14c6:	0f 85 60 ff ff ff    	jne    142c <main+0x8c>
    14cc:	8a 4f 01             	mov    0x1(%rdi),%cl
    14cf:	80 f9 33             	cmp    $0x33,%cl
    14d2:	0f 84 c5 00 00 00    	je     159d <main+0x1fd>
    14d8:	83 e9 62             	sub    $0x62,%ecx
    14db:	80 f9 12             	cmp    $0x12,%cl
    14de:	0f b6 f1             	movzbl %cl,%esi
    14e1:	0f 87 c3 00 00 00    	ja     15aa <main+0x20a>
    14e7:	4d 63 04 b1          	movslq (%r9,%rsi,4),%r8
    14eb:	4d 01 c8             	add    %r9,%r8
    14ee:	3e 41 ff e0          	notrack jmp *%r8
    14f2:	31 db                	xor    %ebx,%ebx
    14f4:	e9 b1 00 00 00       	jmp    15aa <main+0x20a>
    14f9:	bb 02 00 00 00       	mov    $0x2,%ebx
    14fe:	e9 a7 00 00 00       	jmp    15aa <main+0x20a>
    1503:	41 bf 01 00 00 00    	mov    $0x1,%r15d
    1509:	e9 9c 00 00 00       	jmp    15aa <main+0x20a>
    150e:	c7 44 24 08 00 00 00 	movl   $0x0,0x8(%rsp)
    1515:	00 
    1516:	e9 8f 00 00 00       	jmp    15aa <main+0x20a>
    151b:	c7 44 24 04 01 00 00 	movl   $0x1,0x4(%rsp)
    1522:	00 
    1523:	e9 82 00 00 00       	jmp    15aa <main+0x20a>
    1528:	c7 44 24 0c 01 00 00 	movl   $0x1,0xc(%rsp)
    152f:	00 
    1530:	eb 78                	jmp    15aa <main+0x20a>
    1532:	41 39 ec             	cmp    %ebp,%r12d
    1535:	7c 09                	jl     1540 <main+0x1a0>
    1537:	48 8d 3d f4 5f 00 00 	lea    0x5ff4(%rip),%rdi        # 7532 <_IO_stdin_used+0x532>
    153e:	eb 3f                	jmp    157f <main+0x1df>
    1540:	49 8b 7c 05 08       	mov    0x8(%r13,%rax,1),%rdi
    1545:	e8 e6 fc ff ff       	call   1230 <atof@plt>
    154a:	f2 0f 11 44 24 50    	movsd  %xmm0,0x50(%rsp)
    1550:	f2 0f 5a 44 24 50    	cvtsd2ss 0x50(%rsp),%xmm0
    1556:	0f 57 c9             	xorps  %xmm1,%xmm1
    1559:	41 bb 01 00 00 00    	mov    $0x1,%r11d
    155f:	f3 0f 11 44 24 3c    	movss  %xmm0,0x3c(%rsp)
    1565:	0f 2f 4c 24 3c       	comiss 0x3c(%rsp),%xmm1
    156a:	44 89 e2             	mov    %r12d,%edx
    156d:	45 0f 47 f3          	cmova  %r11d,%r14d
    1571:	eb 37                	jmp    15aa <main+0x20a>
    1573:	41 39 ec             	cmp    %ebp,%r12d
    1576:	7c 13                	jl     158b <main+0x1eb>
    1578:	48 8d 3d cc 5f 00 00 	lea    0x5fcc(%rip),%rdi        # 754b <_IO_stdin_used+0x54b>
    157f:	e8 8c fc ff ff       	call   1210 <puts@plt>
    1584:	31 ff                	xor    %edi,%edi
    1586:	e8 c5 fd ff ff       	call   1350 <exit@plt>
    158b:	49 8b 7c 05 08       	mov    0x8(%r13,%rax,1),%rdi
    1590:	e8 9b fd ff ff       	call   1330 <atoi@plt>
    1595:	44 89 e2             	mov    %r12d,%edx
    1598:	89 04 24             	mov    %eax,(%rsp)
    159b:	eb 0d                	jmp    15aa <main+0x20a>
    159d:	41 be 01 00 00 00    	mov    $0x1,%r14d
    15a3:	eb 05                	jmp    15aa <main+0x20a>
    15a5:	bb 01 00 00 00       	mov    $0x1,%ebx
    15aa:	ff c2                	inc    %edx
    15ac:	e9 f3 fe ff ff       	jmp    14a4 <main+0x104>
    15b1:	85 db                	test   %ebx,%ebx
    15b3:	b8 01 00 00 00       	mov    $0x1,%eax
    15b8:	75 06                	jne    15c0 <main+0x220>
    15ba:	45 85 ff             	test   %r15d,%r15d
    15bd:	0f 45 d8             	cmovne %eax,%ebx
    15c0:	48 c7 44 24 10 00 00 	movq   $0x0,0x10(%rsp)
    15c7:	00 00 
    15c9:	31 ff                	xor    %edi,%edi
    15cb:	e8 80 fc ff ff       	call   1250 <xopenme_clock_start@plt>
    15d0:	48 8b 74 24 18       	mov    0x18(%rsp),%rsi
    15d5:	48 39 74 24 10       	cmp    %rsi,0x10(%rsp)
    15da:	48 8d 6c 24 48       	lea    0x48(%rsp),%rbp
    15df:	0f 8d 5f 02 00 00    	jge    1844 <main+0x4a4>
    15e5:	83 fb 01             	cmp    $0x1,%ebx
    15e8:	74 48                	je     1632 <main+0x292>
    15ea:	83 fb 02             	cmp    $0x2,%ebx
    15ed:	0f 84 74 01 00 00    	je     1767 <main+0x3c7>
    15f3:	8b 34 24             	mov    (%rsp),%esi
    15f6:	ba 02 00 00 00       	mov    $0x2,%edx
    15fb:	48 89 ef             	mov    %rbp,%rdi
    15fe:	e8 5b 07 00 00       	call   1d5e <setup_brightness_lut>
    1603:	8b 4c 24 38          	mov    0x38(%rsp),%ecx
    1607:	8b 54 24 34          	mov    0x34(%rsp),%edx
    160b:	44 89 f7             	mov    %r14d,%edi
    160e:	f3 0f 10 44 24 3c    	movss  0x3c(%rsp),%xmm0
    1614:	48 8b 74 24 40       	mov    0x40(%rsp),%rsi
    1619:	4c 8b 44 24 48       	mov    0x48(%rsp),%r8
    161e:	e8 a8 10 00 00       	call   26cb <susan_smoothing>
    1623:	48 8b 7c 24 48       	mov    0x48(%rsp),%rdi
    1628:	e8 32 08 00 00       	call   1e5f <free_brightness_lut>
    162d:	e9 08 02 00 00       	jmp    183a <main+0x49a>
    1632:	8b 7c 24 34          	mov    0x34(%rsp),%edi
    1636:	0f af 7c 24 38       	imul   0x38(%rsp),%edi
    163b:	48 63 ff             	movslq %edi,%rdi
    163e:	48 c1 e7 02          	shl    $0x2,%rdi
    1642:	e8 99 fc ff ff       	call   12e0 <malloc@plt>
    1647:	8b 34 24             	mov    (%rsp),%esi
    164a:	ba 06 00 00 00       	mov    $0x6,%edx
    164f:	48 89 ef             	mov    %rbp,%rdi
    1652:	48 89 c5             	mov    %rax,%rbp
    1655:	e8 04 07 00 00       	call   1d5e <setup_brightness_lut>
    165a:	45 85 ff             	test   %r15d,%r15d
    165d:	44 8b 44 24 34       	mov    0x34(%rsp),%r8d
    1662:	8b 54 24 38          	mov    0x38(%rsp),%edx
    1666:	74 3d                	je     16a5 <main+0x305>
    1668:	48 8b 74 24 48       	mov    0x48(%rsp),%rsi
    166d:	4c 8b 64 24 40       	mov    0x40(%rsp),%r12
    1672:	45 85 f6             	test   %r14d,%r14d
    1675:	41 89 d1             	mov    %edx,%r9d
    1678:	b9 5a 0a 00 00       	mov    $0xa5a,%ecx
    167d:	48 89 f2             	mov    %rsi,%rdx
    1680:	48 89 ee             	mov    %rbp,%rsi
    1683:	4c 89 e7             	mov    %r12,%rdi
    1686:	74 07                	je     168f <main+0x2ef>
    1688:	e8 54 0c 00 00       	call   22e1 <susan_principle_small>
    168d:	eb 05                	jmp    1694 <main+0x2f4>
    168f:	e8 db 07 00 00       	call   1e6f <susan_principle>
    1694:	8b 54 24 34          	mov    0x34(%rsp),%edx
    1698:	0f af 54 24 38       	imul   0x38(%rsp),%edx
    169d:	4c 89 e6             	mov    %r12,%rsi
    16a0:	e9 2b 01 00 00       	jmp    17d0 <main+0x430>
    16a5:	44 89 c1             	mov    %r8d,%ecx
    16a8:	44 89 44 24 2c       	mov    %r8d,0x2c(%rsp)
    16ad:	0f af ca             	imul   %edx,%ecx
    16b0:	89 54 24 28          	mov    %edx,0x28(%rsp)
    16b4:	4c 63 c1             	movslq %ecx,%r8
    16b7:	4c 89 c7             	mov    %r8,%rdi
    16ba:	4c 89 44 24 20       	mov    %r8,0x20(%rsp)
    16bf:	e8 1c fc ff ff       	call   12e0 <malloc@plt>
    16c4:	40 b6 64             	mov    $0x64,%sil
    16c7:	48 8b 4c 24 20       	mov    0x20(%rsp),%rcx
    16cc:	49 89 c4             	mov    %rax,%r12
    16cf:	4c 8b 5c 24 48       	mov    0x48(%rsp),%r11
    16d4:	4c 8b 54 24 40       	mov    0x40(%rsp),%r10
    16d9:	45 85 f6             	test   %r14d,%r14d
    16dc:	48 89 c7             	mov    %rax,%rdi
    16df:	89 f0                	mov    %esi,%eax
    16e1:	f3 aa                	rep stos %al,%es:(%rdi)
    16e3:	8b 54 24 28          	mov    0x28(%rsp),%edx
    16e7:	44 8b 4c 24 2c       	mov    0x2c(%rsp),%r9d
    16ec:	74 1b                	je     1709 <main+0x369>
    16ee:	50                   	push   %rax
    16ef:	41 b8 5a 0a 00 00    	mov    $0xa5a,%r8d
    16f5:	4c 89 d9             	mov    %r11,%rcx
    16f8:	48 89 ee             	mov    %rbp,%rsi
    16fb:	52                   	push   %rdx
    16fc:	4c 89 e2             	mov    %r12,%rdx
    16ff:	4c 89 d7             	mov    %r10,%rdi
    1702:	e8 5b 31 00 00       	call   4862 <susan_edges_small>
    1707:	eb 19                	jmp    1722 <main+0x382>
    1709:	50                   	push   %rax
    170a:	41 b8 5a 0a 00 00    	mov    $0xa5a,%r8d
    1710:	4c 89 d9             	mov    %r11,%rcx
    1713:	48 89 ee             	mov    %rbp,%rsi
    1716:	52                   	push   %rdx
    1717:	4c 89 e2             	mov    %r12,%rdx
    171a:	4c 89 d7             	mov    %r10,%rdi
    171d:	e8 88 1f 00 00       	call   36aa <susan_edges>
    1722:	41 5a                	pop    %r10
    1724:	41 5b                	pop    %r11
    1726:	83 7c 24 08 00       	cmpl   $0x0,0x8(%rsp)
    172b:	74 13                	je     1740 <main+0x3a0>
    172d:	8b 4c 24 38          	mov    0x38(%rsp),%ecx
    1731:	8b 54 24 34          	mov    0x34(%rsp),%edx
    1735:	4c 89 e6             	mov    %r12,%rsi
    1738:	48 89 ef             	mov    %rbp,%rdi
    173b:	e8 82 16 00 00       	call   2dc2 <susan_thin>
    1740:	8b 4c 24 38          	mov    0x38(%rsp),%ecx
    1744:	8b 54 24 34          	mov    0x34(%rsp),%edx
    1748:	4c 89 e6             	mov    %r12,%rsi
    174b:	48 8b 7c 24 40       	mov    0x40(%rsp),%rdi
    1750:	44 8b 44 24 04       	mov    0x4(%rsp),%r8d
    1755:	e8 dd 15 00 00       	call   2d37 <edge_draw>
    175a:	4c 89 e7             	mov    %r12,%rdi
    175d:	e8 9e fa ff ff       	call   1200 <free@plt>
    1762:	e9 c1 00 00 00       	jmp    1828 <main+0x488>
    1767:	44 8b 44 24 34       	mov    0x34(%rsp),%r8d
    176c:	44 0f af 44 24 38    	imul   0x38(%rsp),%r8d
    1772:	49 63 f8             	movslq %r8d,%rdi
    1775:	48 c1 e7 02          	shl    $0x2,%rdi
    1779:	e8 62 fb ff ff       	call   12e0 <malloc@plt>
    177e:	8b 34 24             	mov    (%rsp),%esi
    1781:	ba 06 00 00 00       	mov    $0x6,%edx
    1786:	48 89 ef             	mov    %rbp,%rdi
    1789:	48 89 c5             	mov    %rax,%rbp
    178c:	e8 cd 05 00 00       	call   1d5e <setup_brightness_lut>
    1791:	45 85 ff             	test   %r15d,%r15d
    1794:	44 8b 5c 24 34       	mov    0x34(%rsp),%r11d
    1799:	44 8b 54 24 38       	mov    0x38(%rsp),%r10d
    179e:	48 8b 54 24 48       	mov    0x48(%rsp),%rdx
    17a3:	48 8b 7c 24 40       	mov    0x40(%rsp),%rdi
    17a8:	74 30                	je     17da <main+0x43a>
    17aa:	45 89 d1             	mov    %r10d,%r9d
    17ad:	45 89 d8             	mov    %r11d,%r8d
    17b0:	b9 3a 07 00 00       	mov    $0x73a,%ecx
    17b5:	48 89 ee             	mov    %rbp,%rsi
    17b8:	48 89 7c 24 20       	mov    %rdi,0x20(%rsp)
    17bd:	e8 ad 06 00 00       	call   1e6f <susan_principle>
    17c2:	8b 54 24 34          	mov    0x34(%rsp),%edx
    17c6:	0f af 54 24 38       	imul   0x38(%rsp),%edx
    17cb:	48 8b 74 24 20       	mov    0x20(%rsp),%rsi
    17d0:	48 89 ef             	mov    %rbp,%rdi
    17d3:	e8 35 05 00 00       	call   1d0d <int_to_uchar>
    17d8:	eb 4e                	jmp    1828 <main+0x488>
    17da:	83 7c 24 0c 00       	cmpl   $0x0,0xc(%rsp)
    17df:	4c 8d 44 24 58       	lea    0x58(%rsp),%r8
    17e4:	74 16                	je     17fc <main+0x45c>
    17e6:	41 51                	push   %r9
    17e8:	45 89 d9             	mov    %r11d,%r9d
    17eb:	b9 3a 07 00 00       	mov    $0x73a,%ecx
    17f0:	48 89 ee             	mov    %rbp,%rsi
    17f3:	41 52                	push   %r10
    17f5:	e8 74 47 00 00       	call   5f6e <susan_corners_quick>
    17fa:	eb 13                	jmp    180f <main+0x46f>
    17fc:	56                   	push   %rsi
    17fd:	45 89 d9             	mov    %r11d,%r9d
    1800:	b9 3a 07 00 00       	mov    $0x73a,%ecx
    1805:	48 89 ee             	mov    %rbp,%rsi
    1808:	41 52                	push   %r10
    180a:	e8 bd 36 00 00       	call   4ecc <susan_corners>
    180f:	58                   	pop    %rax
    1810:	5a                   	pop    %rdx
    1811:	8b 54 24 34          	mov    0x34(%rsp),%edx
    1815:	48 8b 7c 24 40       	mov    0x40(%rsp),%rdi
    181a:	48 8d 74 24 58       	lea    0x58(%rsp),%rsi
    181f:	8b 4c 24 04          	mov    0x4(%rsp),%ecx
    1823:	e8 20 36 00 00       	call   4e48 <corner_draw>
    1828:	48 8b 7c 24 48       	mov    0x48(%rsp),%rdi
    182d:	e8 2d 06 00 00       	call   1e5f <free_brightness_lut>
    1832:	48 89 ef             	mov    %rbp,%rdi
    1835:	e8 c6 f9 ff ff       	call   1200 <free@plt>
    183a:	48 ff 44 24 10       	incq   0x10(%rsp)
    183f:	e9 8c fd ff ff       	jmp    15d0 <main+0x230>
    1844:	31 ff                	xor    %edi,%edi
    1846:	e8 f5 fa ff ff       	call   1340 <xopenme_clock_end@plt>
    184b:	8b 4c 24 38          	mov    0x38(%rsp),%ecx
    184f:	8b 54 24 34          	mov    0x34(%rsp),%edx
    1853:	48 8b 74 24 40       	mov    0x40(%rsp),%rsi
    1858:	49 8b 7d 10          	mov    0x10(%r13),%rdi
    185c:	e8 ea 03 00 00       	call   1c4b <put_image>
    1861:	48 8b 7c 24 40       	mov    0x40(%rsp),%rdi
    1866:	e8 95 f9 ff ff       	call   1200 <free@plt>
    186b:	e8 00 fa ff ff       	call   1270 <xopenme_dump_state@plt>
    1870:	e8 3b fa ff ff       	call   12b0 <xopenme_finish@plt>
    1875:	48 8b 84 24 98 7e 05 	mov    0x57e98(%rsp),%rax
    187c:	00 
    187d:	64 48 2b 04 25 28 00 	sub    %fs:0x28,%rax
    1884:	00 00 
    1886:	74 05                	je     188d <main+0x4ed>
    1888:	e8 d3 f9 ff ff       	call   1260 <__stack_chk_fail@plt>
    188d:	48 81 c4 a8 7e 05 00 	add    $0x57ea8,%rsp
    1894:	31 c0                	xor    %eax,%eax
    1896:	5b                   	pop    %rbx
    1897:	5d                   	pop    %rbp
    1898:	41 5c                	pop    %r12
    189a:	41 5d                	pop    %r13
    189c:	41 5e                	pop    %r14
    189e:	41 5f                	pop    %r15
    18a0:	c3                   	ret    
    18a1:	66 2e 0f 1f 84 00 00 	cs nopw 0x0(%rax,%rax,1)
    18a8:	00 00 00 
    18ab:	0f 1f 44 00 00       	nopl   0x0(%rax,%rax,1)

00000000000018b0 <_start>:
    18b0:	f3 0f 1e fa          	endbr64 
    18b4:	31 ed                	xor    %ebp,%ebp
    18b6:	49 89 d1             	mov    %rdx,%r9
    18b9:	5e                   	pop    %rsi
    18ba:	48 89 e2             	mov    %rsp,%rdx
    18bd:	48 83 e4 f0          	and    $0xfffffffffffffff0,%rsp
    18c1:	50                   	push   %rax
    18c2:	54                   	push   %rsp
    18c3:	45 31 c0             	xor    %r8d,%r8d
    18c6:	31 c9                	xor    %ecx,%ecx
    18c8:	48 8d 3d d1 fa ff ff 	lea    -0x52f(%rip),%rdi        # 13a0 <main>
    18cf:	ff 15 03 77 00 00    	call   *0x7703(%rip)        # 8fd8 <__libc_start_main@GLIBC_2.34>
    18d5:	f4                   	hlt    
    18d6:	66 2e 0f 1f 84 00 00 	cs nopw 0x0(%rax,%rax,1)
    18dd:	00 00 00 

00000000000018e0 <deregister_tm_clones>:
    18e0:	48 8d 3d 29 77 00 00 	lea    0x7729(%rip),%rdi        # 9010 <__TMC_END__>
    18e7:	48 8d 05 22 77 00 00 	lea    0x7722(%rip),%rax        # 9010 <__TMC_END__>
    18ee:	48 39 f8             	cmp    %rdi,%rax
    18f1:	74 15                	je     1908 <deregister_tm_clones+0x28>
    18f3:	48 8b 05 e6 76 00 00 	mov    0x76e6(%rip),%rax        # 8fe0 <_ITM_deregisterTMCloneTable@Base>
    18fa:	48 85 c0             	test   %rax,%rax
    18fd:	74 09                	je     1908 <deregister_tm_clones+0x28>
    18ff:	ff e0                	jmp    *%rax
    1901:	0f 1f 80 00 00 00 00 	nopl   0x0(%rax)
    1908:	c3                   	ret    
    1909:	0f 1f 80 00 00 00 00 	nopl   0x0(%rax)

0000000000001910 <register_tm_clones>:
    1910:	48 8d 3d f9 76 00 00 	lea    0x76f9(%rip),%rdi        # 9010 <__TMC_END__>
    1917:	48 8d 35 f2 76 00 00 	lea    0x76f2(%rip),%rsi        # 9010 <__TMC_END__>
    191e:	48 29 fe             	sub    %rdi,%rsi
    1921:	48 89 f0             	mov    %rsi,%rax
    1924:	48 c1 ee 3f          	shr    $0x3f,%rsi
    1928:	48 c1 f8 03          	sar    $0x3,%rax
    192c:	48 01 c6             	add    %rax,%rsi
    192f:	48 d1 fe             	sar    %rsi
    1932:	74 14                	je     1948 <register_tm_clones+0x38>
    1934:	48 8b 05 b5 76 00 00 	mov    0x76b5(%rip),%rax        # 8ff0 <_ITM_registerTMCloneTable@Base>
    193b:	48 85 c0             	test   %rax,%rax
    193e:	74 08                	je     1948 <register_tm_clones+0x38>
    1940:	ff e0                	jmp    *%rax
    1942:	66 0f 1f 44 00 00    	nopw   0x0(%rax,%rax,1)
    1948:	c3                   	ret    
    1949:	0f 1f 80 00 00 00 00 	nopl   0x0(%rax)

0000000000001950 <__do_global_dtors_aux>:
    1950:	f3 0f 1e fa          	endbr64 
    1954:	80 3d cd 76 00 00 00 	cmpb   $0x0,0x76cd(%rip)        # 9028 <completed.0>
    195b:	75 2b                	jne    1988 <__do_global_dtors_aux+0x38>
    195d:	55                   	push   %rbp
    195e:	48 83 3d 92 76 00 00 	cmpq   $0x0,0x7692(%rip)        # 8ff8 <__cxa_finalize@GLIBC_2.2.5>
    1965:	00 
    1966:	48 89 e5             	mov    %rsp,%rbp
    1969:	74 0c                	je     1977 <__do_global_dtors_aux+0x27>
    196b:	48 8b 3d 96 76 00 00 	mov    0x7696(%rip),%rdi        # 9008 <__dso_handle>
    1972:	e8 69 f8 ff ff       	call   11e0 <__cxa_finalize@plt>
    1977:	e8 64 ff ff ff       	call   18e0 <deregister_tm_clones>
    197c:	c6 05 a5 76 00 00 01 	movb   $0x1,0x76a5(%rip)        # 9028 <completed.0>
    1983:	5d                   	pop    %rbp
    1984:	c3                   	ret    
    1985:	0f 1f 00             	nopl   (%rax)
    1988:	c3                   	ret    
    1989:	0f 1f 80 00 00 00 00 	nopl   0x0(%rax)

0000000000001990 <frame_dummy>:
    1990:	f3 0f 1e fa          	endbr64 
    1994:	e9 77 ff ff ff       	jmp    1910 <register_tm_clones>

0000000000001999 <__bswap_16>:
    1999:	f3 0f 1e fa          	endbr64 
    199d:	89 f8                	mov    %edi,%eax
    199f:	86 e0                	xchg   %ah,%al
    19a1:	c3                   	ret    

00000000000019a2 <__bswap_32>:
    19a2:	f3 0f 1e fa          	endbr64 
    19a6:	89 f8                	mov    %edi,%eax
    19a8:	0f c8                	bswap  %eax
    19aa:	c3                   	ret    

00000000000019ab <__bswap_64>:
    19ab:	f3 0f 1e fa          	endbr64 
    19af:	48 89 f8             	mov    %rdi,%rax
    19b2:	48 0f c8             	bswap  %rax
    19b5:	c3                   	ret    

00000000000019b6 <__uint16_identity>:
    19b6:	f3 0f 1e fa          	endbr64 
    19ba:	89 f8                	mov    %edi,%eax
    19bc:	c3                   	ret    

00000000000019bd <__uint32_identity>:
    19bd:	f3 0f 1e fa          	endbr64 
    19c1:	89 f8                	mov    %edi,%eax
    19c3:	c3                   	ret    

00000000000019c4 <__uint64_identity>:
    19c4:	f3 0f 1e fa          	endbr64 
    19c8:	48 89 f8             	mov    %rdi,%rax
    19cb:	c3                   	ret    

00000000000019cc <usage>:
    19cc:	f3 0f 1e fa          	endbr64 
    19d0:	50                   	push   %rax
    19d1:	58                   	pop    %rax
    19d2:	48 8d 3d 2b 56 00 00 	lea    0x562b(%rip),%rdi        # 7004 <_IO_stdin_used+0x4>
    19d9:	50                   	push   %rax
    19da:	e8 31 f8 ff ff       	call   1210 <puts@plt>
    19df:	48 8d 3d 49 56 00 00 	lea    0x5649(%rip),%rdi        # 702f <_IO_stdin_used+0x2f>
    19e6:	e8 25 f8 ff ff       	call   1210 <puts@plt>
    19eb:	48 8d 3d 5b 56 00 00 	lea    0x565b(%rip),%rdi        # 704d <_IO_stdin_used+0x4d>
    19f2:	e8 19 f8 ff ff       	call   1210 <puts@plt>
    19f7:	48 8d 3d 5f 56 00 00 	lea    0x565f(%rip),%rdi        # 705d <_IO_stdin_used+0x5d>
    19fe:	e8 0d f8 ff ff       	call   1210 <puts@plt>
    1a03:	48 8d 3d 66 56 00 00 	lea    0x5666(%rip),%rdi        # 7070 <_IO_stdin_used+0x70>
    1a0a:	e8 01 f8 ff ff       	call   1210 <puts@plt>
    1a0f:	48 8d 3d 9c 56 00 00 	lea    0x569c(%rip),%rdi        # 70b2 <_IO_stdin_used+0xb2>
    1a16:	e8 f5 f7 ff ff       	call   1210 <puts@plt>
    1a1b:	48 8d 3d cb 56 00 00 	lea    0x56cb(%rip),%rdi        # 70ed <_IO_stdin_used+0xed>
    1a22:	e8 e9 f7 ff ff       	call   1210 <puts@plt>
    1a27:	48 8d 3d 29 57 00 00 	lea    0x5729(%rip),%rdi        # 7157 <_IO_stdin_used+0x157>
    1a2e:	e8 dd f7 ff ff       	call   1210 <puts@plt>
    1a33:	48 8d 3d 4d 57 00 00 	lea    0x574d(%rip),%rdi        # 7187 <_IO_stdin_used+0x187>
    1a3a:	e8 d1 f7 ff ff       	call   1210 <puts@plt>
    1a3f:	48 8d 3d 8f 57 00 00 	lea    0x578f(%rip),%rdi        # 71d5 <_IO_stdin_used+0x1d5>
    1a46:	e8 c5 f7 ff ff       	call   1210 <puts@plt>
    1a4b:	48 8d 3d f1 57 00 00 	lea    0x57f1(%rip),%rdi        # 7243 <_IO_stdin_used+0x243>
    1a52:	e8 b9 f7 ff ff       	call   1210 <puts@plt>
    1a57:	48 8d 3d 50 58 00 00 	lea    0x5850(%rip),%rdi        # 72ae <_IO_stdin_used+0x2ae>
    1a5e:	e8 ad f7 ff ff       	call   1210 <puts@plt>
    1a63:	48 8d 3d 9e 58 00 00 	lea    0x589e(%rip),%rdi        # 7308 <_IO_stdin_used+0x308>
    1a6a:	e8 a1 f7 ff ff       	call   1210 <puts@plt>
    1a6f:	31 ff                	xor    %edi,%edi
    1a71:	e8 da f8 ff ff       	call   1350 <exit@plt>

0000000000001a76 <getint>:
    1a76:	f3 0f 1e fa          	endbr64 
    1a7a:	41 54                	push   %r12
    1a7c:	53                   	push   %rbx
    1a7d:	48 81 ec 00 10 00 00 	sub    $0x1000,%rsp
    1a84:	48 83 0c 24 00       	orq    $0x0,(%rsp)
    1a89:	48 81 ec 00 10 00 00 	sub    $0x1000,%rsp
    1a90:	48 83 0c 24 00       	orq    $0x0,(%rsp)
    1a95:	48 81 ec 28 07 00 00 	sub    $0x728,%rsp
    1a9c:	64 48 8b 04 25 28 00 	mov    %fs:0x28,%rax
    1aa3:	00 00 
    1aa5:	48 89 84 24 18 27 00 	mov    %rax,0x2718(%rsp)
    1aac:	00 
    1aad:	31 c0                	xor    %eax,%eax
    1aaf:	48 89 fb             	mov    %rdi,%rbx
    1ab2:	4c 8d 64 24 08       	lea    0x8(%rsp),%r12
    1ab7:	eb 02                	jmp    1abb <getint+0x45>
    1ab9:	eb 00                	jmp    1abb <getint+0x45>
    1abb:	e8 c0 f8 ff ff       	call   1380 <getc@plt>
    1ac0:	8d 50 d0             	lea    -0x30(%rax),%edx
    1ac3:	83 f8 23             	cmp    $0x23,%eax
    1ac6:	48 89 df             	mov    %rbx,%rdi
    1ac9:	be 28 23 00 00       	mov    $0x2328,%esi
    1ace:	75 10                	jne    1ae0 <getint+0x6a>
    1ad0:	48 89 da             	mov    %rbx,%rdx
    1ad3:	4c 89 e7             	mov    %r12,%rdi
    1ad6:	e8 c5 f7 ff ff       	call   12a0 <fgets@plt>
    1adb:	48 89 df             	mov    %rbx,%rdi
    1ade:	eb d9                	jmp    1ab9 <getint+0x43>
    1ae0:	83 f8 ff             	cmp    $0xffffffff,%eax
    1ae3:	75 28                	jne    1b0d <getint+0x97>
    1ae5:	48 8b 3d 34 75 00 00 	mov    0x7534(%rip),%rdi        # 9020 <stderr@GLIBC_2.2.5>
    1aec:	48 8d 0d 61 58 00 00 	lea    0x5861(%rip),%rcx        # 7354 <_IO_stdin_used+0x354>
    1af3:	48 8d 15 5d 58 00 00 	lea    0x585d(%rip),%rdx        # 7357 <_IO_stdin_used+0x357>
    1afa:	31 c0                	xor    %eax,%eax
    1afc:	be 01 00 00 00       	mov    $0x1,%esi
    1b01:	e8 6a f8 ff ff       	call   1370 <__fprintf_chk@plt>
    1b06:	31 ff                	xor    %edi,%edi
    1b08:	e8 43 f8 ff ff       	call   1350 <exit@plt>
    1b0d:	83 fa 09             	cmp    $0x9,%edx
    1b10:	77 a7                	ja     1ab9 <getint+0x43>
    1b12:	45 31 e4             	xor    %r12d,%r12d
    1b15:	41 6b cc 0a          	imul   $0xa,%r12d,%ecx
    1b19:	44 8d 64 01 d0       	lea    -0x30(%rcx,%rax,1),%r12d
    1b1e:	e8 5d f8 ff ff       	call   1380 <getc@plt>
    1b23:	8d 70 d0             	lea    -0x30(%rax),%esi
    1b26:	48 89 df             	mov    %rbx,%rdi
    1b29:	83 fe 09             	cmp    $0x9,%esi
    1b2c:	76 e7                	jbe    1b15 <getint+0x9f>
    1b2e:	48 8b 84 24 18 27 00 	mov    0x2718(%rsp),%rax
    1b35:	00 
    1b36:	64 48 2b 04 25 28 00 	sub    %fs:0x28,%rax
    1b3d:	00 00 
    1b3f:	74 05                	je     1b46 <getint+0xd0>
    1b41:	e8 1a f7 ff ff       	call   1260 <__stack_chk_fail@plt>
    1b46:	48 81 c4 28 27 00 00 	add    $0x2728,%rsp
    1b4d:	44 89 e0             	mov    %r12d,%eax
    1b50:	5b                   	pop    %rbx
    1b51:	41 5c                	pop    %r12
    1b53:	c3                   	ret    

0000000000001b54 <get_image>:
    1b54:	f3 0f 1e fa          	endbr64 
    1b58:	41 57                	push   %r15
    1b5a:	41 56                	push   %r14
    1b5c:	41 55                	push   %r13
    1b5e:	49 89 f5             	mov    %rsi,%r13
    1b61:	48 8d 35 09 58 00 00 	lea    0x5809(%rip),%rsi        # 7371 <_IO_stdin_used+0x371>
    1b68:	49 89 d6             	mov    %rdx,%r14
    1b6b:	41 54                	push   %r12
    1b6d:	55                   	push   %rbp
    1b6e:	49 89 fc             	mov    %rdi,%r12
    1b71:	53                   	push   %rbx
    1b72:	41 50                	push   %r8
    1b74:	48 89 cb             	mov    %rcx,%rbx
    1b77:	e8 a4 f7 ff ff       	call   1320 <fopen@plt>
    1b7c:	48 85 c0             	test   %rax,%rax
    1b7f:	48 8b 3d 9a 74 00 00 	mov    0x749a(%rip),%rdi        # 9020 <stderr@GLIBC_2.2.5>
    1b86:	48 8d 15 e6 57 00 00 	lea    0x57e6(%rip),%rdx        # 7373 <_IO_stdin_used+0x373>
    1b8d:	74 2e                	je     1bbd <get_image+0x69>
    1b8f:	48 89 c7             	mov    %rax,%rdi
    1b92:	48 89 c5             	mov    %rax,%rbp
    1b95:	e8 f6 f6 ff ff       	call   1290 <fgetc@plt>
    1b9a:	48 89 ef             	mov    %rbp,%rdi
    1b9d:	41 89 c7             	mov    %eax,%r15d
    1ba0:	e8 eb f6 ff ff       	call   1290 <fgetc@plt>
    1ba5:	3c 35                	cmp    $0x35,%al
    1ba7:	75 06                	jne    1baf <get_image+0x5b>
    1ba9:	41 80 ff 50          	cmp    $0x50,%r15b
    1bad:	74 24                	je     1bd3 <get_image+0x7f>
    1baf:	48 8b 3d 6a 74 00 00 	mov    0x746a(%rip),%rdi        # 9020 <stderr@GLIBC_2.2.5>
    1bb6:	48 8d 15 cd 57 00 00 	lea    0x57cd(%rip),%rdx        # 738a <_IO_stdin_used+0x38a>
    1bbd:	4c 89 e1             	mov    %r12,%rcx
    1bc0:	be 01 00 00 00       	mov    $0x1,%esi
    1bc5:	31 c0                	xor    %eax,%eax
    1bc7:	e8 a4 f7 ff ff       	call   1370 <__fprintf_chk@plt>
    1bcc:	31 ff                	xor    %edi,%edi
    1bce:	e8 7d f7 ff ff       	call   1350 <exit@plt>
    1bd3:	48 89 ef             	mov    %rbp,%rdi
    1bd6:	e8 9b fe ff ff       	call   1a76 <getint>
    1bdb:	41 89 06             	mov    %eax,(%r14)
    1bde:	48 89 ef             	mov    %rbp,%rdi
    1be1:	e8 90 fe ff ff       	call   1a76 <getint>
    1be6:	89 03                	mov    %eax,(%rbx)
    1be8:	48 89 ef             	mov    %rbp,%rdi
    1beb:	e8 86 fe ff ff       	call   1a76 <getint>
    1bf0:	41 8b 3e             	mov    (%r14),%edi
    1bf3:	0f af 3b             	imul   (%rbx),%edi
    1bf6:	48 63 ff             	movslq %edi,%rdi
    1bf9:	e8 e2 f6 ff ff       	call   12e0 <malloc@plt>
    1bfe:	41 8b 16             	mov    (%r14),%edx
    1c01:	0f af 13             	imul   (%rbx),%edx
    1c04:	49 89 45 00          	mov    %rax,0x0(%r13)
    1c08:	48 89 c7             	mov    %rax,%rdi
    1c0b:	48 89 e9             	mov    %rbp,%rcx
    1c0e:	be 01 00 00 00       	mov    $0x1,%esi
    1c13:	48 63 d2             	movslq %edx,%rdx
    1c16:	e8 05 f6 ff ff       	call   1220 <fread@plt>
    1c1b:	48 85 c0             	test   %rax,%rax
    1c1e:	75 18                	jne    1c38 <get_image+0xe4>
    1c20:	48 8b 3d f9 73 00 00 	mov    0x73f9(%rip),%rdi        # 9020 <stderr@GLIBC_2.2.5>
    1c27:	4c 89 e1             	mov    %r12,%rcx
    1c2a:	be 01 00 00 00       	mov    $0x1,%esi
    1c2f:	48 8d 15 7f 57 00 00 	lea    0x577f(%rip),%rdx        # 73b5 <_IO_stdin_used+0x3b5>
    1c36:	eb 8f                	jmp    1bc7 <get_image+0x73>
    1c38:	48 89 ef             	mov    %rbp,%rdi
    1c3b:	58                   	pop    %rax
    1c3c:	5b                   	pop    %rbx
    1c3d:	5d                   	pop    %rbp
    1c3e:	41 5c                	pop    %r12
    1c40:	41 5d                	pop    %r13
    1c42:	41 5e                	pop    %r14
    1c44:	41 5f                	pop    %r15
    1c46:	e9 f5 f5 ff ff       	jmp    1240 <fclose@plt>

0000000000001c4b <put_image>:
    1c4b:	f3 0f 1e fa          	endbr64 
    1c4f:	41 56                	push   %r14
    1c51:	41 55                	push   %r13
    1c53:	49 89 f6             	mov    %rsi,%r14
    1c56:	48 8d 35 71 57 00 00 	lea    0x5771(%rip),%rsi        # 73ce <_IO_stdin_used+0x3ce>
    1c5d:	41 89 cd             	mov    %ecx,%r13d
    1c60:	41 54                	push   %r12
    1c62:	55                   	push   %rbp
    1c63:	49 89 fc             	mov    %rdi,%r12
    1c66:	53                   	push   %rbx
    1c67:	89 d3                	mov    %edx,%ebx
    1c69:	e8 b2 f6 ff ff       	call   1320 <fopen@plt>
    1c6e:	48 85 c0             	test   %rax,%rax
    1c71:	48 8b 3d a8 73 00 00 	mov    0x73a8(%rip),%rdi        # 9020 <stderr@GLIBC_2.2.5>
    1c78:	48 8d 15 51 57 00 00 	lea    0x5751(%rip),%rdx        # 73d0 <_IO_stdin_used+0x3d0>
    1c7f:	74 66                	je     1ce7 <put_image+0x9c>
    1c81:	48 89 c6             	mov    %rax,%rsi
    1c84:	48 8d 3d 5c 57 00 00 	lea    0x575c(%rip),%rdi        # 73e7 <_IO_stdin_used+0x3e7>
    1c8b:	48 89 c5             	mov    %rax,%rbp
    1c8e:	e8 ed f5 ff ff       	call   1280 <fputs@plt>
    1c93:	89 d9                	mov    %ebx,%ecx
    1c95:	41 0f af dd          	imul   %r13d,%ebx
    1c99:	45 89 e8             	mov    %r13d,%r8d
    1c9c:	be 01 00 00 00       	mov    $0x1,%esi
    1ca1:	48 8d 15 43 57 00 00 	lea    0x5743(%rip),%rdx        # 73eb <_IO_stdin_used+0x3eb>
    1ca8:	48 89 ef             	mov    %rbp,%rdi
    1cab:	31 c0                	xor    %eax,%eax
    1cad:	e8 be f6 ff ff       	call   1370 <__fprintf_chk@plt>
    1cb2:	48 89 ee             	mov    %rbp,%rsi
    1cb5:	48 8d 3d 36 57 00 00 	lea    0x5736(%rip),%rdi        # 73f2 <_IO_stdin_used+0x3f2>
    1cbc:	e8 bf f5 ff ff       	call   1280 <fputs@plt>
    1cc1:	48 63 f3             	movslq %ebx,%rsi
    1cc4:	48 89 e9             	mov    %rbp,%rcx
    1cc7:	ba 01 00 00 00       	mov    $0x1,%edx
    1ccc:	4c 89 f7             	mov    %r14,%rdi
    1ccf:	e8 8c f6 ff ff       	call   1360 <fwrite@plt>
    1cd4:	48 ff c8             	dec    %rax
    1cd7:	74 24                	je     1cfd <put_image+0xb2>
    1cd9:	48 8b 3d 40 73 00 00 	mov    0x7340(%rip),%rdi        # 9020 <stderr@GLIBC_2.2.5>
    1ce0:	48 8d 15 10 57 00 00 	lea    0x5710(%rip),%rdx        # 73f7 <_IO_stdin_used+0x3f7>
    1ce7:	4c 89 e1             	mov    %r12,%rcx
    1cea:	be 01 00 00 00       	mov    $0x1,%esi
    1cef:	31 c0                	xor    %eax,%eax
    1cf1:	e8 7a f6 ff ff       	call   1370 <__fprintf_chk@plt>
    1cf6:	31 ff                	xor    %edi,%edi
    1cf8:	e8 53 f6 ff ff       	call   1350 <exit@plt>
    1cfd:	48 89 ef             	mov    %rbp,%rdi
    1d00:	5b                   	pop    %rbx
    1d01:	5d                   	pop    %rbp
    1d02:	41 5c                	pop    %r12
    1d04:	41 5d                	pop    %r13
    1d06:	41 5e                	pop    %r14
    1d08:	e9 33 f5 ff ff       	jmp    1240 <fclose@plt>

0000000000001d0d <int_to_uchar>:
    1d0d:	f3 0f 1e fa          	endbr64 
    1d11:	8b 07                	mov    (%rdi),%eax
    1d13:	49 89 f8             	mov    %rdi,%r8
    1d16:	49 89 f2             	mov    %rsi,%r10
    1d19:	41 89 d1             	mov    %edx,%r9d
    1d1c:	31 c9                	xor    %ecx,%ecx
    1d1e:	89 c7                	mov    %eax,%edi
    1d20:	41 39 c9             	cmp    %ecx,%r9d
    1d23:	7e 13                	jle    1d38 <int_to_uchar+0x2b>
    1d25:	41 8b 14 88          	mov    (%r8,%rcx,4),%edx
    1d29:	39 d0                	cmp    %edx,%eax
    1d2b:	0f 4c c2             	cmovl  %edx,%eax
    1d2e:	39 d7                	cmp    %edx,%edi
    1d30:	0f 4f fa             	cmovg  %edx,%edi
    1d33:	48 ff c1             	inc    %rcx
    1d36:	eb e8                	jmp    1d20 <int_to_uchar+0x13>
    1d38:	29 f8                	sub    %edi,%eax
    1d3a:	31 f6                	xor    %esi,%esi
    1d3c:	41 89 c3             	mov    %eax,%r11d
    1d3f:	41 39 f1             	cmp    %esi,%r9d
    1d42:	7e 19                	jle    1d5d <int_to_uchar+0x50>
    1d44:	41 8b 04 b0          	mov    (%r8,%rsi,4),%eax
    1d48:	29 f8                	sub    %edi,%eax
    1d4a:	69 c0 ff 00 00 00    	imul   $0xff,%eax,%eax
    1d50:	99                   	cltd   
    1d51:	41 f7 fb             	idiv   %r11d
    1d54:	41 88 04 32          	mov    %al,(%r10,%rsi,1)
    1d58:	48 ff c6             	inc    %rsi
    1d5b:	eb e2                	jmp    1d3f <int_to_uchar+0x32>
    1d5d:	c3                   	ret    

0000000000001d5e <setup_brightness_lut>:
    1d5e:	f3 0f 1e fa          	endbr64 
    1d62:	41 55                	push   %r13
    1d64:	41 54                	push   %r12
    1d66:	41 89 f5             	mov    %esi,%r13d
    1d69:	41 89 d4             	mov    %edx,%r12d
    1d6c:	55                   	push   %rbp
    1d6d:	53                   	push   %rbx
    1d6e:	48 89 fd             	mov    %rdi,%rbp
    1d71:	bf 04 02 00 00       	mov    $0x204,%edi
    1d76:	48 c7 c3 00 ff ff ff 	mov    $0xffffffffffffff00,%rbx
    1d7d:	48 83 ec 48          	sub    $0x48,%rsp
    1d81:	e8 5a f5 ff ff       	call   12e0 <malloc@plt>
    1d86:	f3 41 0f 2a d5       	cvtsi2ss %r13d,%xmm2
    1d8b:	48 05 02 01 00 00    	add    $0x102,%rax
    1d91:	48 89 45 00          	mov    %rax,0x0(%rbp)
    1d95:	66 41 0f 7e d5       	movd   %xmm2,%r13d
    1d9a:	f3 0f 2a c3          	cvtsi2ss %ebx,%xmm0
    1d9e:	44 89 6c 24 08       	mov    %r13d,0x8(%rsp)
    1da3:	41 83 fc 06          	cmp    $0x6,%r12d
    1da7:	f3 0f 11 44 24 04    	movss  %xmm0,0x4(%rsp)
    1dad:	f3 0f 10 4c 24 04    	movss  0x4(%rsp),%xmm1
    1db3:	f3 0f 5e 4c 24 08    	divss  0x8(%rsp),%xmm1
    1db9:	f3 0f 11 4c 24 0c    	movss  %xmm1,0xc(%rsp)
    1dbf:	f3 0f 5a 5c 24 0c    	cvtss2sd 0xc(%rsp),%xmm3
    1dc5:	f2 0f 11 5c 24 30    	movsd  %xmm3,0x30(%rsp)
    1dcb:	f2 0f 10 64 24 30    	movsd  0x30(%rsp),%xmm4
    1dd1:	f2 0f 59 e4          	mulsd  %xmm4,%xmm4
    1dd5:	f2 0f 11 64 24 28    	movsd  %xmm4,0x28(%rsp)
    1ddb:	75 1f                	jne    1dfc <setup_brightness_lut+0x9e>
    1ddd:	f2 0f 10 6c 24 28    	movsd  0x28(%rsp),%xmm5
    1de3:	0f 28 f5             	movaps %xmm5,%xmm6
    1de6:	f2 0f 59 f5          	mulsd  %xmm5,%xmm6
    1dea:	f2 0f 11 74 24 10    	movsd  %xmm6,0x10(%rsp)
    1df0:	f2 0f 59 6c 24 10    	mulsd  0x10(%rsp),%xmm5
    1df6:	f2 0f 11 6c 24 28    	movsd  %xmm5,0x28(%rsp)
    1dfc:	f2 0f 10 7c 24 28    	movsd  0x28(%rsp),%xmm7
    1e02:	0f 57 3d a7 57 00 00 	xorps  0x57a7(%rip),%xmm7        # 75b0 <_IO_stdin_used+0x5b0>
    1e09:	f2 0f 11 7c 24 18    	movsd  %xmm7,0x18(%rsp)
    1e0f:	f2 0f 10 44 24 18    	movsd  0x18(%rsp),%xmm0
    1e15:	e8 76 f5 ff ff       	call   1390 <exp@plt>
    1e1a:	f2 44 0f 10 05 ad 57 	movsd  0x57ad(%rip),%xmm8        # 75d0 <_IO_stdin_used+0x5d0>
    1e21:	00 00 
    1e23:	48 8b 45 00          	mov    0x0(%rbp),%rax
    1e27:	f2 0f 11 44 24 20    	movsd  %xmm0,0x20(%rsp)
    1e2d:	f2 44 0f 59 44 24 20 	mulsd  0x20(%rsp),%xmm8
    1e34:	f2 44 0f 11 44 24 38 	movsd  %xmm8,0x38(%rsp)
    1e3b:	f2 0f 2c 54 24 38    	cvttsd2si 0x38(%rsp),%edx
    1e41:	88 14 18             	mov    %dl,(%rax,%rbx,1)
    1e44:	48 ff c3             	inc    %rbx
    1e47:	48 81 fb 01 01 00 00 	cmp    $0x101,%rbx
    1e4e:	0f 85 46 ff ff ff    	jne    1d9a <setup_brightness_lut+0x3c>
    1e54:	48 83 c4 48          	add    $0x48,%rsp
    1e58:	5b                   	pop    %rbx
    1e59:	5d                   	pop    %rbp
    1e5a:	41 5c                	pop    %r12
    1e5c:	41 5d                	pop    %r13
    1e5e:	c3                   	ret    

0000000000001e5f <free_brightness_lut>:
    1e5f:	f3 0f 1e fa          	endbr64 
    1e63:	48 81 ef 02 01 00 00 	sub    $0x102,%rdi
    1e6a:	e9 91 f3 ff ff       	jmp    1200 <free@plt>

0000000000001e6f <susan_principle>:
    1e6f:	f3 0f 1e fa          	endbr64 
    1e73:	49 89 d3             	mov    %rdx,%r11
    1e76:	49 63 d0             	movslq %r8d,%rdx
    1e79:	41 89 ca             	mov    %ecx,%r10d
    1e7c:	44 89 c9             	mov    %r9d,%ecx
    1e7f:	41 57                	push   %r15
    1e81:	0f af ca             	imul   %edx,%ecx
    1e84:	31 c0                	xor    %eax,%eax
    1e86:	49 89 d7             	mov    %rdx,%r15
    1e89:	41 56                	push   %r14
    1e8b:	41 55                	push   %r13
    1e8d:	41 54                	push   %r12
    1e8f:	48 63 c9             	movslq %ecx,%rcx
    1e92:	55                   	push   %rbp
    1e93:	48 c1 e1 02          	shl    $0x2,%rcx
    1e97:	48 8d 2c 92          	lea    (%rdx,%rdx,4),%rbp
    1e9b:	53                   	push   %rbx
    1e9c:	48 8d 1c 95 00 00 00 	lea    0x0(,%rdx,4),%rbx
    1ea3:	00 
    1ea4:	44 89 4c 24 cc       	mov    %r9d,-0x34(%rsp)
    1ea9:	49 89 f9             	mov    %rdi,%r9
    1eac:	48 8d 3c 12          	lea    (%rdx,%rdx,1),%rdi
    1eb0:	48 89 74 24 c0       	mov    %rsi,-0x40(%rsp)
    1eb5:	48 89 7c 24 f0       	mov    %rdi,-0x10(%rsp)
    1eba:	48 8b 7c 24 c0       	mov    -0x40(%rsp),%rdi
    1ebf:	8d 34 52             	lea    (%rdx,%rdx,2),%esi
    1ec2:	4c 89 5c 24 e8       	mov    %r11,-0x18(%rsp)
    1ec7:	f3 aa                	rep stos %al,%es:(%rdi)
    1ec9:	44 89 54 24 c8       	mov    %r10d,-0x38(%rsp)
    1ece:	c7 44 24 b8 00 00 00 	movl   $0x0,-0x48(%rsp)
    1ed5:	00 
    1ed6:	c7 44 24 ac 03 00 00 	movl   $0x3,-0x54(%rsp)
    1edd:	00 
    1ede:	89 74 24 bc          	mov    %esi,-0x44(%rsp)
    1ee2:	48 89 5c 24 d0       	mov    %rbx,-0x30(%rsp)
    1ee7:	48 89 6c 24 d8       	mov    %rbp,-0x28(%rsp)
    1eec:	48 63 4c 24 bc       	movslq -0x44(%rsp),%rcx
    1ef1:	44 8b 44 24 cc       	mov    -0x34(%rsp),%r8d
    1ef6:	4c 8b 64 24 c0       	mov    -0x40(%rsp),%r12
    1efb:	48 63 74 24 b8       	movslq -0x48(%rsp),%rsi
    1f00:	41 83 e8 03          	sub    $0x3,%r8d
    1f04:	44 3b 44 24 ac       	cmp    -0x54(%rsp),%r8d
    1f09:	48 89 4c 24 b0       	mov    %rcx,-0x50(%rsp)
    1f0e:	48 c7 44 24 a0 03 00 	movq   $0x3,-0x60(%rsp)
    1f15:	00 00 
    1f17:	4d 8d 34 8c          	lea    (%r12,%rcx,4),%r14
    1f1b:	4c 89 74 24 e0       	mov    %r14,-0x20(%rsp)
    1f20:	0f 8e b0 03 00 00    	jle    22d6 <susan_principle+0x467>
    1f26:	4c 8b 5c 24 f0       	mov    -0x10(%rsp),%r11
    1f2b:	4c 8b 54 24 d0       	mov    -0x30(%rsp),%r10
    1f30:	48 8b 44 24 d8       	mov    -0x28(%rsp),%rax
    1f35:	4a 8d 0c 1e          	lea    (%rsi,%r11,1),%rcx
    1f39:	4e 8d 04 16          	lea    (%rsi,%r10,1),%r8
    1f3d:	48 8d 3c 06          	lea    (%rsi,%rax,1),%rdi
    1f41:	4c 01 ce             	add    %r9,%rsi
    1f44:	4c 01 c9             	add    %r9,%rcx
    1f47:	4d 01 c8             	add    %r9,%r8
    1f4a:	4c 01 cf             	add    %r9,%rdi
    1f4d:	41 8d 5f fd          	lea    -0x3(%r15),%ebx
    1f51:	3b 5c 24 a0          	cmp    -0x60(%rsp),%ebx
    1f55:	0f 8e 68 03 00 00    	jle    22c3 <susan_principle+0x454>
    1f5b:	48 8b 6c 24 b0       	mov    -0x50(%rsp),%rbp
    1f60:	4c 8b 6c 24 a0       	mov    -0x60(%rsp),%r13
    1f65:	44 0f b6 66 02       	movzbl 0x2(%rsi),%r12d
    1f6a:	44 0f b6 5e 03       	movzbl 0x3(%rsi),%r11d
    1f6f:	4c 01 cd             	add    %r9,%rbp
    1f72:	44 0f b6 56 04       	movzbl 0x4(%rsi),%r10d
    1f77:	44 0f b6 74 16 01    	movzbl 0x1(%rsi,%rdx,1),%r14d
    1f7d:	42 0f b6 44 2d 00    	movzbl 0x0(%rbp,%r13,1),%eax
    1f83:	44 0f b6 6c 16 04    	movzbl 0x4(%rsi,%rdx,1),%r13d
    1f89:	48 03 44 24 e8       	add    -0x18(%rsp),%rax
    1f8e:	0f b6 5c 16 02       	movzbl 0x2(%rsi,%rdx,1),%ebx
    1f93:	4c 89 6c 24 f8       	mov    %r13,-0x8(%rsp)
    1f98:	49 89 c5             	mov    %rax,%r13
    1f9b:	0f b6 6c 16 03       	movzbl 0x3(%rsi,%rdx,1),%ebp
    1fa0:	4d 29 e5             	sub    %r12,%r13
    1fa3:	49 89 c4             	mov    %rax,%r12
    1fa6:	45 0f b6 6d 00       	movzbl 0x0(%r13),%r13d
    1fab:	4d 29 dc             	sub    %r11,%r12
    1fae:	49 89 c3             	mov    %rax,%r11
    1fb1:	45 0f b6 24 24       	movzbl (%r12),%r12d
    1fb6:	4d 29 d3             	sub    %r10,%r11
    1fb9:	49 89 c2             	mov    %rax,%r10
    1fbc:	45 0f b6 1b          	movzbl (%r11),%r11d
    1fc0:	4d 29 f2             	sub    %r14,%r10
    1fc3:	45 89 ee             	mov    %r13d,%r14d
    1fc6:	45 89 e5             	mov    %r12d,%r13d
    1fc9:	49 89 c4             	mov    %rax,%r12
    1fcc:	45 0f b6 12          	movzbl (%r10),%r10d
    1fd0:	49 29 dc             	sub    %rbx,%r12
    1fd3:	48 89 c3             	mov    %rax,%rbx
    1fd6:	47 8d 6c 2e 64       	lea    0x64(%r14,%r13,1),%r13d
    1fdb:	48 29 eb             	sub    %rbp,%rbx
    1fde:	44 89 dd             	mov    %r11d,%ebp
    1fe1:	45 89 d3             	mov    %r10d,%r11d
    1fe4:	41 01 ed             	add    %ebp,%r13d
    1fe7:	45 0f b6 24 24       	movzbl (%r12),%r12d
    1fec:	0f b6 29             	movzbl (%rcx),%ebp
    1fef:	49 89 c2             	mov    %rax,%r10
    1ff2:	45 01 dd             	add    %r11d,%r13d
    1ff5:	0f b6 1b             	movzbl (%rbx),%ebx
    1ff8:	49 89 c3             	mov    %rax,%r11
    1ffb:	4c 2b 54 24 f8       	sub    -0x8(%rsp),%r10
    2000:	44 0f b6 74 16 05    	movzbl 0x5(%rsi,%rdx,1),%r14d
    2006:	45 01 e5             	add    %r12d,%r13d
    2009:	49 89 c4             	mov    %rax,%r12
    200c:	45 0f b6 12          	movzbl (%r10),%r10d
    2010:	49 29 ec             	sub    %rbp,%r12
    2013:	0f b6 69 01          	movzbl 0x1(%rcx),%ebp
    2017:	41 01 dd             	add    %ebx,%r13d
    201a:	4d 29 f3             	sub    %r14,%r11
    201d:	41 0f b6 1c 24       	movzbl (%r12),%ebx
    2022:	49 89 c4             	mov    %rax,%r12
    2025:	45 01 d5             	add    %r10d,%r13d
    2028:	49 89 ee             	mov    %rbp,%r14
    202b:	0f b6 69 02          	movzbl 0x2(%rcx),%ebp
    202f:	45 0f b6 1b          	movzbl (%r11),%r11d
    2033:	4d 29 f4             	sub    %r14,%r12
    2036:	44 0f b6 71 03       	movzbl 0x3(%rcx),%r14d
    203b:	45 0f b6 14 24       	movzbl (%r12),%r10d
    2040:	49 89 c4             	mov    %rax,%r12
    2043:	45 01 dd             	add    %r11d,%r13d
    2046:	49 29 ec             	sub    %rbp,%r12
    2049:	0f b6 69 04          	movzbl 0x4(%rcx),%ebp
    204d:	41 01 dd             	add    %ebx,%r13d
    2050:	45 0f b6 1c 24       	movzbl (%r12),%r11d
    2055:	49 89 c4             	mov    %rax,%r12
    2058:	0f b6 59 05          	movzbl 0x5(%rcx),%ebx
    205c:	45 01 d5             	add    %r10d,%r13d
    205f:	4d 29 f4             	sub    %r14,%r12
    2062:	44 0f b6 51 06       	movzbl 0x6(%rcx),%r10d
    2067:	45 0f b6 24 24       	movzbl (%r12),%r12d
    206c:	49 89 de             	mov    %rbx,%r14
    206f:	45 01 dd             	add    %r11d,%r13d
    2072:	44 0f b6 1c 11       	movzbl (%rcx,%rdx,1),%r11d
    2077:	44 89 e3             	mov    %r12d,%ebx
    207a:	49 89 c4             	mov    %rax,%r12
    207d:	41 01 dd             	add    %ebx,%r13d
    2080:	49 29 ec             	sub    %rbp,%r12
    2083:	4c 89 d5             	mov    %r10,%rbp
    2086:	0f b6 5c 11 01       	movzbl 0x1(%rcx,%rdx,1),%ebx
    208b:	45 0f b6 14 24       	movzbl (%r12),%r10d
    2090:	49 89 c4             	mov    %rax,%r12
    2093:	4d 29 f4             	sub    %r14,%r12
    2096:	4d 89 de             	mov    %r11,%r14
    2099:	45 01 d5             	add    %r10d,%r13d
    209c:	45 0f b6 1c 24       	movzbl (%r12),%r11d
    20a1:	49 89 c4             	mov    %rax,%r12
    20a4:	44 0f b6 54 11 02    	movzbl 0x2(%rcx,%rdx,1),%r10d
    20aa:	49 29 ec             	sub    %rbp,%r12
    20ad:	45 0f b6 24 24       	movzbl (%r12),%r12d
    20b2:	48 89 dd             	mov    %rbx,%rbp
    20b5:	45 01 dd             	add    %r11d,%r13d
    20b8:	44 0f b6 5c 11 04    	movzbl 0x4(%rcx,%rdx,1),%r11d
    20be:	44 89 e3             	mov    %r12d,%ebx
    20c1:	49 89 c4             	mov    %rax,%r12
    20c4:	41 01 dd             	add    %ebx,%r13d
    20c7:	4d 29 f4             	sub    %r14,%r12
    20ca:	4d 89 d6             	mov    %r10,%r14
    20cd:	0f b6 5c 11 05       	movzbl 0x5(%rcx,%rdx,1),%ebx
    20d2:	45 0f b6 14 24       	movzbl (%r12),%r10d
    20d7:	49 89 c4             	mov    %rax,%r12
    20da:	49 29 ec             	sub    %rbp,%r12
    20dd:	4c 89 dd             	mov    %r11,%rbp
    20e0:	45 01 d5             	add    %r10d,%r13d
    20e3:	45 0f b6 1c 24       	movzbl (%r12),%r11d
    20e8:	49 89 c4             	mov    %rax,%r12
    20eb:	44 0f b6 54 11 06    	movzbl 0x6(%rcx,%rdx,1),%r10d
    20f1:	4d 29 f4             	sub    %r14,%r12
    20f4:	45 0f b6 24 24       	movzbl (%r12),%r12d
    20f9:	49 89 de             	mov    %rbx,%r14
    20fc:	45 01 dd             	add    %r11d,%r13d
    20ff:	45 0f b6 18          	movzbl (%r8),%r11d
    2103:	44 89 e3             	mov    %r12d,%ebx
    2106:	49 89 c4             	mov    %rax,%r12
    2109:	41 01 dd             	add    %ebx,%r13d
    210c:	49 29 ec             	sub    %rbp,%r12
    210f:	4c 89 d5             	mov    %r10,%rbp
    2112:	41 0f b6 58 01       	movzbl 0x1(%r8),%ebx
    2117:	45 0f b6 14 24       	movzbl (%r12),%r10d
    211c:	49 89 c4             	mov    %rax,%r12
    211f:	4d 29 f4             	sub    %r14,%r12
    2122:	4d 89 de             	mov    %r11,%r14
    2125:	45 01 d5             	add    %r10d,%r13d
    2128:	45 0f b6 1c 24       	movzbl (%r12),%r11d
    212d:	49 89 c4             	mov    %rax,%r12
    2130:	45 0f b6 50 02       	movzbl 0x2(%r8),%r10d
    2135:	49 29 ec             	sub    %rbp,%r12
    2138:	45 0f b6 24 24       	movzbl (%r12),%r12d
    213d:	48 89 dd             	mov    %rbx,%rbp
    2140:	45 01 dd             	add    %r11d,%r13d
    2143:	45 0f b6 58 03       	movzbl 0x3(%r8),%r11d
    2148:	44 89 e3             	mov    %r12d,%ebx
    214b:	49 89 c4             	mov    %rax,%r12
    214e:	41 01 dd             	add    %ebx,%r13d
    2151:	4d 29 f4             	sub    %r14,%r12
    2154:	4d 89 d6             	mov    %r10,%r14
    2157:	41 0f b6 58 04       	movzbl 0x4(%r8),%ebx
    215c:	45 0f b6 14 24       	movzbl (%r12),%r10d
    2161:	49 89 c4             	mov    %rax,%r12
    2164:	49 29 ec             	sub    %rbp,%r12
    2167:	4c 89 dd             	mov    %r11,%rbp
    216a:	45 01 d5             	add    %r10d,%r13d
    216d:	45 0f b6 1c 24       	movzbl (%r12),%r11d
    2172:	49 89 c4             	mov    %rax,%r12
    2175:	45 0f b6 50 05       	movzbl 0x5(%r8),%r10d
    217a:	4d 29 f4             	sub    %r14,%r12
    217d:	45 0f b6 24 24       	movzbl (%r12),%r12d
    2182:	49 89 de             	mov    %rbx,%r14
    2185:	45 01 dd             	add    %r11d,%r13d
    2188:	45 0f b6 58 06       	movzbl 0x6(%r8),%r11d
    218d:	44 89 e3             	mov    %r12d,%ebx
    2190:	49 89 c4             	mov    %rax,%r12
    2193:	41 01 dd             	add    %ebx,%r13d
    2196:	49 29 ec             	sub    %rbp,%r12
    2199:	4c 89 d5             	mov    %r10,%rbp
    219c:	0f b6 5f 01          	movzbl 0x1(%rdi),%ebx
    21a0:	45 0f b6 14 24       	movzbl (%r12),%r10d
    21a5:	49 89 c4             	mov    %rax,%r12
    21a8:	4d 29 f4             	sub    %r14,%r12
    21ab:	4d 89 de             	mov    %r11,%r14
    21ae:	45 01 d5             	add    %r10d,%r13d
    21b1:	45 0f b6 1c 24       	movzbl (%r12),%r11d
    21b6:	49 89 c4             	mov    %rax,%r12
    21b9:	44 0f b6 57 02       	movzbl 0x2(%rdi),%r10d
    21be:	49 29 ec             	sub    %rbp,%r12
    21c1:	48 89 dd             	mov    %rbx,%rbp
    21c4:	41 0f b6 1c 24       	movzbl (%r12),%ebx
    21c9:	49 89 c4             	mov    %rax,%r12
    21cc:	45 01 dd             	add    %r11d,%r13d
    21cf:	4d 29 f4             	sub    %r14,%r12
    21d2:	4d 89 d6             	mov    %r10,%r14
    21d5:	44 0f b6 5f 03       	movzbl 0x3(%rdi),%r11d
    21da:	45 0f b6 14 24       	movzbl (%r12),%r10d
    21df:	49 89 c4             	mov    %rax,%r12
    21e2:	41 01 dd             	add    %ebx,%r13d
    21e5:	49 29 ec             	sub    %rbp,%r12
    21e8:	4c 89 dd             	mov    %r11,%rbp
    21eb:	0f b6 5f 04          	movzbl 0x4(%rdi),%ebx
    21ef:	45 0f b6 1c 24       	movzbl (%r12),%r11d
    21f4:	49 89 c4             	mov    %rax,%r12
    21f7:	45 01 d5             	add    %r10d,%r13d
    21fa:	4d 29 f4             	sub    %r14,%r12
    21fd:	49 89 de             	mov    %rbx,%r14
    2200:	44 0f b6 57 05       	movzbl 0x5(%rdi),%r10d
    2205:	41 0f b6 1c 24       	movzbl (%r12),%ebx
    220a:	49 89 c4             	mov    %rax,%r12
    220d:	45 01 dd             	add    %r11d,%r13d
    2210:	49 29 ec             	sub    %rbp,%r12
    2213:	4c 89 d5             	mov    %r10,%rbp
    2216:	44 0f b6 5c 17 02    	movzbl 0x2(%rdi,%rdx,1),%r11d
    221c:	45 0f b6 14 24       	movzbl (%r12),%r10d
    2221:	49 89 c4             	mov    %rax,%r12
    2224:	41 01 dd             	add    %ebx,%r13d
    2227:	4d 29 f4             	sub    %r14,%r12
    222a:	4d 89 de             	mov    %r11,%r14
    222d:	0f b6 5c 17 03       	movzbl 0x3(%rdi,%rdx,1),%ebx
    2232:	45 0f b6 1c 24       	movzbl (%r12),%r11d
    2237:	49 89 c4             	mov    %rax,%r12
    223a:	45 01 d5             	add    %r10d,%r13d
    223d:	49 29 ec             	sub    %rbp,%r12
    2240:	48 89 dd             	mov    %rbx,%rbp
    2243:	44 0f b6 54 17 04    	movzbl 0x4(%rdi,%rdx,1),%r10d
    2249:	41 0f b6 1c 24       	movzbl (%r12),%ebx
    224e:	49 89 c4             	mov    %rax,%r12
    2251:	45 01 dd             	add    %r11d,%r13d
    2254:	4d 29 f4             	sub    %r14,%r12
    2257:	4d 89 d6             	mov    %r10,%r14
    225a:	45 0f b6 14 24       	movzbl (%r12),%r10d
    225f:	49 89 c4             	mov    %rax,%r12
    2262:	41 01 dd             	add    %ebx,%r13d
    2265:	49 29 ec             	sub    %rbp,%r12
    2268:	4c 29 f0             	sub    %r14,%rax
    226b:	45 0f b6 1c 24       	movzbl (%r12),%r11d
    2270:	45 01 ea             	add    %r13d,%r10d
    2273:	0f b6 00             	movzbl (%rax),%eax
    2276:	45 01 d3             	add    %r10d,%r11d
    2279:	41 01 c3             	add    %eax,%r11d
    227c:	44 3b 5c 24 c8       	cmp    -0x38(%rsp),%r11d
    2281:	7f 2a                	jg     22ad <susan_principle+0x43e>
    2283:	44 8b 6c 24 c8       	mov    -0x38(%rsp),%r13d
    2288:	48 ff c6             	inc    %rsi
    228b:	48 ff c1             	inc    %rcx
    228e:	49 ff c0             	inc    %r8
    2291:	48 8b 6c 24 e0       	mov    -0x20(%rsp),%rbp
    2296:	48 8b 5c 24 a0       	mov    -0x60(%rsp),%rbx
    229b:	48 ff c7             	inc    %rdi
    229e:	45 29 dd             	sub    %r11d,%r13d
    22a1:	48 ff 44 24 a0       	incq   -0x60(%rsp)
    22a6:	44 89 6c 9d 00       	mov    %r13d,0x0(%rbp,%rbx,4)
    22ab:	eb 11                	jmp    22be <susan_principle+0x44f>
    22ad:	48 ff c6             	inc    %rsi
    22b0:	48 ff c1             	inc    %rcx
    22b3:	49 ff c0             	inc    %r8
    22b6:	48 ff c7             	inc    %rdi
    22b9:	48 ff 44 24 a0       	incq   -0x60(%rsp)
    22be:	e9 8a fc ff ff       	jmp    1f4d <susan_principle+0xde>
    22c3:	ff 44 24 ac          	incl   -0x54(%rsp)
    22c7:	44 01 7c 24 b8       	add    %r15d,-0x48(%rsp)
    22cc:	44 01 7c 24 bc       	add    %r15d,-0x44(%rsp)
    22d1:	e9 16 fc ff ff       	jmp    1eec <susan_principle+0x7d>
    22d6:	5b                   	pop    %rbx
    22d7:	5d                   	pop    %rbp
    22d8:	41 5c                	pop    %r12
    22da:	41 5d                	pop    %r13
    22dc:	41 5e                	pop    %r14
    22de:	41 5f                	pop    %r15
    22e0:	c3                   	ret    

00000000000022e1 <susan_principle_small>:
    22e1:	f3 0f 1e fa          	endbr64 
    22e5:	41 57                	push   %r15
    22e7:	44 89 c9             	mov    %r9d,%ecx
    22ea:	31 c0                	xor    %eax,%eax
    22ec:	41 56                	push   %r14
    22ee:	41 0f af c8          	imul   %r8d,%ecx
    22f2:	41 55                	push   %r13
    22f4:	41 54                	push   %r12
    22f6:	55                   	push   %rbp
    22f7:	48 63 c9             	movslq %ecx,%rcx
    22fa:	45 8d 60 ff          	lea    -0x1(%r8),%r12d
    22fe:	53                   	push   %rbx
    22ff:	48 c1 e1 02          	shl    $0x2,%rcx
    2303:	44 89 4c 24 dc       	mov    %r9d,-0x24(%rsp)
    2308:	4d 63 c8             	movslq %r8d,%r9
    230b:	48 89 74 24 d0       	mov    %rsi,-0x30(%rsp)
    2310:	48 89 fe             	mov    %rdi,%rsi
    2313:	4b 8d 3c 09          	lea    (%r9,%r9,1),%rdi
    2317:	48 8b 5c 24 d0       	mov    -0x30(%rsp),%rbx
    231c:	48 89 7c 24 f0       	mov    %rdi,-0x10(%rsp)
    2321:	48 89 df             	mov    %rbx,%rdi
    2324:	48 89 54 24 e8       	mov    %rdx,-0x18(%rsp)
    2329:	f3 aa                	rep stos %al,%es:(%rdi)
    232b:	44 89 44 24 d8       	mov    %r8d,-0x28(%rsp)
    2330:	c7 44 24 cc 00 00 00 	movl   $0x0,-0x34(%rsp)
    2337:	00 
    2338:	8b 5c 24 dc          	mov    -0x24(%rsp),%ebx
    233c:	bf 01 00 00 00       	mov    $0x1,%edi
    2341:	c7 44 24 c8 01 00 00 	movl   $0x1,-0x38(%rsp)
    2348:	00 
    2349:	48 8b 6c 24 d0       	mov    -0x30(%rsp),%rbp
    234e:	4c 63 7c 24 d8       	movslq -0x28(%rsp),%r15
    2353:	ff cb                	dec    %ebx
    2355:	3b 5c 24 c8          	cmp    -0x38(%rsp),%ebx
    2359:	48 63 54 24 cc       	movslq -0x34(%rsp),%rdx
    235e:	4e 8d 54 bd 00       	lea    0x0(%rbp,%r15,4),%r10
    2363:	4e 8d 2c 3e          	lea    (%rsi,%r15,1),%r13
    2367:	4c 89 54 24 e0       	mov    %r10,-0x20(%rsp)
    236c:	0f 8e 19 01 00 00    	jle    248b <susan_principle_small+0x1aa>
    2372:	4c 8b 5c 24 f0       	mov    -0x10(%rsp),%r11
    2377:	4a 8d 0c 1a          	lea    (%rdx,%r11,1),%rcx
    237b:	48 01 f2             	add    %rsi,%rdx
    237e:	48 01 f1             	add    %rsi,%rcx
    2381:	41 39 fc             	cmp    %edi,%r12d
    2384:	0f 8e dc 00 00 00    	jle    2466 <susan_principle_small+0x185>
    238a:	41 0f b6 44 3d 00    	movzbl 0x0(%r13,%rdi,1),%eax
    2390:	44 0f b6 69 01       	movzbl 0x1(%rcx),%r13d
    2395:	48 03 44 24 e8       	add    -0x18(%rsp),%rax
    239a:	44 0f b6 22          	movzbl (%rdx),%r12d
    239e:	44 0f b6 5a 01       	movzbl 0x1(%rdx),%r11d
    23a3:	44 0f b6 52 02       	movzbl 0x2(%rdx),%r10d
    23a8:	4c 89 6c 24 f8       	mov    %r13,-0x8(%rsp)
    23ad:	49 89 c5             	mov    %rax,%r13
    23b0:	46 0f b6 34 0a       	movzbl (%rdx,%r9,1),%r14d
    23b5:	42 0f b6 5c 0a 02    	movzbl 0x2(%rdx,%r9,1),%ebx
    23bb:	4d 29 e5             	sub    %r12,%r13
    23be:	49 89 c4             	mov    %rax,%r12
    23c1:	0f b6 29             	movzbl (%rcx),%ebp
    23c4:	4d 29 dc             	sub    %r11,%r12
    23c7:	49 89 c3             	mov    %rax,%r11
    23ca:	45 0f b6 6d 00       	movzbl 0x0(%r13),%r13d
    23cf:	45 0f b6 24 24       	movzbl (%r12),%r12d
    23d4:	4d 29 d3             	sub    %r10,%r11
    23d7:	49 89 c2             	mov    %rax,%r10
    23da:	4d 29 f2             	sub    %r14,%r10
    23dd:	45 89 ee             	mov    %r13d,%r14d
    23e0:	45 89 e5             	mov    %r12d,%r13d
    23e3:	49 89 c4             	mov    %rax,%r12
    23e6:	45 0f b6 1b          	movzbl (%r11),%r11d
    23ea:	45 0f b6 12          	movzbl (%r10),%r10d
    23ee:	49 29 dc             	sub    %rbx,%r12
    23f1:	48 89 c3             	mov    %rax,%rbx
    23f4:	47 8d 6c 2e 64       	lea    0x64(%r14,%r13,1),%r13d
    23f9:	48 29 eb             	sub    %rbp,%rbx
    23fc:	44 89 dd             	mov    %r11d,%ebp
    23ff:	45 0f b6 24 24       	movzbl (%r12),%r12d
    2404:	44 0f b6 71 02       	movzbl 0x2(%rcx),%r14d
    2409:	41 01 ed             	add    %ebp,%r13d
    240c:	0f b6 1b             	movzbl (%rbx),%ebx
    240f:	49 89 c3             	mov    %rax,%r11
    2412:	45 01 d5             	add    %r10d,%r13d
    2415:	4c 2b 5c 24 f8       	sub    -0x8(%rsp),%r11
    241a:	4c 29 f0             	sub    %r14,%rax
    241d:	45 01 e5             	add    %r12d,%r13d
    2420:	41 0f b6 2b          	movzbl (%r11),%ebp
    2424:	0f b6 00             	movzbl (%rax),%eax
    2427:	41 ba da 02 00 00    	mov    $0x2da,%r10d
    242d:	44 01 eb             	add    %r13d,%ebx
    2430:	4e 8d 2c 3e          	lea    (%rsi,%r15,1),%r13
    2434:	45 8d 60 ff          	lea    -0x1(%r8),%r12d
    2438:	01 dd                	add    %ebx,%ebp
    243a:	01 c5                	add    %eax,%ebp
    243c:	81 fd da 02 00 00    	cmp    $0x2da,%ebp
    2442:	7f 14                	jg     2458 <susan_principle_small+0x177>
    2444:	4c 8b 5c 24 e0       	mov    -0x20(%rsp),%r11
    2449:	41 29 ea             	sub    %ebp,%r10d
    244c:	48 ff c2             	inc    %rdx
    244f:	48 ff c1             	inc    %rcx
    2452:	45 89 14 bb          	mov    %r10d,(%r11,%rdi,4)
    2456:	eb 06                	jmp    245e <susan_principle_small+0x17d>
    2458:	48 ff c2             	inc    %rdx
    245b:	48 ff c1             	inc    %rcx
    245e:	48 ff c7             	inc    %rdi
    2461:	e9 1b ff ff ff       	jmp    2381 <susan_principle_small+0xa0>
    2466:	ff 44 24 c8          	incl   -0x38(%rsp)
    246a:	8b 5c 24 dc          	mov    -0x24(%rsp),%ebx
    246e:	bf 01 00 00 00       	mov    $0x1,%edi
    2473:	44 01 44 24 cc       	add    %r8d,-0x34(%rsp)
    2478:	48 8b 6c 24 d0       	mov    -0x30(%rsp),%rbp
    247d:	45 8d 60 ff          	lea    -0x1(%r8),%r12d
    2481:	44 01 44 24 d8       	add    %r8d,-0x28(%rsp)
    2486:	e9 c3 fe ff ff       	jmp    234e <susan_principle_small+0x6d>
    248b:	5b                   	pop    %rbx
    248c:	5d                   	pop    %rbp
    248d:	41 5c                	pop    %r12
    248f:	41 5d                	pop    %r13
    2491:	41 5e                	pop    %r14
    2493:	41 5f                	pop    %r15
    2495:	c3                   	ret    

0000000000002496 <median>:
    2496:	f3 0f 1e fa          	endbr64 
    249a:	8d 46 ff             	lea    -0x1(%rsi),%eax
    249d:	48 83 ec 38          	sub    $0x38,%rsp
    24a1:	48 89 fe             	mov    %rdi,%rsi
    24a4:	41 b8 07 00 00 00    	mov    $0x7,%r8d
    24aa:	64 48 8b 3c 25 28 00 	mov    %fs:0x28,%rdi
    24b1:	00 00 
    24b3:	48 89 7c 24 28       	mov    %rdi,0x28(%rsp)
    24b8:	31 ff                	xor    %edi,%edi
    24ba:	0f af c1             	imul   %ecx,%eax
    24bd:	8d 3c 10             	lea    (%rax,%rdx,1),%edi
    24c0:	4c 63 df             	movslq %edi,%r11
    24c3:	01 c8                	add    %ecx,%eax
    24c5:	46 0f b6 54 1e ff    	movzbl -0x1(%rsi,%r11,1),%r10d
    24cb:	44 8d 0c 10          	lea    (%rax,%rdx,1),%r9d
    24cf:	01 c8                	add    %ecx,%eax
    24d1:	44 89 54 24 08       	mov    %r10d,0x8(%rsp)
    24d6:	01 d0                	add    %edx,%eax
    24d8:	42 0f b6 14 1e       	movzbl (%rsi,%r11,1),%edx
    24dd:	49 63 c9             	movslq %r9d,%rcx
    24e0:	48 98                	cltq   
    24e2:	89 54 24 0c          	mov    %edx,0xc(%rsp)
    24e6:	42 0f b6 7c 1e 01    	movzbl 0x1(%rsi,%r11,1),%edi
    24ec:	31 d2                	xor    %edx,%edx
    24ee:	89 7c 24 10          	mov    %edi,0x10(%rsp)
    24f2:	44 0f b6 5c 0e ff    	movzbl -0x1(%rsi,%rcx,1),%r11d
    24f8:	48 8d 7c 24 08       	lea    0x8(%rsp),%rdi
    24fd:	44 89 5c 24 14       	mov    %r11d,0x14(%rsp)
    2502:	44 0f b6 4c 0e 01    	movzbl 0x1(%rsi,%rcx,1),%r9d
    2508:	44 89 4c 24 18       	mov    %r9d,0x18(%rsp)
    250d:	44 0f b6 54 06 ff    	movzbl -0x1(%rsi,%rax,1),%r10d
    2513:	44 89 54 24 1c       	mov    %r10d,0x1c(%rsp)
    2518:	0f b6 0c 06          	movzbl (%rsi,%rax,1),%ecx
    251c:	89 4c 24 20          	mov    %ecx,0x20(%rsp)
    2520:	0f b6 44 06 01       	movzbl 0x1(%rsi,%rax,1),%eax
    2525:	89 44 24 24          	mov    %eax,0x24(%rsp)
    2529:	44 39 c2             	cmp    %r8d,%edx
    252c:	7d 19                	jge    2547 <median+0xb1>
    252e:	44 8b 1f             	mov    (%rdi),%r11d
    2531:	8b 77 04             	mov    0x4(%rdi),%esi
    2534:	ff c2                	inc    %edx
    2536:	41 39 f3             	cmp    %esi,%r11d
    2539:	7e 06                	jle    2541 <median+0xab>
    253b:	89 37                	mov    %esi,(%rdi)
    253d:	44 89 5f 04          	mov    %r11d,0x4(%rdi)
    2541:	48 83 c7 04          	add    $0x4,%rdi
    2545:	eb e2                	jmp    2529 <median+0x93>
    2547:	41 ff c8             	dec    %r8d
    254a:	ba 00 00 00 00       	mov    $0x0,%edx
    254f:	48 8d 7c 24 08       	lea    0x8(%rsp),%rdi
    2554:	75 d3                	jne    2529 <median+0x93>
    2556:	8b 44 24 18          	mov    0x18(%rsp),%eax
    255a:	03 44 24 14          	add    0x14(%rsp),%eax
    255e:	41 b9 02 00 00 00    	mov    $0x2,%r9d
    2564:	99                   	cltd   
    2565:	41 f7 f9             	idiv   %r9d
    2568:	48 8b 54 24 28       	mov    0x28(%rsp),%rdx
    256d:	64 48 2b 14 25 28 00 	sub    %fs:0x28,%rdx
    2574:	00 00 
    2576:	74 05                	je     257d <median+0xe7>
    2578:	e8 e3 ec ff ff       	call   1260 <__stack_chk_fail@plt>
    257d:	48 83 c4 38          	add    $0x38,%rsp
    2581:	c3                   	ret    

0000000000002582 <enlarge>:
    2582:	f3 0f 1e fa          	endbr64 
    2586:	41 57                	push   %r15
    2588:	49 89 ca             	mov    %rcx,%r10
    258b:	49 89 fb             	mov    %rdi,%r11
    258e:	49 89 d1             	mov    %rdx,%r9
    2591:	41 56                	push   %r14
    2593:	48 89 f2             	mov    %rsi,%rdx
    2596:	31 c0                	xor    %eax,%eax
    2598:	41 55                	push   %r13
    259a:	41 54                	push   %r12
    259c:	55                   	push   %rbp
    259d:	49 63 e8             	movslq %r8d,%rbp
    25a0:	53                   	push   %rbx
    25a1:	43 8d 1c 00          	lea    (%r8,%r8,1),%ebx
    25a5:	42 8d 3c 00          	lea    (%rax,%r8,1),%edi
    25a9:	41 8b 31             	mov    (%r9),%esi
    25ac:	41 39 02             	cmp    %eax,(%r10)
    25af:	7e 26                	jle    25d7 <enlarge+0x55>
    25b1:	44 8d 24 33          	lea    (%rbx,%rsi,1),%r12d
    25b5:	48 63 ce             	movslq %esi,%rcx
    25b8:	44 0f af e7          	imul   %edi,%r12d
    25bc:	0f af f0             	imul   %eax,%esi
    25bf:	ff c0                	inc    %eax
    25c1:	49 63 fc             	movslq %r12d,%rdi
    25c4:	48 01 ef             	add    %rbp,%rdi
    25c7:	49 63 e8             	movslq %r8d,%rbp
    25ca:	48 63 f6             	movslq %esi,%rsi
    25cd:	48 01 d7             	add    %rdx,%rdi
    25d0:	49 03 33             	add    (%r11),%rsi
    25d3:	f3 a4                	rep movsb %ds:(%rsi),%es:(%rdi)
    25d5:	eb ce                	jmp    25a5 <enlarge+0x23>
    25d7:	31 ed                	xor    %ebp,%ebp
    25d9:	4d 63 e8             	movslq %r8d,%r13
    25dc:	45 89 c7             	mov    %r8d,%r15d
    25df:	41 89 ec             	mov    %ebp,%r12d
    25e2:	ff c5                	inc    %ebp
    25e4:	45 8b 31             	mov    (%r9),%r14d
    25e7:	45 39 c4             	cmp    %r8d,%r12d
    25ea:	7d 66                	jge    2652 <enlarge+0xd0>
    25ec:	41 29 ef             	sub    %ebp,%r15d
    25ef:	42 8d 04 33          	lea    (%rbx,%r14,1),%eax
    25f3:	49 63 ce             	movslq %r14d,%rcx
    25f6:	41 0f af c7          	imul   %r15d,%eax
    25fa:	45 0f af f4          	imul   %r12d,%r14d
    25fe:	48 98                	cltq   
    2600:	4c 01 e8             	add    %r13,%rax
    2603:	48 01 d0             	add    %rdx,%rax
    2606:	49 63 f6             	movslq %r14d,%rsi
    2609:	49 03 33             	add    (%r11),%rsi
    260c:	48 89 c7             	mov    %rax,%rdi
    260f:	f3 a4                	rep movsb %ds:(%rsi),%es:(%rdi)
    2611:	41 8b 02             	mov    (%r10),%eax
    2614:	49 63 09             	movslq (%r9),%rcx
    2617:	46 8d 3c 00          	lea    (%rax,%r8,1),%r15d
    261b:	44 29 e0             	sub    %r12d,%eax
    261e:	44 8d 34 0b          	lea    (%rbx,%rcx,1),%r14d
    2622:	45 01 e7             	add    %r12d,%r15d
    2625:	8d 70 ff             	lea    -0x1(%rax),%esi
    2628:	41 89 ec             	mov    %ebp,%r12d
    262b:	44 89 f8             	mov    %r15d,%eax
    262e:	45 89 c7             	mov    %r8d,%r15d
    2631:	41 0f af c6          	imul   %r14d,%eax
    2635:	ff c5                	inc    %ebp
    2637:	0f af f1             	imul   %ecx,%esi
    263a:	48 98                	cltq   
    263c:	48 63 f6             	movslq %esi,%rsi
    263f:	49 03 33             	add    (%r11),%rsi
    2642:	4c 01 e8             	add    %r13,%rax
    2645:	48 01 d0             	add    %rdx,%rax
    2648:	4d 63 e8             	movslq %r8d,%r13
    264b:	48 89 c7             	mov    %rax,%rdi
    264e:	f3 a4                	rep movsb %ds:(%rsi),%es:(%rdi)
    2650:	eb 92                	jmp    25e4 <enlarge+0x62>
    2652:	45 31 ed             	xor    %r13d,%r13d
    2655:	31 ed                	xor    %ebp,%ebp
    2657:	45 39 c5             	cmp    %r8d,%r13d
    265a:	7d 58                	jge    26b4 <enlarge+0x132>
    265c:	45 8b 22             	mov    (%r10),%r12d
    265f:	41 8b 01             	mov    (%r9),%eax
    2662:	41 01 dc             	add    %ebx,%r12d
    2665:	41 39 ec             	cmp    %ebp,%r12d
    2668:	7e 45                	jle    26af <enlarge+0x12d>
    266a:	01 d8                	add    %ebx,%eax
    266c:	0f af c5             	imul   %ebp,%eax
    266f:	44 01 c0             	add    %r8d,%eax
    2672:	42 8d 0c 28          	lea    (%rax,%r13,1),%ecx
    2676:	4c 63 f9             	movslq %ecx,%r15
    2679:	ff c8                	dec    %eax
    267b:	46 8a 34 3a          	mov    (%rdx,%r15,1),%r14b
    267f:	44 29 e8             	sub    %r13d,%eax
    2682:	48 98                	cltq   
    2684:	44 88 34 02          	mov    %r14b,(%rdx,%rax,1)
    2688:	41 8b 31             	mov    (%r9),%esi
    268b:	8d 04 33             	lea    (%rbx,%rsi,1),%eax
    268e:	0f af c5             	imul   %ebp,%eax
    2691:	ff c5                	inc    %ebp
    2693:	01 f0                	add    %esi,%eax
    2695:	44 01 c0             	add    %r8d,%eax
    2698:	8d 78 ff             	lea    -0x1(%rax),%edi
    269b:	44 29 ef             	sub    %r13d,%edi
    269e:	44 01 e8             	add    %r13d,%eax
    26a1:	4c 63 e7             	movslq %edi,%r12
    26a4:	48 98                	cltq   
    26a6:	42 8a 0c 22          	mov    (%rdx,%r12,1),%cl
    26aa:	88 0c 02             	mov    %cl,(%rdx,%rax,1)
    26ad:	eb ad                	jmp    265c <enlarge+0xda>
    26af:	41 ff c5             	inc    %r13d
    26b2:	eb a1                	jmp    2655 <enlarge+0xd3>
    26b4:	45 01 c0             	add    %r8d,%r8d
    26b7:	45 01 01             	add    %r8d,(%r9)
    26ba:	45 01 02             	add    %r8d,(%r10)
    26bd:	49 89 13             	mov    %rdx,(%r11)
    26c0:	5b                   	pop    %rbx
    26c1:	5d                   	pop    %rbp
    26c2:	41 5c                	pop    %r12
    26c4:	41 5d                	pop    %r13
    26c6:	41 5e                	pop    %r14
    26c8:	41 5f                	pop    %r15
    26ca:	c3                   	ret    

00000000000026cb <susan_smoothing>:
    26cb:	f3 0f 1e fa          	endbr64 
    26cf:	41 57                	push   %r15
    26d1:	41 56                	push   %r14
    26d3:	41 55                	push   %r13
    26d5:	41 54                	push   %r12
    26d7:	41 89 fd             	mov    %edi,%r13d
    26da:	41 bc 01 00 00 00    	mov    $0x1,%r12d
    26e0:	55                   	push   %rbp
    26e1:	53                   	push   %rbx
    26e2:	48 81 ec b8 00 00 00 	sub    $0xb8,%rsp
    26e9:	f3 0f 11 44 24 64    	movss  %xmm0,0x64(%rsp)
    26ef:	85 ff                	test   %edi,%edi
    26f1:	f3 0f 10 4c 24 64    	movss  0x64(%rsp),%xmm1
    26f7:	48 89 74 24 68       	mov    %rsi,0x68(%rsp)
    26fc:	89 54 24 60          	mov    %edx,0x60(%rsp)
    2700:	89 4c 24 5c          	mov    %ecx,0x5c(%rsp)
    2704:	4c 89 44 24 38       	mov    %r8,0x38(%rsp)
    2709:	48 89 34 24          	mov    %rsi,(%rsp)
    270d:	75 1c                	jne    272b <susan_smoothing+0x60>
    270f:	f3 0f 10 05 c1 4e 00 	movss  0x4ec1(%rip),%xmm0        # 75d8 <_IO_stdin_used+0x5d8>
    2716:	00 
    2717:	f3 0f 59 c1          	mulss  %xmm1,%xmm0
    271b:	f3 0f 11 44 24 7c    	movss  %xmm0,0x7c(%rsp)
    2721:	f3 44 0f 2c 64 24 7c 	cvttss2si 0x7c(%rsp),%r12d
    2728:	41 ff c4             	inc    %r12d
    272b:	0f 2f 0d aa 4e 00 00 	comiss 0x4eaa(%rip),%xmm1        # 75dc <_IO_stdin_used+0x5dc>
    2732:	76 47                	jbe    277b <susan_smoothing+0xb0>
    2734:	f3 44 0f 5a 44 24 64 	cvtss2sd 0x64(%rsp),%xmm8
    273b:	48 8d 35 cc 4c 00 00 	lea    0x4ccc(%rip),%rsi        # 740e <_IO_stdin_used+0x40e>
    2742:	f2 44 0f 11 84 24 90 	movsd  %xmm8,0x90(%rsp)
    2749:	00 00 00 
    274c:	bf 01 00 00 00       	mov    $0x1,%edi
    2751:	b0 01                	mov    $0x1,%al
    2753:	f2 0f 10 84 24 90 00 	movsd  0x90(%rsp),%xmm0
    275a:	00 00 
    275c:	e8 8f eb ff ff       	call   12f0 <__printf_chk@plt>
    2761:	48 8d 3d dc 4c 00 00 	lea    0x4cdc(%rip),%rdi        # 7444 <_IO_stdin_used+0x444>
    2768:	e8 a3 ea ff ff       	call   1210 <puts@plt>
    276d:	48 8d 3d 0c 4d 00 00 	lea    0x4d0c(%rip),%rdi        # 7480 <_IO_stdin_used+0x480>
    2774:	e8 97 ea ff ff       	call   1210 <puts@plt>
    2779:	eb 2c                	jmp    27a7 <susan_smoothing+0xdc>
    277b:	8b 4c 24 60          	mov    0x60(%rsp),%ecx
    277f:	43 8d 1c 24          	lea    (%r12,%r12,1),%ebx
    2783:	44 8b 44 24 5c       	mov    0x5c(%rsp),%r8d
    2788:	39 cb                	cmp    %ecx,%ebx
    278a:	7d 05                	jge    2791 <susan_smoothing+0xc6>
    278c:	44 39 c3             	cmp    %r8d,%ebx
    278f:	7c 1d                	jl     27ae <susan_smoothing+0xe3>
    2791:	44 89 e2             	mov    %r12d,%edx
    2794:	48 8d 35 0c 4d 00 00 	lea    0x4d0c(%rip),%rsi        # 74a7 <_IO_stdin_used+0x4a7>
    279b:	bf 01 00 00 00       	mov    $0x1,%edi
    27a0:	31 c0                	xor    %eax,%eax
    27a2:	e8 49 eb ff ff       	call   12f0 <__printf_chk@plt>
    27a7:	31 ff                	xor    %edi,%edi
    27a9:	e8 a2 eb ff ff       	call   1350 <exit@plt>
    27ae:	01 d9                	add    %ebx,%ecx
    27b0:	41 01 d8             	add    %ebx,%r8d
    27b3:	bd 01 00 00 00       	mov    $0x1,%ebp
    27b8:	41 0f af c8          	imul   %r8d,%ecx
    27bc:	48 63 f9             	movslq %ecx,%rdi
    27bf:	e8 1c eb ff ff       	call   12e0 <malloc@plt>
    27c4:	48 89 c6             	mov    %rax,%rsi
    27c7:	48 8d 4c 24 5c       	lea    0x5c(%rsp),%rcx
    27cc:	48 8d 54 24 60       	lea    0x60(%rsp),%rdx
    27d1:	45 89 e0             	mov    %r12d,%r8d
    27d4:	48 8d 7c 24 68       	lea    0x68(%rsp),%rdi
    27d9:	e8 a4 fd ff ff       	call   2582 <enlarge>
    27de:	45 85 ed             	test   %r13d,%r13d
    27e1:	0f 85 ae 04 00 00    	jne    2c95 <susan_smoothing+0x5ca>
    27e7:	8d 43 01             	lea    0x1(%rbx),%eax
    27ea:	8b 5c 24 60          	mov    0x60(%rsp),%ebx
    27ee:	44 89 e5             	mov    %r12d,%ebp
    27f1:	45 8d 6c 24 01       	lea    0x1(%r12),%r13d
    27f6:	41 89 c6             	mov    %eax,%r14d
    27f9:	f7 dd                	neg    %ebp
    27fb:	44 0f af f0          	imul   %eax,%r14d
    27ff:	41 89 da             	mov    %ebx,%r10d
    2802:	89 6c 24 30          	mov    %ebp,0x30(%rsp)
    2806:	41 29 c2             	sub    %eax,%r10d
    2809:	8b 6c 24 30          	mov    0x30(%rsp),%ebp
    280d:	44 89 54 24 54       	mov    %r10d,0x54(%rsp)
    2812:	49 63 fe             	movslq %r14d,%rdi
    2815:	e8 c6 ea ff ff       	call   12e0 <malloc@plt>
    281a:	f3 0f 10 54 24 64    	movss  0x64(%rsp),%xmm2
    2820:	44 8b 7c 24 30       	mov    0x30(%rsp),%r15d
    2825:	41 89 ee             	mov    %ebp,%r14d
    2828:	48 89 44 24 08       	mov    %rax,0x8(%rsp)
    282d:	f3 0f 59 d2          	mulss  %xmm2,%xmm2
    2831:	f3 0f 11 94 24 80 00 	movss  %xmm2,0x80(%rsp)
    2838:	00 00 
    283a:	41 39 ec             	cmp    %ebp,%r12d
    283d:	48 89 c7             	mov    %rax,%rdi
    2840:	44 89 f9             	mov    %r15d,%ecx
    2843:	7d 18                	jge    285d <susan_smoothing+0x192>
    2845:	89 da                	mov    %ebx,%edx
    2847:	44 89 64 24 18       	mov    %r12d,0x18(%rsp)
    284c:	41 0f af d4          	imul   %r12d,%edx
    2850:	89 54 24 10          	mov    %edx,0x10(%rsp)
    2854:	89 54 24 34          	mov    %edx,0x34(%rsp)
    2858:	e9 01 01 00 00       	jmp    295e <susan_smoothing+0x293>
    285d:	44 0f af f5          	imul   %ebp,%r14d
    2861:	45 39 fc             	cmp    %r15d,%r12d
    2864:	0f 8c b9 00 00 00    	jl     2923 <susan_smoothing+0x258>
    286a:	41 0f af cf          	imul   %r15d,%ecx
    286e:	48 89 44 24 10       	mov    %rax,0x10(%rsp)
    2873:	41 ff c7             	inc    %r15d
    2876:	48 89 7c 24 18       	mov    %rdi,0x18(%rsp)
    287b:	44 01 f1             	add    %r14d,%ecx
    287e:	f3 0f 2a d9          	cvtsi2ss %ecx,%xmm3
    2882:	f3 0f 11 9c 24 84 00 	movss  %xmm3,0x84(%rsp)
    2889:	00 00 
    288b:	f3 0f 10 a4 24 84 00 	movss  0x84(%rsp),%xmm4
    2892:	00 00 
    2894:	0f 57 25 25 4d 00 00 	xorps  0x4d25(%rip),%xmm4        # 75c0 <_IO_stdin_used+0x5c0>
    289b:	f3 0f 11 a4 24 8c 00 	movss  %xmm4,0x8c(%rsp)
    28a2:	00 00 
    28a4:	f3 0f 10 ac 24 8c 00 	movss  0x8c(%rsp),%xmm5
    28ab:	00 00 
    28ad:	f3 0f 5e ac 24 80 00 	divss  0x80(%rsp),%xmm5
    28b4:	00 00 
    28b6:	f3 0f 11 ac 24 88 00 	movss  %xmm5,0x88(%rsp)
    28bd:	00 00 
    28bf:	f3 0f 5a b4 24 88 00 	cvtss2sd 0x88(%rsp),%xmm6
    28c6:	00 00 
    28c8:	f2 0f 11 b4 24 98 00 	movsd  %xmm6,0x98(%rsp)
    28cf:	00 00 
    28d1:	f2 0f 10 84 24 98 00 	movsd  0x98(%rsp),%xmm0
    28d8:	00 00 
    28da:	e8 b1 ea ff ff       	call   1390 <exp@plt>
    28df:	44 89 f9             	mov    %r15d,%ecx
    28e2:	f2 0f 10 3d e6 4c 00 	movsd  0x4ce6(%rip),%xmm7        # 75d0 <_IO_stdin_used+0x5d0>
    28e9:	00 
    28ea:	48 8b 7c 24 18       	mov    0x18(%rsp),%rdi
    28ef:	f2 0f 11 84 24 a0 00 	movsd  %xmm0,0xa0(%rsp)
    28f6:	00 00 
    28f8:	48 8b 44 24 10       	mov    0x10(%rsp),%rax
    28fd:	f2 0f 59 bc 24 a0 00 	mulsd  0xa0(%rsp),%xmm7
    2904:	00 00 
    2906:	f2 0f 11 bc 24 a8 00 	movsd  %xmm7,0xa8(%rsp)
    290d:	00 00 
    290f:	f2 0f 2c b4 24 a8 00 	cvttsd2si 0xa8(%rsp),%esi
    2916:	00 00 
    2918:	40 88 37             	mov    %sil,(%rdi)
    291b:	48 ff c7             	inc    %rdi
    291e:	e9 3e ff ff ff       	jmp    2861 <susan_smoothing+0x196>
    2923:	47 8d 44 25 00       	lea    0x0(%r13,%r12,1),%r8d
    2928:	44 39 6c 24 30       	cmp    %r13d,0x30(%rsp)
    292d:	41 b9 00 00 00 00    	mov    $0x0,%r9d
    2933:	4d 0f 4f c1          	cmovg  %r9,%r8
    2937:	44 8b 7c 24 30       	mov    0x30(%rsp),%r15d
    293c:	ff c5                	inc    %ebp
    293e:	41 89 ee             	mov    %ebp,%r14d
    2941:	4c 01 c0             	add    %r8,%rax
    2944:	e9 f1 fe ff ff       	jmp    283a <susan_smoothing+0x16f>
    2949:	ff 44 24 18          	incl   0x18(%rsp)
    294d:	44 8b 5c 24 5c       	mov    0x5c(%rsp),%r11d
    2952:	4d 63 ec             	movslq %r12d,%r13
    2955:	41 89 da             	mov    %ebx,%r10d
    2958:	01 5c 24 10          	add    %ebx,0x10(%rsp)
    295c:	eb 0b                	jmp    2969 <susan_smoothing+0x29e>
    295e:	44 8b 5c 24 5c       	mov    0x5c(%rsp),%r11d
    2963:	4d 63 ec             	movslq %r12d,%r13
    2966:	41 89 da             	mov    %ebx,%r10d
    2969:	45 29 e3             	sub    %r12d,%r11d
    296c:	44 3b 5c 24 18       	cmp    0x18(%rsp),%r11d
    2971:	45 89 e7             	mov    %r12d,%r15d
    2974:	0f 8e 6b 01 00 00    	jle    2ae5 <susan_smoothing+0x41a>
    297a:	8b 44 24 10          	mov    0x10(%rsp),%eax
    297e:	2b 44 24 34          	sub    0x34(%rsp),%eax
    2982:	45 29 e2             	sub    %r12d,%r10d
    2985:	48 98                	cltq   
    2987:	48 63 6c 24 10       	movslq 0x10(%rsp),%rbp
    298c:	4c 8b 44 24 08       	mov    0x8(%rsp),%r8
    2991:	4c 89 6c 24 40       	mov    %r13,0x40(%rsp)
    2996:	48 89 44 24 20       	mov    %rax,0x20(%rsp)
    299b:	8b 7c 24 30          	mov    0x30(%rsp),%edi
    299f:	31 f6                	xor    %esi,%esi
    29a1:	31 c9                	xor    %ecx,%ecx
    29a3:	48 89 44 24 28       	mov    %rax,0x28(%rsp)
    29a8:	45 31 c9             	xor    %r9d,%r9d
    29ab:	eb 02                	jmp    29af <susan_smoothing+0x2e4>
    29ad:	eb 00                	jmp    29af <susan_smoothing+0x2e4>
    29af:	45 39 fa             	cmp    %r15d,%r10d
    29b2:	7e 95                	jle    2949 <susan_smoothing+0x27e>
    29b4:	4c 8b 5c 24 68       	mov    0x68(%rsp),%r11
    29b9:	48 8b 54 24 20       	mov    0x20(%rsp),%rdx
    29be:	4c 8b 74 24 40       	mov    0x40(%rsp),%r14
    29c3:	4c 2b 74 24 28       	sub    0x28(%rsp),%r14
    29c8:	4d 8d 14 13          	lea    (%r11,%rdx,1),%r10
    29cc:	4d 01 d6             	add    %r10,%r14
    29cf:	45 0f b6 2c 2e       	movzbl (%r14,%rbp,1),%r13d
    29d4:	4c 89 6c 24 48       	mov    %r13,0x48(%rsp)
    29d9:	4c 89 e8             	mov    %r13,%rax
    29dc:	89 cd                	mov    %ecx,%ebp
    29de:	41 39 fc             	cmp    %edi,%r12d
    29e1:	7c 75                	jl     2a58 <susan_smoothing+0x38d>
    29e3:	44 29 e5             	sub    %r12d,%ebp
    29e6:	89 6c 24 50          	mov    %ebp,0x50(%rsp)
    29ea:	44 3b 64 24 50       	cmp    0x50(%rsp),%r12d
    29ef:	7c 3e                	jl     2a2f <susan_smoothing+0x364>
    29f1:	41 0f b6 2c 0a       	movzbl (%r10,%rcx,1),%ebp
    29f6:	45 0f b6 2c 08       	movzbl (%r8,%rcx,1),%r13d
    29fb:	48 ff c1             	inc    %rcx
    29fe:	41 89 ce             	mov    %ecx,%r14d
    2a01:	48 89 ea             	mov    %rbp,%rdx
    2a04:	45 29 e6             	sub    %r12d,%r14d
    2a07:	44 89 74 24 50       	mov    %r14d,0x50(%rsp)
    2a0c:	4c 8b 74 24 48       	mov    0x48(%rsp),%r14
    2a11:	49 29 ee             	sub    %rbp,%r14
    2a14:	48 8b 6c 24 38       	mov    0x38(%rsp),%rbp
    2a19:	46 0f b6 74 35 00    	movzbl 0x0(%rbp,%r14,1),%r14d
    2a1f:	45 0f af f5          	imul   %r13d,%r14d
    2a23:	41 0f af d6          	imul   %r14d,%edx
    2a27:	44 01 f6             	add    %r14d,%esi
    2a2a:	41 01 d1             	add    %edx,%r9d
    2a2d:	eb bb                	jmp    29ea <susan_smoothing+0x31f>
    2a2f:	45 8d 6c 24 01       	lea    0x1(%r12),%r13d
    2a34:	31 ed                	xor    %ebp,%ebp
    2a36:	31 c9                	xor    %ecx,%ecx
    2a38:	44 3b 6c 24 30       	cmp    0x30(%rsp),%r13d
    2a3d:	47 8d 74 25 00       	lea    0x0(%r13,%r12,1),%r14d
    2a42:	48 63 54 24 54       	movslq 0x54(%rsp),%rdx
    2a47:	49 0f 4d ee          	cmovge %r14,%rbp
    2a4b:	ff c7                	inc    %edi
    2a4d:	48 01 ea             	add    %rbp,%rdx
    2a50:	49 01 e8             	add    %rbp,%r8
    2a53:	49 01 d2             	add    %rdx,%r10
    2a56:	eb 84                	jmp    29dc <susan_smoothing+0x311>
    2a58:	48 ff 04 24          	incq   (%rsp)
    2a5c:	81 ee 10 27 00 00    	sub    $0x2710,%esi
    2a62:	44 89 fa             	mov    %r15d,%edx
    2a65:	4c 89 df             	mov    %r11,%rdi
    2a68:	89 d9                	mov    %ebx,%ecx
    2a6a:	41 89 f5             	mov    %esi,%r13d
    2a6d:	74 3d                	je     2aac <susan_smoothing+0x3e1>
    2a6f:	4c 8b 1c 24          	mov    (%rsp),%r11
    2a73:	69 c0 f0 d8 ff ff    	imul   $0xffffd8f0,%eax,%eax
    2a79:	41 89 da             	mov    %ebx,%r10d
    2a7c:	4c 8b 44 24 08       	mov    0x8(%rsp),%r8
    2a81:	8b 7c 24 30          	mov    0x30(%rsp),%edi
    2a85:	48 63 6c 24 10       	movslq 0x10(%rsp),%rbp
    2a8a:	41 ff c7             	inc    %r15d
    2a8d:	45 29 e2             	sub    %r12d,%r10d
    2a90:	48 ff 44 24 20       	incq   0x20(%rsp)
    2a95:	31 f6                	xor    %esi,%esi
    2a97:	31 c9                	xor    %ecx,%ecx
    2a99:	44 01 c8             	add    %r9d,%eax
    2a9c:	99                   	cltd   
    2a9d:	45 31 c9             	xor    %r9d,%r9d
    2aa0:	41 f7 fd             	idiv   %r13d
    2aa3:	41 88 43 ff          	mov    %al,-0x1(%r11)
    2aa7:	e9 01 ff ff ff       	jmp    29ad <susan_smoothing+0x2e2>
    2aac:	8b 74 24 18          	mov    0x18(%rsp),%esi
    2ab0:	41 ff c7             	inc    %r15d
    2ab3:	e8 de f9 ff ff       	call   2496 <median>
    2ab8:	4c 8b 0c 24          	mov    (%rsp),%r9
    2abc:	41 89 da             	mov    %ebx,%r10d
    2abf:	48 ff 44 24 20       	incq   0x20(%rsp)
    2ac4:	31 f6                	xor    %esi,%esi
    2ac6:	48 63 6c 24 10       	movslq 0x10(%rsp),%rbp
    2acb:	45 29 e2             	sub    %r12d,%r10d
    2ace:	4c 8b 44 24 08       	mov    0x8(%rsp),%r8
    2ad3:	31 c9                	xor    %ecx,%ecx
    2ad5:	41 88 41 ff          	mov    %al,-0x1(%r9)
    2ad9:	8b 7c 24 30          	mov    0x30(%rsp),%edi
    2add:	45 31 c9             	xor    %r9d,%r9d
    2ae0:	e9 c8 fe ff ff       	jmp    29ad <susan_smoothing+0x2e2>
    2ae5:	48 8b 7c 24 08       	mov    0x8(%rsp),%rdi
    2aea:	e8 11 e7 ff ff       	call   1200 <free@plt>
    2aef:	e9 31 02 00 00       	jmp    2d25 <susan_smoothing+0x65a>
    2af4:	0f af c1             	imul   %ecx,%eax
    2af7:	48 8b 7c 24 68       	mov    0x68(%rsp),%rdi
    2afc:	48 ff 04 24          	incq   (%rsp)
    2b00:	44 0f af c5          	imul   %ebp,%r8d
    2b04:	48 98                	cltq   
    2b06:	4c 8d 4c 03 ff       	lea    -0x1(%rbx,%rax,1),%r9
    2b0b:	41 01 d8             	add    %ebx,%r8d
    2b0e:	49 01 f9             	add    %rdi,%r9
    2b11:	4d 63 d0             	movslq %r8d,%r10
    2b14:	46 8a 1c 17          	mov    (%rdi,%r10,1),%r11b
    2b18:	4d 8d 3c 31          	lea    (%r9,%rsi,1),%r15
    2b1c:	45 0f b6 31          	movzbl (%r9),%r14d
    2b20:	45 8a 07             	mov    (%r15),%r8b
    2b23:	45 8a 6f 01          	mov    0x1(%r15),%r13b
    2b27:	49 8d 04 37          	lea    (%r15,%rsi,1),%rax
    2b2b:	45 8a 7f 02          	mov    0x2(%r15),%r15b
    2b2f:	45 0f b6 61 01       	movzbl 0x1(%r9),%r12d
    2b34:	44 88 5c 24 30       	mov    %r11b,0x30(%rsp)
    2b39:	0f b6 74 24 30       	movzbl 0x30(%rsp),%esi
    2b3e:	48 03 74 24 38       	add    0x38(%rsp),%rsi
    2b43:	4d 89 f3             	mov    %r14,%r11
    2b46:	44 88 7c 24 10       	mov    %r15b,0x10(%rsp)
    2b4b:	49 89 f7             	mov    %rsi,%r15
    2b4e:	45 0f b6 49 02       	movzbl 0x2(%r9),%r9d
    2b53:	4d 89 e2             	mov    %r12,%r10
    2b56:	4d 29 f7             	sub    %r14,%r15
    2b59:	49 89 f6             	mov    %rsi,%r14
    2b5c:	44 88 6c 24 08       	mov    %r13b,0x8(%rsp)
    2b61:	45 0f b6 3f          	movzbl (%r15),%r15d
    2b65:	4d 29 e6             	sub    %r12,%r14
    2b68:	45 0f b6 e9          	movzbl %r9b,%r13d
    2b6c:	49 89 f4             	mov    %rsi,%r12
    2b6f:	4d 29 ec             	sub    %r13,%r12
    2b72:	45 0f b6 e8          	movzbl %r8b,%r13d
    2b76:	45 0f b6 36          	movzbl (%r14),%r14d
    2b7a:	44 89 7c 24 18       	mov    %r15d,0x18(%rsp)
    2b7f:	45 0f b6 24 24       	movzbl (%r12),%r12d
    2b84:	45 89 f7             	mov    %r14d,%r15d
    2b87:	49 89 f6             	mov    %rsi,%r14
    2b8a:	44 89 5c 24 34       	mov    %r11d,0x34(%rsp)
    2b8f:	4d 29 ee             	sub    %r13,%r14
    2b92:	44 0f b6 6c 24 08    	movzbl 0x8(%rsp),%r13d
    2b98:	45 0f b6 da          	movzbl %r10b,%r11d
    2b9c:	45 0f b6 36          	movzbl (%r14),%r14d
    2ba0:	44 8b 54 24 18       	mov    0x18(%rsp),%r10d
    2ba5:	44 89 4c 24 40       	mov    %r9d,0x40(%rsp)
    2baa:	45 0f b6 c8          	movzbl %r8b,%r9d
    2bae:	44 89 64 24 20       	mov    %r12d,0x20(%rsp)
    2bb3:	44 0f b6 20          	movzbl (%rax),%r12d
    2bb7:	44 89 74 24 28       	mov    %r14d,0x28(%rsp)
    2bbc:	49 89 f6             	mov    %rsi,%r14
    2bbf:	47 8d 14 3a          	lea    (%r10,%r15,1),%r10d
    2bc3:	4d 29 ee             	sub    %r13,%r14
    2bc6:	44 03 54 24 20       	add    0x20(%rsp),%r10d
    2bcb:	44 0f b6 6c 24 10    	movzbl 0x10(%rsp),%r13d
    2bd1:	45 0f b6 06          	movzbl (%r14),%r8d
    2bd5:	44 0f b6 74 24 08    	movzbl 0x8(%rsp),%r14d
    2bdb:	44 89 5c 24 50       	mov    %r11d,0x50(%rsp)
    2be0:	44 0f b6 58 01       	movzbl 0x1(%rax),%r11d
    2be5:	0f b6 40 02          	movzbl 0x2(%rax),%eax
    2be9:	44 89 4c 24 48       	mov    %r9d,0x48(%rsp)
    2bee:	44 89 74 24 08       	mov    %r14d,0x8(%rsp)
    2bf3:	44 0f b6 74 24 10    	movzbl 0x10(%rsp),%r14d
    2bf9:	49 89 f1             	mov    %rsi,%r9
    2bfc:	4d 29 e9             	sub    %r13,%r9
    2bff:	45 0f b6 ec          	movzbl %r12b,%r13d
    2c03:	44 03 54 24 28       	add    0x28(%rsp),%r10d
    2c08:	44 89 74 24 10       	mov    %r14d,0x10(%rsp)
    2c0d:	49 89 f6             	mov    %rsi,%r14
    2c10:	45 0f b6 09          	movzbl (%r9),%r9d
    2c14:	45 01 c2             	add    %r8d,%r10d
    2c17:	4d 29 ee             	sub    %r13,%r14
    2c1a:	45 0f b6 eb          	movzbl %r11b,%r13d
    2c1e:	44 89 64 24 54       	mov    %r12d,0x54(%rsp)
    2c23:	44 89 5c 24 58       	mov    %r11d,0x58(%rsp)
    2c28:	45 0f b6 1e          	movzbl (%r14),%r11d
    2c2c:	44 0f b6 f0          	movzbl %al,%r14d
    2c30:	49 89 f4             	mov    %rsi,%r12
    2c33:	4d 29 ec             	sub    %r13,%r12
    2c36:	4c 29 f6             	sub    %r14,%rsi
    2c39:	45 01 ca             	add    %r9d,%r10d
    2c3c:	44 0f b6 6c 24 30    	movzbl 0x30(%rsp),%r13d
    2c42:	45 0f b6 24 24       	movzbl (%r12),%r12d
    2c47:	49 89 f6             	mov    %rsi,%r14
    2c4a:	45 01 da             	add    %r11d,%r10d
    2c4d:	89 ee                	mov    %ebp,%esi
    2c4f:	45 0f b6 36          	movzbl (%r14),%r14d
    2c53:	45 01 e2             	add    %r12d,%r10d
    2c56:	47 8d 54 32 9c       	lea    -0x64(%r10,%r14,1),%r10d
    2c5b:	45 85 d2             	test   %r10d,%r10d
    2c5e:	75 4c                	jne    2cac <susan_smoothing+0x5e1>
    2c60:	e8 31 f8 ff ff       	call   2496 <median>
    2c65:	4c 8b 1c 24          	mov    (%rsp),%r11
    2c69:	48 ff c3             	inc    %rbx
    2c6c:	41 89 df             	mov    %ebx,%r15d
    2c6f:	41 88 43 ff          	mov    %al,-0x1(%r11)
    2c73:	44 89 fa             	mov    %r15d,%edx
    2c76:	eb 00                	jmp    2c78 <susan_smoothing+0x5ad>
    2c78:	8d 45 ff             	lea    -0x1(%rbp),%eax
    2c7b:	48 63 74 24 60       	movslq 0x60(%rsp),%rsi
    2c80:	8d 7e ff             	lea    -0x1(%rsi),%edi
    2c83:	48 89 f1             	mov    %rsi,%rcx
    2c86:	41 89 c8             	mov    %ecx,%r8d
    2c89:	39 df                	cmp    %ebx,%edi
    2c8b:	0f 8f 63 fe ff ff    	jg     2af4 <susan_smoothing+0x429>
    2c91:	ff c5                	inc    %ebp
    2c93:	eb 00                	jmp    2c95 <susan_smoothing+0x5ca>
    2c95:	8b 44 24 5c          	mov    0x5c(%rsp),%eax
    2c99:	bb 01 00 00 00       	mov    $0x1,%ebx
    2c9e:	41 89 df             	mov    %ebx,%r15d
    2ca1:	ff c8                	dec    %eax
    2ca3:	44 89 fa             	mov    %r15d,%edx
    2ca6:	39 e8                	cmp    %ebp,%eax
    2ca8:	7e 7b                	jle    2d25 <susan_smoothing+0x65a>
    2caa:	eb cc                	jmp    2c78 <susan_smoothing+0x5ad>
    2cac:	8b 54 24 50          	mov    0x50(%rsp),%edx
    2cb0:	8b 74 24 34          	mov    0x34(%rsp),%esi
    2cb4:	8b 4c 24 40          	mov    0x40(%rsp),%ecx
    2cb8:	8b 7c 24 48          	mov    0x48(%rsp),%edi
    2cbc:	41 0f af c6          	imul   %r14d,%eax
    2cc0:	48 ff c3             	inc    %rbx
    2cc3:	0f af 74 24 18       	imul   0x18(%rsp),%esi
    2cc8:	44 8b 74 24 08       	mov    0x8(%rsp),%r14d
    2ccd:	41 0f af d7          	imul   %r15d,%edx
    2cd1:	0f af 4c 24 20       	imul   0x20(%rsp),%ecx
    2cd6:	41 89 df             	mov    %ebx,%r15d
    2cd9:	0f af 7c 24 28       	imul   0x28(%rsp),%edi
    2cde:	01 f2                	add    %esi,%edx
    2ce0:	44 0f af 5c 24 54    	imul   0x54(%rsp),%r11d
    2ce6:	44 89 f6             	mov    %r14d,%esi
    2ce9:	41 0f af f0          	imul   %r8d,%esi
    2ced:	44 8b 44 24 10       	mov    0x10(%rsp),%r8d
    2cf2:	01 ca                	add    %ecx,%edx
    2cf4:	01 fa                	add    %edi,%edx
    2cf6:	44 0f af 64 24 58    	imul   0x58(%rsp),%r12d
    2cfc:	48 8b 0c 24          	mov    (%rsp),%rcx
    2d00:	45 0f af c1          	imul   %r9d,%r8d
    2d04:	01 d6                	add    %edx,%esi
    2d06:	45 6b cd 9c          	imul   $0xffffff9c,%r13d,%r9d
    2d0a:	41 01 f0             	add    %esi,%r8d
    2d0d:	45 01 c3             	add    %r8d,%r11d
    2d10:	45 01 dc             	add    %r11d,%r12d
    2d13:	44 01 e0             	add    %r12d,%eax
    2d16:	49 89 cb             	mov    %rcx,%r11
    2d19:	44 01 c8             	add    %r9d,%eax
    2d1c:	99                   	cltd   
    2d1d:	41 f7 fa             	idiv   %r10d
    2d20:	e9 4a ff ff ff       	jmp    2c6f <susan_smoothing+0x5a4>
    2d25:	48 81 c4 b8 00 00 00 	add    $0xb8,%rsp
    2d2c:	5b                   	pop    %rbx
    2d2d:	5d                   	pop    %rbp
    2d2e:	41 5c                	pop    %r12
    2d30:	41 5d                	pop    %r13
    2d32:	41 5e                	pop    %r14
    2d34:	41 5f                	pop    %r15
    2d36:	c3                   	ret    

0000000000002d37 <edge_draw>:
    2d37:	f3 0f 1e fa          	endbr64 
    2d3b:	49 89 f9             	mov    %rdi,%r9
    2d3e:	89 cf                	mov    %ecx,%edi
    2d40:	48 89 f0             	mov    %rsi,%rax
    2d43:	0f af fa             	imul   %edx,%edi
    2d46:	45 85 c0             	test   %r8d,%r8d
    2d49:	74 04                	je     2d4f <edge_draw+0x18>
    2d4b:	31 d2                	xor    %edx,%edx
    2d4d:	eb 6a                	jmp    2db9 <edge_draw+0x82>
    2d4f:	48 63 d2             	movslq %edx,%rdx
    2d52:	31 c9                	xor    %ecx,%ecx
    2d54:	4c 8d 52 fe          	lea    -0x2(%rdx),%r10
    2d58:	eb 02                	jmp    2d5c <edge_draw+0x25>
    2d5a:	eb 00                	jmp    2d5c <edge_draw+0x25>
    2d5c:	39 cf                	cmp    %ecx,%edi
    2d5e:	48 8d 34 08          	lea    (%rax,%rcx,1),%rsi
    2d62:	7e e7                	jle    2d4b <edge_draw+0x14>
    2d64:	80 3c 08 07          	cmpb   $0x7,(%rax,%rcx,1)
    2d68:	77 37                	ja     2da1 <edge_draw+0x6a>
    2d6a:	48 29 c6             	sub    %rax,%rsi
    2d6d:	48 ff c1             	inc    %rcx
    2d70:	48 29 d6             	sub    %rdx,%rsi
    2d73:	4d 8d 44 31 ff       	lea    -0x1(%r9,%rsi,1),%r8
    2d78:	4b 8d 74 10 02       	lea    0x2(%r8,%r10,1),%rsi
    2d7d:	66 41 c7 00 ff ff    	movw   $0xffff,(%r8)
    2d83:	4e 8d 5c 16 02       	lea    0x2(%rsi,%r10,1),%r11
    2d88:	41 c6 40 02 ff       	movb   $0xff,0x2(%r8)
    2d8d:	c6 06 ff             	movb   $0xff,(%rsi)
    2d90:	c6 46 02 ff          	movb   $0xff,0x2(%rsi)
    2d94:	66 41 c7 03 ff ff    	movw   $0xffff,(%r11)
    2d9a:	41 c6 43 02 ff       	movb   $0xff,0x2(%r11)
    2d9f:	eb b9                	jmp    2d5a <edge_draw+0x23>
    2da1:	48 ff c1             	inc    %rcx
    2da4:	eb b4                	jmp    2d5a <edge_draw+0x23>
    2da6:	80 3c 10 07          	cmpb   $0x7,(%rax,%rdx,1)
    2daa:	77 08                	ja     2db4 <edge_draw+0x7d>
    2dac:	48 29 c1             	sub    %rax,%rcx
    2daf:	41 c6 04 09 00       	movb   $0x0,(%r9,%rcx,1)
    2db4:	48 ff c2             	inc    %rdx
    2db7:	eb 00                	jmp    2db9 <edge_draw+0x82>
    2db9:	39 d7                	cmp    %edx,%edi
    2dbb:	48 8d 0c 10          	lea    (%rax,%rdx,1),%rcx
    2dbf:	7f e5                	jg     2da6 <edge_draw+0x6f>
    2dc1:	c3                   	ret    

0000000000002dc2 <susan_thin>:
    2dc2:	f3 0f 1e fa          	endbr64 
    2dc6:	41 57                	push   %r15
    2dc8:	48 63 c2             	movslq %edx,%rax
    2dcb:	41 bf 04 00 00 00    	mov    $0x4,%r15d
    2dd1:	41 56                	push   %r14
    2dd3:	41 55                	push   %r13
    2dd5:	41 54                	push   %r12
    2dd7:	55                   	push   %rbp
    2dd8:	53                   	push   %rbx
    2dd9:	48 81 ec 98 00 00 00 	sub    $0x98,%rsp
    2de0:	48 89 3c 24          	mov    %rdi,(%rsp)
    2de4:	89 54 24 18          	mov    %edx,0x18(%rsp)
    2de8:	89 4c 24 3c          	mov    %ecx,0x3c(%rsp)
    2dec:	6b 5c 24 18 03       	imul   $0x3,0x18(%rsp),%ebx
    2df1:	c7 44 24 20 00 00 00 	movl   $0x0,0x20(%rsp)
    2df8:	00 
    2df9:	8b 7c 24 18          	mov    0x18(%rsp),%edi
    2dfd:	c7 44 24 1c 00 00 00 	movl   $0x0,0x1c(%rsp)
    2e04:	00 
    2e05:	48 89 44 24 08       	mov    %rax,0x8(%rsp)
    2e0a:	48 8b 54 24 08       	mov    0x8(%rsp),%rdx
    2e0f:	8d 2c bd 00 00 00 00 	lea    0x0(,%rdi,4),%ebp
    2e16:	48 89 f0             	mov    %rsi,%rax
    2e19:	48 01 d2             	add    %rdx,%rdx
    2e1c:	64 48 8b 0c 25 28 00 	mov    %fs:0x28,%rcx
    2e23:	00 00 
    2e25:	48 89 8c 24 88 00 00 	mov    %rcx,0x88(%rsp)
    2e2c:	00 
    2e2d:	31 c9                	xor    %ecx,%ecx
    2e2f:	48 8d 4a 02          	lea    0x2(%rdx),%rcx
    2e33:	89 5c 24 48          	mov    %ebx,0x48(%rsp)
    2e37:	48 8d 72 01          	lea    0x1(%rdx),%rsi
    2e3b:	48 89 4c 24 30       	mov    %rcx,0x30(%rsp)
    2e40:	89 6c 24 4c          	mov    %ebp,0x4c(%rsp)
    2e44:	48 89 74 24 28       	mov    %rsi,0x28(%rsp)
    2e49:	31 f6                	xor    %esi,%esi
    2e4b:	44 8b 44 24 3c       	mov    0x3c(%rsp),%r8d
    2e50:	41 83 e8 04          	sub    $0x4,%r8d
    2e54:	45 39 f8             	cmp    %r15d,%r8d
    2e57:	0f 8e 23 08 00 00    	jle    3680 <susan_thin+0x8be>
    2e5d:	ba 04 00 00 00       	mov    $0x4,%edx
    2e62:	44 8b 4c 24 18       	mov    0x18(%rsp),%r9d
    2e67:	45 8d 5f 01          	lea    0x1(%r15),%r11d
    2e6b:	45 8d 51 fc          	lea    -0x4(%r9),%r10d
    2e6f:	41 39 d2             	cmp    %edx,%r10d
    2e72:	0f 8e 00 08 00 00    	jle    3678 <susan_thin+0x8b6>
    2e78:	44 8b 64 24 18       	mov    0x18(%rsp),%r12d
    2e7d:	45 0f af e7          	imul   %r15d,%r12d
    2e81:	45 8d 2c 14          	lea    (%r12,%rdx,1),%r13d
    2e85:	4d 63 c5             	movslq %r13d,%r8
    2e88:	44 89 6c 24 24       	mov    %r13d,0x24(%rsp)
    2e8d:	4e 8d 34 00          	lea    (%rax,%r8,1),%r14
    2e91:	41 8a 0e             	mov    (%r14),%cl
    2e94:	80 f9 07             	cmp    $0x7,%cl
    2e97:	88 4c 24 41          	mov    %cl,0x41(%rsp)
    2e9b:	0f 87 d0 07 00 00    	ja     3671 <susan_thin+0x8af>
    2ea1:	48 8b 3c 24          	mov    (%rsp),%rdi
    2ea5:	44 2b 64 24 18       	sub    0x18(%rsp),%r12d
    2eaa:	4c 63 ca             	movslq %edx,%r9
    2ead:	45 8d 5f ff          	lea    -0x1(%r15),%r11d
    2eb1:	44 89 e5             	mov    %r12d,%ebp
    2eb4:	44 89 5c 24 10       	mov    %r11d,0x10(%rsp)
    2eb9:	4a 8d 1c 85 00 00 00 	lea    0x0(,%r8,4),%rbx
    2ec0:	00 
    2ec1:	46 8b 14 87          	mov    (%rdi,%r8,4),%r10d
    2ec5:	49 63 fc             	movslq %r12d,%rdi
    2ec8:	4c 01 cf             	add    %r9,%rdi
    2ecb:	4c 8b 4c 24 08       	mov    0x8(%rsp),%r9
    2ed0:	44 89 54 24 38       	mov    %r10d,0x38(%rsp)
    2ed5:	4c 8d 6c 38 ff       	lea    -0x1(%rax,%rdi,1),%r13
    2eda:	45 8a 65 00          	mov    0x0(%r13),%r12b
    2ede:	4f 8d 54 0d 00       	lea    0x0(%r13,%r9,1),%r10
    2ee3:	41 80 fc 07          	cmp    $0x7,%r12b
    2ee7:	44 88 64 24 42       	mov    %r12b,0x42(%rsp)
    2eec:	0f 96 44 24 43       	setbe  0x43(%rsp)
    2ef1:	0f 96 c1             	setbe  %cl
    2ef4:	45 31 e4             	xor    %r12d,%r12d
    2ef7:	41 80 7d 01 07       	cmpb   $0x7,0x1(%r13)
    2efc:	44 0f b6 d9          	movzbl %cl,%r11d
    2f00:	41 0f 96 c4          	setbe  %r12b
    2f04:	45 01 dc             	add    %r11d,%r12d
    2f07:	31 c9                	xor    %ecx,%ecx
    2f09:	41 80 7d 02 07       	cmpb   $0x7,0x2(%r13)
    2f0e:	0f 96 c1             	setbe  %cl
    2f11:	44 01 e1             	add    %r12d,%ecx
    2f14:	4c 8b 64 24 08       	mov    0x8(%rsp),%r12
    2f19:	45 31 c9             	xor    %r9d,%r9d
    2f1c:	41 80 3a 07          	cmpb   $0x7,(%r10)
    2f20:	41 0f 96 c1          	setbe  %r9b
    2f24:	41 01 c9             	add    %ecx,%r9d
    2f27:	43 80 7c 25 02 07    	cmpb   $0x7,0x2(%r13,%r12,1)
    2f2d:	0f 96 c1             	setbe  %cl
    2f30:	44 0f b6 e1          	movzbl %cl,%r12d
    2f34:	48 8b 4c 24 08       	mov    0x8(%rsp),%rcx
    2f39:	45 01 e1             	add    %r12d,%r9d
    2f3c:	4c 8b 64 24 28       	mov    0x28(%rsp),%r12
    2f41:	41 80 3c 0a 07       	cmpb   $0x7,(%r10,%rcx,1)
    2f46:	41 0f 96 c2          	setbe  %r10b
    2f4a:	41 0f b6 ca          	movzbl %r10b,%ecx
    2f4e:	44 01 c9             	add    %r9d,%ecx
    2f51:	4c 8b 54 24 30       	mov    0x30(%rsp),%r10
    2f56:	45 31 c9             	xor    %r9d,%r9d
    2f59:	43 80 7c 25 00 07    	cmpb   $0x7,0x0(%r13,%r12,1)
    2f5f:	41 0f 96 c1          	setbe  %r9b
    2f63:	44 01 c9             	add    %r9d,%ecx
    2f66:	45 31 c9             	xor    %r9d,%r9d
    2f69:	43 80 7c 15 00 07    	cmpb   $0x7,0x0(%r13,%r10,1)
    2f6f:	41 0f 96 c1          	setbe  %r9b
    2f73:	44 8b 64 24 18       	mov    0x18(%rsp),%r12d
    2f78:	44 01 c9             	add    %r9d,%ecx
    2f7b:	47 8d 14 24          	lea    (%r12,%r12,1),%r10d
    2f7f:	75 09                	jne    2f8a <susan_thin+0x1c8>
    2f81:	41 c6 06 64          	movb   $0x64,(%r14)
    2f85:	e9 e7 06 00 00       	jmp    3671 <susan_thin+0x8af>
    2f8a:	83 f9 01             	cmp    $0x1,%ecx
    2f8d:	74 13                	je     2fa2 <susan_thin+0x1e0>
    2f8f:	83 f9 02             	cmp    $0x2,%ecx
    2f92:	42 8d 4c 15 00       	lea    0x0(%rbp,%r10,1),%ecx
    2f97:	0f 84 f2 03 00 00    	je     338f <susan_thin+0x5cd>
    2f9d:	e9 9e 03 00 00       	jmp    3340 <susan_thin+0x57e>
    2fa2:	80 7c 24 41 05       	cmpb   $0x5,0x41(%rsp)
    2fa7:	0f 87 c4 06 00 00    	ja     3671 <susan_thin+0x8af>
    2fad:	4c 8b 34 24          	mov    (%rsp),%r14
    2fb1:	4c 8d 0c bd 00 00 00 	lea    0x0(,%rdi,4),%r9
    2fb8:	00 
    2fb9:	41 01 ea             	add    %ebp,%r10d
    2fbc:	4c 8b 24 24          	mov    (%rsp),%r12
    2fc0:	41 01 d2             	add    %edx,%r10d
    2fc3:	4c 8b 1c 24          	mov    (%rsp),%r11
    2fc7:	80 7c 24 42 07       	cmpb   $0x7,0x42(%rsp)
    2fcc:	43 8b 4c 0e fc       	mov    -0x4(%r14,%r9,1),%ecx
    2fd1:	4d 63 ea             	movslq %r10d,%r13
    2fd4:	4d 89 de             	mov    %r11,%r14
    2fd7:	4c 89 6c 24 10       	mov    %r13,0x10(%rsp)
    2fdc:	89 4c 24 64          	mov    %ecx,0x64(%rsp)
    2fe0:	45 8b 14 bc          	mov    (%r12,%rdi,4),%r10d
    2fe4:	48 8b 6c 24 10       	mov    0x10(%rsp),%rbp
    2fe9:	44 89 54 24 68       	mov    %r10d,0x68(%rsp)
    2fee:	47 8b 5c 0e 04       	mov    0x4(%r14,%r9,1),%r11d
    2ff3:	4c 8d 2c ad 00 00 00 	lea    0x0(,%rbp,4),%r13
    2ffa:	00 
    2ffb:	4c 8b 64 24 10       	mov    0x10(%rsp),%r12
    3000:	44 89 5c 24 6c       	mov    %r11d,0x6c(%rsp)
    3005:	45 8b 4c 1e fc       	mov    -0x4(%r14,%rbx,1),%r9d
    300a:	89 74 24 74          	mov    %esi,0x74(%rsp)
    300e:	44 89 4c 24 70       	mov    %r9d,0x70(%rsp)
    3013:	41 8b 6c 1e 04       	mov    0x4(%r14,%rbx,1),%ebp
    3018:	89 6c 24 78          	mov    %ebp,0x78(%rsp)
    301c:	43 8b 5c 2e fc       	mov    -0x4(%r14,%r13,1),%ebx
    3021:	89 5c 24 7c          	mov    %ebx,0x7c(%rsp)
    3025:	47 8b 34 a6          	mov    (%r14,%r12,4),%r14d
    3029:	4c 8b 24 24          	mov    (%rsp),%r12
    302d:	44 89 b4 24 80 00 00 	mov    %r14d,0x80(%rsp)
    3034:	00 
    3035:	47 8b 6c 2c 04       	mov    0x4(%r12,%r13,1),%r13d
    303a:	44 89 ac 24 84 00 00 	mov    %r13d,0x84(%rsp)
    3041:	00 
    3042:	77 42                	ja     3086 <susan_thin+0x2c4>
    3044:	45 01 db             	add    %r11d,%r11d
    3047:	01 db                	add    %ebx,%ebx
    3049:	41 c1 e5 02          	shl    $0x2,%r13d
    304d:	44 8d 4c 6d 00       	lea    0x0(%rbp,%rbp,2),%r9d
    3052:	47 8d 34 76          	lea    (%r14,%r14,2),%r14d
    3056:	44 89 5c 24 6c       	mov    %r11d,0x6c(%rsp)
    305b:	89 5c 24 7c          	mov    %ebx,0x7c(%rsp)
    305f:	44 89 4c 24 78       	mov    %r9d,0x78(%rsp)
    3064:	44 89 b4 24 80 00 00 	mov    %r14d,0x80(%rsp)
    306b:	00 
    306c:	44 89 ac 24 84 00 00 	mov    %r13d,0x84(%rsp)
    3073:	00 
    3074:	48 c7 44 24 64 00 00 	movq   $0x0,0x64(%rsp)
    307b:	00 00 
    307d:	89 74 24 70          	mov    %esi,0x70(%rsp)
    3081:	e9 e8 01 00 00       	jmp    326e <susan_thin+0x4ac>
    3086:	80 3c 38 07          	cmpb   $0x7,(%rax,%rdi,1)
    308a:	77 40                	ja     30cc <susan_thin+0x30a>
    308c:	45 01 c9             	add    %r9d,%r9d
    308f:	01 ed                	add    %ebp,%ebp
    3091:	41 c1 e6 02          	shl    $0x2,%r14d
    3095:	8d 0c 5b             	lea    (%rbx,%rbx,2),%ecx
    3098:	47 8d 5c 6d 00       	lea    0x0(%r13,%r13,2),%r11d
    309d:	44 89 4c 24 70       	mov    %r9d,0x70(%rsp)
    30a2:	89 6c 24 78          	mov    %ebp,0x78(%rsp)
    30a6:	89 4c 24 7c          	mov    %ecx,0x7c(%rsp)
    30aa:	44 89 9c 24 84 00 00 	mov    %r11d,0x84(%rsp)
    30b1:	00 
    30b2:	44 89 b4 24 80 00 00 	mov    %r14d,0x80(%rsp)
    30b9:	00 
    30ba:	48 c7 44 24 64 00 00 	movq   $0x0,0x64(%rsp)
    30c1:	00 00 
    30c3:	89 74 24 6c          	mov    %esi,0x6c(%rsp)
    30c7:	e9 a2 01 00 00       	jmp    326e <susan_thin+0x4ac>
    30cc:	80 7c 38 01 07       	cmpb   $0x7,0x1(%rax,%rdi,1)
    30d1:	77 3e                	ja     3111 <susan_thin+0x34f>
    30d3:	01 c9                	add    %ecx,%ecx
    30d5:	45 01 ed             	add    %r13d,%r13d
    30d8:	c1 e3 02             	shl    $0x2,%ebx
    30db:	43 8d 2c 49          	lea    (%r9,%r9,2),%ebp
    30df:	47 8d 14 76          	lea    (%r14,%r14,2),%r10d
    30e3:	89 4c 24 64          	mov    %ecx,0x64(%rsp)
    30e7:	44 89 ac 24 84 00 00 	mov    %r13d,0x84(%rsp)
    30ee:	00 
    30ef:	89 6c 24 70          	mov    %ebp,0x70(%rsp)
    30f3:	44 89 94 24 80 00 00 	mov    %r10d,0x80(%rsp)
    30fa:	00 
    30fb:	89 5c 24 7c          	mov    %ebx,0x7c(%rsp)
    30ff:	48 c7 44 24 68 00 00 	movq   $0x0,0x68(%rsp)
    3106:	00 00 
    3108:	89 74 24 78          	mov    %esi,0x78(%rsp)
    310c:	e9 5d 01 00 00       	jmp    326e <susan_thin+0x4ac>
    3111:	42 80 7c 00 ff 07    	cmpb   $0x7,-0x1(%rax,%r8,1)
    3117:	77 40                	ja     3159 <susan_thin+0x397>
    3119:	45 01 d2             	add    %r10d,%r10d
    311c:	45 01 f6             	add    %r14d,%r14d
    311f:	c1 e5 02             	shl    $0x2,%ebp
    3122:	47 8d 04 5b          	lea    (%r11,%r11,2),%r8d
    3126:	43 8d 7c 6d 00       	lea    0x0(%r13,%r13,2),%edi
    312b:	44 89 54 24 68       	mov    %r10d,0x68(%rsp)
    3130:	44 89 b4 24 80 00 00 	mov    %r14d,0x80(%rsp)
    3137:	00 
    3138:	44 89 44 24 6c       	mov    %r8d,0x6c(%rsp)
    313d:	89 bc 24 84 00 00 00 	mov    %edi,0x84(%rsp)
    3144:	89 6c 24 78          	mov    %ebp,0x78(%rsp)
    3148:	89 74 24 70          	mov    %esi,0x70(%rsp)
    314c:	89 74 24 64          	mov    %esi,0x64(%rsp)
    3150:	89 74 24 7c          	mov    %esi,0x7c(%rsp)
    3154:	e9 15 01 00 00       	jmp    326e <susan_thin+0x4ac>
    3159:	42 80 7c 00 01 07    	cmpb   $0x7,0x1(%rax,%r8,1)
    315f:	77 3b                	ja     319c <susan_thin+0x3da>
    3161:	45 01 d2             	add    %r10d,%r10d
    3164:	45 01 f6             	add    %r14d,%r14d
    3167:	41 c1 e1 02          	shl    $0x2,%r9d
    316b:	44 8d 24 49          	lea    (%rcx,%rcx,2),%r12d
    316f:	44 8d 2c 5b          	lea    (%rbx,%rbx,2),%r13d
    3173:	44 89 54 24 68       	mov    %r10d,0x68(%rsp)
    3178:	44 89 b4 24 80 00 00 	mov    %r14d,0x80(%rsp)
    317f:	00 
    3180:	44 89 64 24 64       	mov    %r12d,0x64(%rsp)
    3185:	44 89 6c 24 7c       	mov    %r13d,0x7c(%rsp)
    318a:	44 89 4c 24 70       	mov    %r9d,0x70(%rsp)
    318f:	89 74 24 78          	mov    %esi,0x78(%rsp)
    3193:	89 74 24 6c          	mov    %esi,0x6c(%rsp)
    3197:	e9 86 00 00 00       	jmp    3222 <susan_thin+0x460>
    319c:	4c 8b 44 24 10       	mov    0x10(%rsp),%r8
    31a1:	42 80 7c 00 ff 07    	cmpb   $0x7,-0x1(%rax,%r8,1)
    31a7:	77 3e                	ja     31e7 <susan_thin+0x425>
    31a9:	01 c9                	add    %ecx,%ecx
    31ab:	45 01 ed             	add    %r13d,%r13d
    31ae:	41 c1 e3 02          	shl    $0x2,%r11d
    31b2:	43 8d 1c 52          	lea    (%r10,%r10,2),%ebx
    31b6:	44 8d 74 6d 00       	lea    0x0(%rbp,%rbp,2),%r14d
    31bb:	89 4c 24 64          	mov    %ecx,0x64(%rsp)
    31bf:	44 89 ac 24 84 00 00 	mov    %r13d,0x84(%rsp)
    31c6:	00 
    31c7:	89 5c 24 68          	mov    %ebx,0x68(%rsp)
    31cb:	44 89 74 24 78       	mov    %r14d,0x78(%rsp)
    31d0:	44 89 5c 24 6c       	mov    %r11d,0x6c(%rsp)
    31d5:	89 74 24 70          	mov    %esi,0x70(%rsp)
    31d9:	48 c7 44 24 7c 00 00 	movq   $0x0,0x7c(%rsp)
    31e0:	00 00 
    31e2:	e9 87 00 00 00       	jmp    326e <susan_thin+0x4ac>
    31e7:	48 8b 7c 24 10       	mov    0x10(%rsp),%rdi
    31ec:	80 3c 38 07          	cmpb   $0x7,(%rax,%rdi,1)
    31f0:	77 39                	ja     322b <susan_thin+0x469>
    31f2:	45 01 c9             	add    %r9d,%r9d
    31f5:	01 ed                	add    %ebp,%ebp
    31f7:	41 c1 e2 02          	shl    $0x2,%r10d
    31fb:	8d 0c 49             	lea    (%rcx,%rcx,2),%ecx
    31fe:	47 8d 1c 5b          	lea    (%r11,%r11,2),%r11d
    3202:	44 89 4c 24 70       	mov    %r9d,0x70(%rsp)
    3207:	89 6c 24 78          	mov    %ebp,0x78(%rsp)
    320b:	89 4c 24 64          	mov    %ecx,0x64(%rsp)
    320f:	44 89 5c 24 6c       	mov    %r11d,0x6c(%rsp)
    3214:	44 89 54 24 68       	mov    %r10d,0x68(%rsp)
    3219:	48 c7 44 24 7c 00 00 	movq   $0x0,0x7c(%rsp)
    3220:	00 00 
    3222:	89 b4 24 84 00 00 00 	mov    %esi,0x84(%rsp)
    3229:	eb 43                	jmp    326e <susan_thin+0x4ac>
    322b:	48 8b 6c 24 10       	mov    0x10(%rsp),%rbp
    3230:	80 7c 28 01 07       	cmpb   $0x7,0x1(%rax,%rbp,1)
    3235:	77 37                	ja     326e <susan_thin+0x4ac>
    3237:	01 db                	add    %ebx,%ebx
    3239:	45 01 db             	add    %r11d,%r11d
    323c:	c1 e1 02             	shl    $0x2,%ecx
    323f:	47 8d 14 52          	lea    (%r10,%r10,2),%r10d
    3243:	47 8d 0c 49          	lea    (%r9,%r9,2),%r9d
    3247:	89 5c 24 7c          	mov    %ebx,0x7c(%rsp)
    324b:	44 89 5c 24 6c       	mov    %r11d,0x6c(%rsp)
    3250:	44 89 54 24 68       	mov    %r10d,0x68(%rsp)
    3255:	44 89 4c 24 70       	mov    %r9d,0x70(%rsp)
    325a:	89 4c 24 64          	mov    %ecx,0x64(%rsp)
    325e:	89 74 24 78          	mov    %esi,0x78(%rsp)
    3262:	48 c7 84 24 80 00 00 	movq   $0x0,0x80(%rsp)
    3269:	00 00 00 00 00 
    326e:	45 31 ed             	xor    %r13d,%r13d
    3271:	4c 8d 44 24 64       	lea    0x64(%rsp),%r8
    3276:	45 31 e4             	xor    %r12d,%r12d
    3279:	31 ff                	xor    %edi,%edi
    327b:	44 89 eb             	mov    %r13d,%ebx
    327e:	eb 02                	jmp    3282 <susan_thin+0x4c0>
    3280:	eb 00                	jmp    3282 <susan_thin+0x4c0>
    3282:	41 8b 2c b8          	mov    (%r8,%rdi,4),%ebp
    3286:	44 8b 54 24 1c       	mov    0x1c(%rsp),%r10d
    328b:	8b 4c 24 20          	mov    0x20(%rsp),%ecx
    328f:	41 39 ed             	cmp    %ebp,%r13d
    3292:	44 0f 4c ed          	cmovl  %ebp,%r13d
    3296:	39 dd                	cmp    %ebx,%ebp
    3298:	45 0f 4f d4          	cmovg  %r12d,%r10d
    329c:	0f 4f cf             	cmovg  %edi,%ecx
    329f:	48 ff c7             	inc    %rdi
    32a2:	44 89 eb             	mov    %r13d,%ebx
    32a5:	48 83 ff 03          	cmp    $0x3,%rdi
    32a9:	44 89 54 24 1c       	mov    %r10d,0x1c(%rsp)
    32ae:	89 4c 24 20          	mov    %ecx,0x20(%rsp)
    32b2:	75 cc                	jne    3280 <susan_thin+0x4be>
    32b4:	41 ff c4             	inc    %r12d
    32b7:	49 83 c0 0c          	add    $0xc,%r8
    32bb:	31 ff                	xor    %edi,%edi
    32bd:	41 83 fc 03          	cmp    $0x3,%r12d
    32c1:	75 bd                	jne    3280 <susan_thin+0x4be>
    32c3:	45 85 ed             	test   %r13d,%r13d
    32c6:	0f 84 a5 03 00 00    	je     3671 <susan_thin+0x8af>
    32cc:	44 8b 5c 24 1c       	mov    0x1c(%rsp),%r11d
    32d1:	41 b5 04             	mov    $0x4,%r13b
    32d4:	47 8d 4c 3b ff       	lea    -0x1(%r11,%r15,1),%r9d
    32d9:	44 0f af 4c 24 18    	imul   0x18(%rsp),%r9d
    32df:	41 01 d1             	add    %edx,%r9d
    32e2:	44 03 4c 24 20       	add    0x20(%rsp),%r9d
    32e7:	4d 63 f1             	movslq %r9d,%r14
    32ea:	80 7c 24 41 03       	cmpb   $0x3,0x41(%rsp)
    32ef:	4e 8d 64 30 ff       	lea    -0x1(%rax,%r14,1),%r12
    32f4:	76 08                	jbe    32fe <susan_thin+0x53c>
    32f6:	44 8a 6c 24 41       	mov    0x41(%rsp),%r13b
    32fb:	41 ff c5             	inc    %r13d
    32fe:	44 8b 44 24 20       	mov    0x20(%rsp),%r8d
    3303:	8b 7c 24 1c          	mov    0x1c(%rsp),%edi
    3307:	45 88 2c 24          	mov    %r13b,(%r12)
    330b:	41 8d 1c 78          	lea    (%r8,%rdi,2),%ebx
    330f:	83 fb 02             	cmp    $0x2,%ebx
    3312:	0f 8f 59 03 00 00    	jg     3671 <susan_thin+0x8af>
    3318:	46 8d 7c 3f ff       	lea    -0x1(%rdi,%r15,1),%r15d
    331d:	bd 04 00 00 00       	mov    $0x4,%ebp
    3322:	44 8b 54 24 20       	mov    0x20(%rsp),%r10d
    3327:	41 39 ef             	cmp    %ebp,%r15d
    332a:	b9 04 00 00 00       	mov    $0x4,%ecx
    332f:	41 0f 4d ef          	cmovge %r15d,%ebp
    3333:	41 8d 54 12 fe       	lea    -0x2(%r10,%rdx,1),%edx
    3338:	41 89 ef             	mov    %ebp,%r15d
    333b:	e9 2c 03 00 00       	jmp    366c <susan_thin+0x8aa>
    3340:	80 3c 38 07          	cmpb   $0x7,(%rax,%rdi,1)
    3344:	0f 96 c3             	setbe  %bl
    3347:	42 80 7c 00 01 07    	cmpb   $0x7,0x1(%rax,%r8,1)
    334d:	44 0f b6 d3          	movzbl %bl,%r10d
    3351:	41 0f 96 c1          	setbe  %r9b
    3355:	01 d1                	add    %edx,%ecx
    3357:	45 0f b6 e1          	movzbl %r9b,%r12d
    335b:	48 63 c9             	movslq %ecx,%rcx
    335e:	80 3c 08 07          	cmpb   $0x7,(%rax,%rcx,1)
    3362:	41 0f 96 c3          	setbe  %r11b
    3366:	42 80 7c 00 ff 07    	cmpb   $0x7,-0x1(%rax,%r8,1)
    336c:	40 0f 96 c5          	setbe  %bpl
    3370:	45 01 e2             	add    %r12d,%r10d
    3373:	45 0f b6 c3          	movzbl %r11b,%r8d
    3377:	45 01 c2             	add    %r8d,%r10d
    337a:	44 0f b6 e5          	movzbl %bpl,%r12d
    337e:	45 01 e2             	add    %r12d,%r10d
    3381:	41 ff ca             	dec    %r10d
    3384:	0f 8f 52 02 00 00    	jg     35dc <susan_thin+0x81a>
    338a:	e9 e2 02 00 00       	jmp    3671 <susan_thin+0x8af>
    338f:	8a 5c 38 01          	mov    0x1(%rax,%rdi,1),%bl
    3393:	44 8d 0c 11          	lea    (%rcx,%rdx,1),%r9d
    3397:	4d 63 d1             	movslq %r9d,%r10
    339a:	80 fb 07             	cmp    $0x7,%bl
    339d:	0f 96 44 24 41       	setbe  0x41(%rsp)
    33a2:	44 0f b6 64 24 41    	movzbl 0x41(%rsp),%r12d
    33a8:	42 80 7c 10 ff 07    	cmpb   $0x7,-0x1(%rax,%r10,1)
    33ae:	44 89 64 24 44       	mov    %r12d,0x44(%rsp)
    33b3:	41 0f 96 c4          	setbe  %r12b
    33b7:	42 80 7c 10 01 07    	cmpb   $0x7,0x1(%rax,%r10,1)
    33bd:	41 0f 96 c5          	setbe  %r13b
    33c1:	44 03 5c 24 44       	add    0x44(%rsp),%r11d
    33c6:	44 89 5c 24 44       	mov    %r11d,0x44(%rsp)
    33cb:	45 0f b6 dc          	movzbl %r12b,%r11d
    33cf:	44 03 5c 24 44       	add    0x44(%rsp),%r11d
    33d4:	44 89 5c 24 44       	mov    %r11d,0x44(%rsp)
    33d9:	45 0f b6 dd          	movzbl %r13b,%r11d
    33dd:	44 03 5c 24 44       	add    0x44(%rsp),%r11d
    33e2:	41 83 fb 02          	cmp    $0x2,%r11d
    33e6:	0f 85 08 01 00 00    	jne    34f4 <susan_thin+0x732>
    33ec:	44 0a 6c 24 43       	or     0x43(%rsp),%r13b
    33f1:	0f 84 fd 00 00 00    	je     34f4 <susan_thin+0x732>
    33f7:	44 0a 64 24 41       	or     0x41(%rsp),%r12b
    33fc:	0f 84 f2 00 00 00    	je     34f4 <susan_thin+0x732>
    3402:	80 7c 24 42 07       	cmpb   $0x7,0x42(%rsp)
    3407:	77 0d                	ja     3416 <susan_thin+0x654>
    3409:	80 fb 08             	cmp    $0x8,%bl
    340c:	45 19 d2             	sbb    %r10d,%r10d
    340f:	44 89 d7             	mov    %r10d,%edi
    3412:	f7 d7                	not    %edi
    3414:	eb 0c                	jmp    3422 <susan_thin+0x660>
    3416:	80 fb 08             	cmp    $0x8,%bl
    3419:	19 ff                	sbb    %edi,%edi
    341b:	44 8d 57 01          	lea    0x1(%rdi),%r10d
    341f:	83 e7 01             	and    $0x1,%edi
    3422:	44 8b 44 24 18       	mov    0x18(%rsp),%r8d
    3427:	43 8d 0c 3a          	lea    (%r10,%r15,1),%ecx
    342b:	48 8b 1c 24          	mov    (%rsp),%rbx
    342f:	f3 0f 2a 4c 24 38    	cvtsi2ssl 0x38(%rsp),%xmm1
    3435:	44 0f af c1          	imul   %ecx,%r8d
    3439:	41 01 d0             	add    %edx,%r8d
    343c:	41 01 f8             	add    %edi,%r8d
    343f:	4d 63 e0             	movslq %r8d,%r12
    3442:	f3 42 0f 2a 04 a3    	cvtsi2ssl (%rbx,%r12,4),%xmm0
    3448:	f3 0f 11 4c 24 5c    	movss  %xmm1,0x5c(%rsp)
    344e:	f3 0f 11 44 24 58    	movss  %xmm0,0x58(%rsp)
    3454:	f3 0f 10 54 24 58    	movss  0x58(%rsp),%xmm2
    345a:	f3 0f 5e 54 24 5c    	divss  0x5c(%rsp),%xmm2
    3460:	f3 0f 11 54 24 60    	movss  %xmm2,0x60(%rsp)
    3466:	f3 0f 10 5c 24 60    	movss  0x60(%rsp),%xmm3
    346c:	0f 2f 1d 6d 41 00 00 	comiss 0x416d(%rip),%xmm3        # 75e0 <_IO_stdin_used+0x5e0>
    3473:	0f 86 f8 01 00 00    	jbe    3671 <susan_thin+0x8af>
    3479:	85 ff                	test   %edi,%edi
    347b:	75 24                	jne    34a1 <susan_thin+0x6df>
    347d:	44 01 d1             	add    %r10d,%ecx
    3480:	0f af 4c 24 18       	imul   0x18(%rsp),%ecx
    3485:	01 d1                	add    %edx,%ecx
    3487:	4c 63 e9             	movslq %ecx,%r13
    348a:	42 80 3c 28 07       	cmpb   $0x7,(%rax,%r13,1)
    348f:	76 10                	jbe    34a1 <susan_thin+0x6df>
    3491:	42 80 7c 28 ff 07    	cmpb   $0x7,-0x1(%rax,%r13,1)
    3497:	76 08                	jbe    34a1 <susan_thin+0x6df>
    3499:	42 80 7c 28 01 07    	cmpb   $0x7,0x1(%rax,%r13,1)
    349f:	77 45                	ja     34e6 <susan_thin+0x724>
    34a1:	45 85 d2             	test   %r10d,%r10d
    34a4:	0f 85 c7 01 00 00    	jne    3671 <susan_thin+0x8af>
    34aa:	44 8b 5c 24 24       	mov    0x24(%rsp),%r11d
    34af:	01 ff                	add    %edi,%edi
    34b1:	41 01 fb             	add    %edi,%r11d
    34b4:	4d 63 d3             	movslq %r11d,%r10
    34b7:	42 80 3c 10 07       	cmpb   $0x7,(%rax,%r10,1)
    34bc:	0f 86 af 01 00 00    	jbe    3671 <susan_thin+0x8af>
    34c2:	41 01 f9             	add    %edi,%r9d
    34c5:	4d 63 c9             	movslq %r9d,%r9
    34c8:	42 80 3c 08 07       	cmpb   $0x7,(%rax,%r9,1)
    34cd:	0f 86 9e 01 00 00    	jbe    3671 <susan_thin+0x8af>
    34d3:	8d 6c 15 00          	lea    0x0(%rbp,%rdx,1),%ebp
    34d7:	01 fd                	add    %edi,%ebp
    34d9:	48 63 fd             	movslq %ebp,%rdi
    34dc:	80 3c 38 07          	cmpb   $0x7,(%rax,%rdi,1)
    34e0:	0f 86 8b 01 00 00    	jbe    3671 <susan_thin+0x8af>
    34e6:	41 c6 06 64          	movb   $0x64,(%r14)
    34ea:	42 c6 04 20 03       	movb   $0x3,(%rax,%r12,1)
    34ef:	e9 7d 01 00 00       	jmp    3671 <susan_thin+0x8af>
    34f4:	80 3c 38 07          	cmpb   $0x7,(%rax,%rdi,1)
    34f8:	41 0f 96 c4          	setbe  %r12b
    34fc:	42 80 7c 00 01 07    	cmpb   $0x7,0x1(%rax,%r8,1)
    3502:	45 0f b6 ec          	movzbl %r12b,%r13d
    3506:	0f 96 c3             	setbe  %bl
    3509:	42 80 3c 10 07       	cmpb   $0x7,(%rax,%r10,1)
    350e:	44 0f b6 cb          	movzbl %bl,%r9d
    3512:	41 0f 96 c3          	setbe  %r11b
    3516:	42 80 7c 00 ff 07    	cmpb   $0x7,-0x1(%rax,%r8,1)
    351c:	40 0f 96 c5          	setbe  %bpl
    3520:	45 01 e9             	add    %r13d,%r9d
    3523:	45 0f b6 c3          	movzbl %r11b,%r8d
    3527:	45 01 c8             	add    %r9d,%r8d
    352a:	44 0f b6 ed          	movzbl %bpl,%r13d
    352e:	45 01 e8             	add    %r13d,%r8d
    3531:	41 83 f8 02          	cmp    $0x2,%r8d
    3535:	0f 85 36 01 00 00    	jne    3671 <susan_thin+0x8af>
    353b:	41 89 d9             	mov    %ebx,%r9d
    353e:	41 08 e9             	or     %bpl,%r9b
    3541:	0f 84 2a 01 00 00    	je     3671 <susan_thin+0x8af>
    3547:	45 89 e0             	mov    %r12d,%r8d
    354a:	45 08 d8             	or     %r11b,%r8b
    354d:	0f 84 1e 01 00 00    	je     3671 <susan_thin+0x8af>
    3553:	2b 4c 24 48          	sub    0x48(%rsp),%ecx
    3557:	44 8d 2c 11          	lea    (%rcx,%rdx,1),%r13d
    355b:	4d 63 c5             	movslq %r13d,%r8
    355e:	03 4c 24 4c          	add    0x4c(%rsp),%ecx
    3562:	01 d1                	add    %edx,%ecx
    3564:	42 80 7c 00 ff 07    	cmpb   $0x7,-0x1(%rax,%r8,1)
    356a:	48 63 c9             	movslq %ecx,%rcx
    356d:	41 0f 96 c1          	setbe  %r9b
    3571:	42 80 7c 00 01 07    	cmpb   $0x7,0x1(%rax,%r8,1)
    3577:	41 0f 96 c5          	setbe  %r13b
    357b:	45 09 e9             	or     %r13d,%r9d
    357e:	45 21 e1             	and    %r12d,%r9d
    3581:	80 7c 38 fe 07       	cmpb   $0x7,-0x2(%rax,%rdi,1)
    3586:	41 0f 96 c0          	setbe  %r8b
    358a:	42 80 7c 10 fe 07    	cmpb   $0x7,-0x2(%rax,%r10,1)
    3590:	41 0f 96 c4          	setbe  %r12b
    3594:	45 09 e0             	or     %r12d,%r8d
    3597:	41 21 e8             	and    %ebp,%r8d
    359a:	45 09 c8             	or     %r9d,%r8d
    359d:	80 7c 38 02 07       	cmpb   $0x7,0x2(%rax,%rdi,1)
    35a2:	40 0f 96 c7          	setbe  %dil
    35a6:	42 80 7c 10 02 07    	cmpb   $0x7,0x2(%rax,%r10,1)
    35ac:	41 0f 96 c2          	setbe  %r10b
    35b0:	44 09 d7             	or     %r10d,%edi
    35b3:	21 df                	and    %ebx,%edi
    35b5:	44 08 c7             	or     %r8b,%dil
    35b8:	0f 85 8e 00 00 00    	jne    364c <susan_thin+0x88a>
    35be:	80 7c 08 ff 07       	cmpb   $0x7,-0x1(%rax,%rcx,1)
    35c3:	0f 96 c3             	setbe  %bl
    35c6:	80 7c 08 01 07       	cmpb   $0x7,0x1(%rax,%rcx,1)
    35cb:	40 0f 96 c5          	setbe  %bpl
    35cf:	09 eb                	or     %ebp,%ebx
    35d1:	44 84 db             	test   %r11b,%bl
    35d4:	0f 84 97 00 00 00    	je     3671 <susan_thin+0x8af>
    35da:	eb 70                	jmp    364c <susan_thin+0x88a>
    35dc:	41 80 7d 00 07       	cmpb   $0x7,0x0(%r13)
    35e1:	41 0f 96 c0          	setbe  %r8b
    35e5:	41 09 d8             	or     %ebx,%r8d
    35e8:	80 7c 38 01 07       	cmpb   $0x7,0x1(%rax,%rdi,1)
    35ed:	41 0f 96 c2          	setbe  %r10b
    35f1:	41 0f b6 f8          	movzbl %r8b,%edi
    35f5:	45 09 ca             	or     %r9d,%r10d
    35f8:	80 7c 08 01 07       	cmpb   $0x7,0x1(%rax,%rcx,1)
    35fd:	45 0f b6 ea          	movzbl %r10b,%r13d
    3601:	41 0f 96 c4          	setbe  %r12b
    3605:	45 09 dc             	or     %r11d,%r12d
    3608:	80 7c 08 ff 07       	cmpb   $0x7,-0x1(%rax,%rcx,1)
    360d:	0f 96 c1             	setbe  %cl
    3610:	41 21 da             	and    %ebx,%r10d
    3613:	45 21 e1             	and    %r12d,%r9d
    3616:	09 e9                	or     %ebp,%ecx
    3618:	44 01 ef             	add    %r13d,%edi
    361b:	45 0f b6 d2          	movzbl %r10b,%r10d
    361f:	45 0f b6 c9          	movzbl %r9b,%r9d
    3623:	41 21 cb             	and    %ecx,%r11d
    3626:	41 0f b6 dc          	movzbl %r12b,%ebx
    362a:	45 01 d1             	add    %r10d,%r9d
    362d:	45 0f b6 db          	movzbl %r11b,%r11d
    3631:	41 21 e8             	and    %ebp,%r8d
    3634:	01 df                	add    %ebx,%edi
    3636:	0f b6 e9             	movzbl %cl,%ebp
    3639:	45 01 d9             	add    %r11d,%r9d
    363c:	45 0f b6 c0          	movzbl %r8b,%r8d
    3640:	01 ef                	add    %ebp,%edi
    3642:	45 01 c1             	add    %r8d,%r9d
    3645:	44 29 cf             	sub    %r9d,%edi
    3648:	ff cf                	dec    %edi
    364a:	7f 25                	jg     3671 <susan_thin+0x8af>
    364c:	41 c6 06 64          	movb   $0x64,(%r14)
    3650:	44 8b 7c 24 10       	mov    0x10(%rsp),%r15d
    3655:	41 bb 04 00 00 00    	mov    $0x4,%r11d
    365b:	44 39 5c 24 10       	cmp    %r11d,0x10(%rsp)
    3660:	b9 04 00 00 00       	mov    $0x4,%ecx
    3665:	45 0f 4c fb          	cmovl  %r11d,%r15d
    3669:	83 ea 02             	sub    $0x2,%edx
    366c:	39 ca                	cmp    %ecx,%edx
    366e:	0f 4c d1             	cmovl  %ecx,%edx
    3671:	ff c2                	inc    %edx
    3673:	e9 ea f7 ff ff       	jmp    2e62 <susan_thin+0xa0>
    3678:	45 89 df             	mov    %r11d,%r15d
    367b:	e9 cb f7 ff ff       	jmp    2e4b <susan_thin+0x89>
    3680:	48 8b 84 24 88 00 00 	mov    0x88(%rsp),%rax
    3687:	00 
    3688:	64 48 2b 04 25 28 00 	sub    %fs:0x28,%rax
    368f:	00 00 
    3691:	74 05                	je     3698 <susan_thin+0x8d6>
    3693:	e8 c8 db ff ff       	call   1260 <__stack_chk_fail@plt>
    3698:	48 81 c4 98 00 00 00 	add    $0x98,%rsp
    369f:	5b                   	pop    %rbx
    36a0:	5d                   	pop    %rbp
    36a1:	41 5c                	pop    %r12
    36a3:	41 5d                	pop    %r13
    36a5:	41 5e                	pop    %r14
    36a7:	41 5f                	pop    %r15
    36a9:	c3                   	ret    

00000000000036aa <susan_edges>:
    36aa:	f3 0f 1e fa          	endbr64 
    36ae:	41 57                	push   %r15
    36b0:	49 89 ca             	mov    %rcx,%r10
    36b3:	31 c0                	xor    %eax,%eax
    36b5:	41 56                	push   %r14
    36b7:	41 55                	push   %r13
    36b9:	41 54                	push   %r12
    36bb:	55                   	push   %rbp
    36bc:	53                   	push   %rbx
    36bd:	49 63 d9             	movslq %r9d,%rbx
    36c0:	48 8d 2c 9d 00 00 00 	lea    0x0(,%rbx,4),%rbp
    36c7:	00 
    36c8:	49 89 df             	mov    %rbx,%r15
    36cb:	48 81 ec 98 01 00 00 	sub    $0x198,%rsp
    36d2:	8b 8c 24 d0 01 00 00 	mov    0x1d0(%rsp),%ecx
    36d9:	48 89 7c 24 18       	mov    %rdi,0x18(%rsp)
    36de:	8d 3c 5b             	lea    (%rbx,%rbx,2),%edi
    36e1:	48 89 94 24 38 01 00 	mov    %rdx,0x138(%rsp)
    36e8:	00 
    36e9:	0f af cb             	imul   %ebx,%ecx
    36ec:	89 7c 24 20          	mov    %edi,0x20(%rsp)
    36f0:	48 89 f7             	mov    %rsi,%rdi
    36f3:	48 8d 14 1b          	lea    (%rbx,%rbx,1),%rdx
    36f7:	44 89 84 24 b4 00 00 	mov    %r8d,0xb4(%rsp)
    36fe:	00 
    36ff:	4c 8d 04 9b          	lea    (%rbx,%rbx,4),%r8
    3703:	48 89 74 24 08       	mov    %rsi,0x8(%rsp)
    3708:	48 63 c9             	movslq %ecx,%rcx
    370b:	4c 89 94 24 40 01 00 	mov    %r10,0x140(%rsp)
    3712:	00 
    3713:	48 c1 e1 02          	shl    $0x2,%rcx
    3717:	c7 44 24 14 00 00 00 	movl   $0x0,0x14(%rsp)
    371e:	00 
    371f:	f3 aa                	rep stos %al,%es:(%rdi)
    3721:	c7 44 24 30 03 00 00 	movl   $0x3,0x30(%rsp)
    3728:	00 
    3729:	48 89 94 24 48 01 00 	mov    %rdx,0x148(%rsp)
    3730:	00 
    3731:	48 89 ac 24 c8 00 00 	mov    %rbp,0xc8(%rsp)
    3738:	00 
    3739:	4c 89 84 24 c0 00 00 	mov    %r8,0xc0(%rsp)
    3740:	00 
    3741:	4c 63 4c 24 20       	movslq 0x20(%rsp),%r9
    3746:	4c 8b 5c 24 08       	mov    0x8(%rsp),%r11
    374b:	8b b4 24 d0 01 00 00 	mov    0x1d0(%rsp),%esi
    3752:	48 63 4c 24 14       	movslq 0x14(%rsp),%rcx
    3757:	4f 8d 24 8b          	lea    (%r11,%r9,4),%r12
    375b:	41 b8 03 00 00 00    	mov    $0x3,%r8d
    3761:	4c 89 4c 24 28       	mov    %r9,0x28(%rsp)
    3766:	83 ee 03             	sub    $0x3,%esi
    3769:	3b 74 24 30          	cmp    0x30(%rsp),%esi
    376d:	4c 89 64 24 38       	mov    %r12,0x38(%rsp)
    3772:	7f 24                	jg     3798 <susan_edges+0xee>
    3774:	42 8d 0c bd 00 00 00 	lea    0x0(,%r15,4),%ecx
    377b:	00 
    377c:	44 89 bc 24 b8 00 00 	mov    %r15d,0xb8(%rsp)
    3783:	00 
    3784:	c7 44 24 14 04 00 00 	movl   $0x4,0x14(%rsp)
    378b:	00 
    378c:	89 8c 24 bc 00 00 00 	mov    %ecx,0xbc(%rsp)
    3793:	e9 20 04 00 00       	jmp    3bb8 <susan_edges+0x50e>
    3798:	4c 8b ac 24 48 01 00 	mov    0x148(%rsp),%r13
    379f:	00 
    37a0:	4c 8b b4 24 c8 00 00 	mov    0xc8(%rsp),%r14
    37a7:	00 
    37a8:	41 8d 47 fd          	lea    -0x3(%r15),%eax
    37ac:	4c 8b 94 24 c0 00 00 	mov    0xc0(%rsp),%r10
    37b3:	00 
    37b4:	4a 8d 14 29          	lea    (%rcx,%r13,1),%rdx
    37b8:	48 03 54 24 18       	add    0x18(%rsp),%rdx
    37bd:	4a 8d 3c 31          	lea    (%rcx,%r14,1),%rdi
    37c1:	48 03 7c 24 18       	add    0x18(%rsp),%rdi
    37c6:	4a 8d 34 11          	lea    (%rcx,%r10,1),%rsi
    37ca:	48 03 4c 24 18       	add    0x18(%rsp),%rcx
    37cf:	48 03 74 24 18       	add    0x18(%rsp),%rsi
    37d4:	44 39 c0             	cmp    %r8d,%eax
    37d7:	0f 8e 75 03 00 00    	jle    3b52 <susan_edges+0x4a8>
    37dd:	44 0f b6 6c 19 04    	movzbl 0x4(%rcx,%rbx,1),%r13d
    37e3:	48 8b 6c 24 18       	mov    0x18(%rsp),%rbp
    37e8:	48 03 6c 24 28       	add    0x28(%rsp),%rbp
    37ed:	44 0f b6 61 02       	movzbl 0x2(%rcx),%r12d
    37f2:	42 0f b6 44 05 00    	movzbl 0x0(%rbp,%r8,1),%eax
    37f8:	44 0f b6 51 03       	movzbl 0x3(%rcx),%r10d
    37fd:	4c 89 6c 24 40       	mov    %r13,0x40(%rsp)
    3802:	48 03 84 24 40 01 00 	add    0x140(%rsp),%rax
    3809:	00 
    380a:	44 0f b6 49 04       	movzbl 0x4(%rcx),%r9d
    380f:	49 89 c5             	mov    %rax,%r13
    3812:	44 0f b6 74 19 01    	movzbl 0x1(%rcx,%rbx,1),%r14d
    3818:	44 0f b6 5c 19 02    	movzbl 0x2(%rcx,%rbx,1),%r11d
    381e:	4d 29 e5             	sub    %r12,%r13
    3821:	49 89 c4             	mov    %rax,%r12
    3824:	4d 29 d4             	sub    %r10,%r12
    3827:	49 89 c2             	mov    %rax,%r10
    382a:	0f b6 6c 19 03       	movzbl 0x3(%rcx,%rbx,1),%ebp
    382f:	45 0f b6 6d 00       	movzbl 0x0(%r13),%r13d
    3834:	4d 29 ca             	sub    %r9,%r10
    3837:	49 89 c1             	mov    %rax,%r9
    383a:	45 0f b6 24 24       	movzbl (%r12),%r12d
    383f:	4d 29 f1             	sub    %r14,%r9
    3842:	45 89 ee             	mov    %r13d,%r14d
    3845:	45 0f b6 12          	movzbl (%r10),%r10d
    3849:	45 89 e5             	mov    %r12d,%r13d
    384c:	49 89 c4             	mov    %rax,%r12
    384f:	45 0f b6 09          	movzbl (%r9),%r9d
    3853:	4d 29 dc             	sub    %r11,%r12
    3856:	49 89 c3             	mov    %rax,%r11
    3859:	47 8d 6c 2e 64       	lea    0x64(%r14,%r13,1),%r13d
    385e:	45 0f b6 24 24       	movzbl (%r12),%r12d
    3863:	49 29 eb             	sub    %rbp,%r11
    3866:	44 89 d5             	mov    %r10d,%ebp
    3869:	45 89 ca             	mov    %r9d,%r10d
    386c:	41 01 ed             	add    %ebp,%r13d
    386f:	45 01 d5             	add    %r10d,%r13d
    3872:	44 0f b6 74 19 05    	movzbl 0x5(%rcx,%rbx,1),%r14d
    3878:	0f b6 2a             	movzbl (%rdx),%ebp
    387b:	49 89 c2             	mov    %rax,%r10
    387e:	45 01 e5             	add    %r12d,%r13d
    3881:	45 0f b6 1b          	movzbl (%r11),%r11d
    3885:	49 89 c1             	mov    %rax,%r9
    3888:	49 89 c4             	mov    %rax,%r12
    388b:	4c 2b 4c 24 40       	sub    0x40(%rsp),%r9
    3890:	4d 29 f2             	sub    %r14,%r10
    3893:	49 29 ec             	sub    %rbp,%r12
    3896:	44 0f b6 72 01       	movzbl 0x1(%rdx),%r14d
    389b:	45 01 dd             	add    %r11d,%r13d
    389e:	45 0f b6 09          	movzbl (%r9),%r9d
    38a2:	45 0f b6 12          	movzbl (%r10),%r10d
    38a6:	45 0f b6 1c 24       	movzbl (%r12),%r11d
    38ab:	0f b6 6a 02          	movzbl 0x2(%rdx),%ebp
    38af:	49 89 c4             	mov    %rax,%r12
    38b2:	45 01 cd             	add    %r9d,%r13d
    38b5:	4d 29 f4             	sub    %r14,%r12
    38b8:	44 0f b6 72 03       	movzbl 0x3(%rdx),%r14d
    38bd:	45 0f b6 0c 24       	movzbl (%r12),%r9d
    38c2:	49 89 c4             	mov    %rax,%r12
    38c5:	45 01 d5             	add    %r10d,%r13d
    38c8:	49 29 ec             	sub    %rbp,%r12
    38cb:	0f b6 6a 04          	movzbl 0x4(%rdx),%ebp
    38cf:	45 01 dd             	add    %r11d,%r13d
    38d2:	45 0f b6 14 24       	movzbl (%r12),%r10d
    38d7:	49 89 c4             	mov    %rax,%r12
    38da:	44 0f b6 5a 05       	movzbl 0x5(%rdx),%r11d
    38df:	45 01 cd             	add    %r9d,%r13d
    38e2:	4d 29 f4             	sub    %r14,%r12
    38e5:	44 0f b6 4a 06       	movzbl 0x6(%rdx),%r9d
    38ea:	45 0f b6 24 24       	movzbl (%r12),%r12d
    38ef:	4d 89 de             	mov    %r11,%r14
    38f2:	45 01 d5             	add    %r10d,%r13d
    38f5:	45 89 e3             	mov    %r12d,%r11d
    38f8:	49 89 c4             	mov    %rax,%r12
    38fb:	44 0f b6 14 1a       	movzbl (%rdx,%rbx,1),%r10d
    3900:	49 29 ec             	sub    %rbp,%r12
    3903:	4c 89 cd             	mov    %r9,%rbp
    3906:	45 01 dd             	add    %r11d,%r13d
    3909:	45 0f b6 0c 24       	movzbl (%r12),%r9d
    390e:	49 89 c4             	mov    %rax,%r12
    3911:	44 0f b6 5c 1a 01    	movzbl 0x1(%rdx,%rbx,1),%r11d
    3917:	4d 29 f4             	sub    %r14,%r12
    391a:	4d 89 d6             	mov    %r10,%r14
    391d:	45 0f b6 14 24       	movzbl (%r12),%r10d
    3922:	45 01 cd             	add    %r9d,%r13d
    3925:	49 89 c4             	mov    %rax,%r12
    3928:	44 0f b6 4c 1a 02    	movzbl 0x2(%rdx,%rbx,1),%r9d
    392e:	49 29 ec             	sub    %rbp,%r12
    3931:	4c 89 dd             	mov    %r11,%rbp
    3934:	45 01 d5             	add    %r10d,%r13d
    3937:	45 0f b6 24 24       	movzbl (%r12),%r12d
    393c:	44 0f b6 54 1a 04    	movzbl 0x4(%rdx,%rbx,1),%r10d
    3942:	45 89 e3             	mov    %r12d,%r11d
    3945:	49 89 c4             	mov    %rax,%r12
    3948:	45 01 dd             	add    %r11d,%r13d
    394b:	4d 29 f4             	sub    %r14,%r12
    394e:	4d 89 ce             	mov    %r9,%r14
    3951:	44 0f b6 5c 1a 05    	movzbl 0x5(%rdx,%rbx,1),%r11d
    3957:	45 0f b6 0c 24       	movzbl (%r12),%r9d
    395c:	49 89 c4             	mov    %rax,%r12
    395f:	49 29 ec             	sub    %rbp,%r12
    3962:	4c 89 d5             	mov    %r10,%rbp
    3965:	45 01 cd             	add    %r9d,%r13d
    3968:	45 0f b6 14 24       	movzbl (%r12),%r10d
    396d:	49 89 c4             	mov    %rax,%r12
    3970:	44 0f b6 4c 1a 06    	movzbl 0x6(%rdx,%rbx,1),%r9d
    3976:	4d 29 f4             	sub    %r14,%r12
    3979:	45 0f b6 24 24       	movzbl (%r12),%r12d
    397e:	4d 89 de             	mov    %r11,%r14
    3981:	45 01 d5             	add    %r10d,%r13d
    3984:	44 0f b6 17          	movzbl (%rdi),%r10d
    3988:	45 89 e3             	mov    %r12d,%r11d
    398b:	49 89 c4             	mov    %rax,%r12
    398e:	49 29 ec             	sub    %rbp,%r12
    3991:	4c 89 cd             	mov    %r9,%rbp
    3994:	45 01 dd             	add    %r11d,%r13d
    3997:	45 0f b6 0c 24       	movzbl (%r12),%r9d
    399c:	49 89 c4             	mov    %rax,%r12
    399f:	44 0f b6 5f 01       	movzbl 0x1(%rdi),%r11d
    39a4:	4d 29 f4             	sub    %r14,%r12
    39a7:	4d 89 d6             	mov    %r10,%r14
    39aa:	45 0f b6 14 24       	movzbl (%r12),%r10d
    39af:	49 89 c4             	mov    %rax,%r12
    39b2:	45 01 cd             	add    %r9d,%r13d
    39b5:	49 29 ec             	sub    %rbp,%r12
    39b8:	44 0f b6 4f 02       	movzbl 0x2(%rdi),%r9d
    39bd:	45 0f b6 24 24       	movzbl (%r12),%r12d
    39c2:	4c 89 dd             	mov    %r11,%rbp
    39c5:	45 01 d5             	add    %r10d,%r13d
    39c8:	45 89 e3             	mov    %r12d,%r11d
    39cb:	49 89 c4             	mov    %rax,%r12
    39ce:	44 0f b6 57 03       	movzbl 0x3(%rdi),%r10d
    39d3:	4d 29 f4             	sub    %r14,%r12
    39d6:	45 01 dd             	add    %r11d,%r13d
    39d9:	4d 89 ce             	mov    %r9,%r14
    39dc:	45 0f b6 0c 24       	movzbl (%r12),%r9d
    39e1:	49 89 c4             	mov    %rax,%r12
    39e4:	44 0f b6 5f 04       	movzbl 0x4(%rdi),%r11d
    39e9:	49 29 ec             	sub    %rbp,%r12
    39ec:	4c 89 d5             	mov    %r10,%rbp
    39ef:	45 01 cd             	add    %r9d,%r13d
    39f2:	45 0f b6 14 24       	movzbl (%r12),%r10d
    39f7:	49 89 c4             	mov    %rax,%r12
    39fa:	44 0f b6 4f 05       	movzbl 0x5(%rdi),%r9d
    39ff:	4d 29 f4             	sub    %r14,%r12
    3a02:	45 0f b6 24 24       	movzbl (%r12),%r12d
    3a07:	4d 89 de             	mov    %r11,%r14
    3a0a:	45 01 d5             	add    %r10d,%r13d
    3a0d:	44 0f b6 57 06       	movzbl 0x6(%rdi),%r10d
    3a12:	45 89 e3             	mov    %r12d,%r11d
    3a15:	49 89 c4             	mov    %rax,%r12
    3a18:	45 01 dd             	add    %r11d,%r13d
    3a1b:	49 29 ec             	sub    %rbp,%r12
    3a1e:	4c 89 cd             	mov    %r9,%rbp
    3a21:	44 0f b6 5e 01       	movzbl 0x1(%rsi),%r11d
    3a26:	45 0f b6 0c 24       	movzbl (%r12),%r9d
    3a2b:	49 89 c4             	mov    %rax,%r12
    3a2e:	4d 29 f4             	sub    %r14,%r12
    3a31:	4d 89 d6             	mov    %r10,%r14
    3a34:	45 01 cd             	add    %r9d,%r13d
    3a37:	45 0f b6 14 24       	movzbl (%r12),%r10d
    3a3c:	49 89 c4             	mov    %rax,%r12
    3a3f:	49 29 ec             	sub    %rbp,%r12
    3a42:	4c 89 dd             	mov    %r11,%rbp
    3a45:	44 0f b6 4e 02       	movzbl 0x2(%rsi),%r9d
    3a4a:	45 01 d5             	add    %r10d,%r13d
    3a4d:	45 0f b6 24 24       	movzbl (%r12),%r12d
    3a52:	44 0f b6 56 03       	movzbl 0x3(%rsi),%r10d
    3a57:	45 89 e3             	mov    %r12d,%r11d
    3a5a:	49 89 c4             	mov    %rax,%r12
    3a5d:	45 01 dd             	add    %r11d,%r13d
    3a60:	4d 29 f4             	sub    %r14,%r12
    3a63:	4d 89 ce             	mov    %r9,%r14
    3a66:	44 0f b6 5e 04       	movzbl 0x4(%rsi),%r11d
    3a6b:	45 0f b6 0c 24       	movzbl (%r12),%r9d
    3a70:	49 89 c4             	mov    %rax,%r12
    3a73:	49 29 ec             	sub    %rbp,%r12
    3a76:	4c 89 d5             	mov    %r10,%rbp
    3a79:	45 01 cd             	add    %r9d,%r13d
    3a7c:	45 0f b6 14 24       	movzbl (%r12),%r10d
    3a81:	49 89 c4             	mov    %rax,%r12
    3a84:	44 0f b6 4e 05       	movzbl 0x5(%rsi),%r9d
    3a89:	4d 29 f4             	sub    %r14,%r12
    3a8c:	45 0f b6 24 24       	movzbl (%r12),%r12d
    3a91:	4d 89 de             	mov    %r11,%r14
    3a94:	45 01 d5             	add    %r10d,%r13d
    3a97:	44 0f b6 54 1e 02    	movzbl 0x2(%rsi,%rbx,1),%r10d
    3a9d:	45 89 e3             	mov    %r12d,%r11d
    3aa0:	49 89 c4             	mov    %rax,%r12
    3aa3:	45 01 dd             	add    %r11d,%r13d
    3aa6:	49 29 ec             	sub    %rbp,%r12
    3aa9:	4c 89 cd             	mov    %r9,%rbp
    3aac:	44 0f b6 5c 1e 03    	movzbl 0x3(%rsi,%rbx,1),%r11d
    3ab2:	45 0f b6 0c 24       	movzbl (%r12),%r9d
    3ab7:	49 89 c4             	mov    %rax,%r12
    3aba:	4d 29 f4             	sub    %r14,%r12
    3abd:	4d 89 d6             	mov    %r10,%r14
    3ac0:	45 0f b6 14 24       	movzbl (%r12),%r10d
    3ac5:	49 89 c4             	mov    %rax,%r12
    3ac8:	45 01 cd             	add    %r9d,%r13d
    3acb:	49 29 ec             	sub    %rbp,%r12
    3ace:	4c 89 dd             	mov    %r11,%rbp
    3ad1:	44 0f b6 4c 1e 04    	movzbl 0x4(%rsi,%rbx,1),%r9d
    3ad7:	45 0f b6 24 24       	movzbl (%r12),%r12d
    3adc:	45 01 d5             	add    %r10d,%r13d
    3adf:	45 89 e3             	mov    %r12d,%r11d
    3ae2:	49 89 c4             	mov    %rax,%r12
    3ae5:	45 01 dd             	add    %r11d,%r13d
    3ae8:	4d 29 f4             	sub    %r14,%r12
    3aeb:	4d 89 ce             	mov    %r9,%r14
    3aee:	45 0f b6 0c 24       	movzbl (%r12),%r9d
    3af3:	49 89 c4             	mov    %rax,%r12
    3af6:	49 29 ec             	sub    %rbp,%r12
    3af9:	4c 29 f0             	sub    %r14,%rax
    3afc:	45 01 e9             	add    %r13d,%r9d
    3aff:	45 0f b6 14 24       	movzbl (%r12),%r10d
    3b04:	0f b6 00             	movzbl (%rax),%eax
    3b07:	45 01 ca             	add    %r9d,%r10d
    3b0a:	41 01 c2             	add    %eax,%r10d
    3b0d:	41 8d 47 fd          	lea    -0x3(%r15),%eax
    3b11:	44 39 94 24 b4 00 00 	cmp    %r10d,0xb4(%rsp)
    3b18:	00 
    3b19:	7c 23                	jl     3b3e <susan_edges+0x494>
    3b1b:	48 8b 6c 24 38       	mov    0x38(%rsp),%rbp
    3b20:	48 ff c1             	inc    %rcx
    3b23:	48 ff c2             	inc    %rdx
    3b26:	48 ff c7             	inc    %rdi
    3b29:	44 8b ac 24 b4 00 00 	mov    0xb4(%rsp),%r13d
    3b30:	00 
    3b31:	48 ff c6             	inc    %rsi
    3b34:	45 29 d5             	sub    %r10d,%r13d
    3b37:	46 89 6c 85 00       	mov    %r13d,0x0(%rbp,%r8,4)
    3b3c:	eb 0c                	jmp    3b4a <susan_edges+0x4a0>
    3b3e:	48 ff c1             	inc    %rcx
    3b41:	48 ff c2             	inc    %rdx
    3b44:	48 ff c7             	inc    %rdi
    3b47:	48 ff c6             	inc    %rsi
    3b4a:	49 ff c0             	inc    %r8
    3b4d:	e9 82 fc ff ff       	jmp    37d4 <susan_edges+0x12a>
    3b52:	ff 44 24 30          	incl   0x30(%rsp)
    3b56:	44 01 7c 24 14       	add    %r15d,0x14(%rsp)
    3b5b:	44 01 7c 24 20       	add    %r15d,0x20(%rsp)
    3b60:	e9 dc fb ff ff       	jmp    3741 <susan_edges+0x97>
    3b65:	48 8b 44 24 08       	mov    0x8(%rsp),%rax
    3b6a:	48 8b 4c 24 38       	mov    0x38(%rsp),%rcx
    3b6f:	44 8b 6c 88 10       	mov    0x10(%rax,%rcx,4),%r13d
    3b74:	45 85 ed             	test   %r13d,%r13d
    3b77:	0f 8f b8 00 00 00    	jg     3c35 <susan_edges+0x58b>
    3b7d:	41 ff c4             	inc    %r12d
    3b80:	48 ff 44 24 20       	incq   0x20(%rsp)
    3b85:	48 ff c5             	inc    %rbp
    3b88:	48 ff 44 24 30       	incq   0x30(%rsp)
    3b8d:	48 ff 44 24 28       	incq   0x28(%rsp)
    3b92:	48 ff 44 24 38       	incq   0x38(%rsp)
    3b97:	eb 00                	jmp    3b99 <susan_edges+0x4ef>
    3b99:	45 8d 57 fc          	lea    -0x4(%r15),%r10d
    3b9d:	45 39 e2             	cmp    %r12d,%r10d
    3ba0:	7f c3                	jg     3b65 <susan_edges+0x4bb>
    3ba2:	ff 44 24 14          	incl   0x14(%rsp)
    3ba6:	44 01 bc 24 b8 00 00 	add    %r15d,0xb8(%rsp)
    3bad:	00 
    3bae:	44 01 bc 24 bc 00 00 	add    %r15d,0xbc(%rsp)
    3bb5:	00 
    3bb6:	eb 00                	jmp    3bb8 <susan_edges+0x50e>
    3bb8:	44 8b 84 24 d0 01 00 	mov    0x1d0(%rsp),%r8d
    3bbf:	00 
    3bc0:	41 83 e8 04          	sub    $0x4,%r8d
    3bc4:	44 3b 44 24 14       	cmp    0x14(%rsp),%r8d
    3bc9:	0f 8e 81 0c 00 00    	jle    4850 <susan_edges+0x11a6>
    3bcf:	48 63 bc 24 b8 00 00 	movslq 0xb8(%rsp),%rdi
    3bd6:	00 
    3bd7:	48 8b b4 24 48 01 00 	mov    0x148(%rsp),%rsi
    3bde:	00 
    3bdf:	4c 8b 9c 24 c8 00 00 	mov    0xc8(%rsp),%r11
    3be6:	00 
    3be7:	4c 8b 8c 24 c0 00 00 	mov    0xc0(%rsp),%r9
    3bee:	00 
    3bef:	48 63 94 24 bc 00 00 	movslq 0xbc(%rsp),%rdx
    3bf6:	00 
    3bf7:	48 8d 2c 37          	lea    (%rdi,%rsi,1),%rbp
    3bfb:	41 bc 04 00 00 00    	mov    $0x4,%r12d
    3c01:	49 01 f9             	add    %rdi,%r9
    3c04:	4c 03 4c 24 18       	add    0x18(%rsp),%r9
    3c09:	4e 8d 34 1f          	lea    (%rdi,%r11,1),%r14
    3c0d:	48 03 7c 24 18       	add    0x18(%rsp),%rdi
    3c12:	4c 03 74 24 18       	add    0x18(%rsp),%r14
    3c17:	48 89 54 24 38       	mov    %rdx,0x38(%rsp)
    3c1c:	48 03 6c 24 18       	add    0x18(%rsp),%rbp
    3c21:	48 89 7c 24 20       	mov    %rdi,0x20(%rsp)
    3c26:	4c 89 74 24 30       	mov    %r14,0x30(%rsp)
    3c2b:	4c 89 4c 24 28       	mov    %r9,0x28(%rsp)
    3c30:	e9 64 ff ff ff       	jmp    3b99 <susan_edges+0x4ef>
    3c35:	4c 8b 44 24 18       	mov    0x18(%rsp),%r8
    3c3a:	48 8b 54 24 20       	mov    0x20(%rsp),%rdx
    3c3f:	8b bc 24 b4 00 00 00 	mov    0xb4(%rsp),%edi
    3c46:	4c 8b 74 24 20       	mov    0x20(%rsp),%r14
    3c4b:	41 0f b6 44 08 04    	movzbl 0x4(%r8,%rcx,1),%eax
    3c51:	48 03 84 24 40 01 00 	add    0x140(%rsp),%rax
    3c58:	00 
    3c59:	44 29 ef             	sub    %r13d,%edi
    3c5c:	44 0f b6 5a 03       	movzbl 0x3(%rdx),%r11d
    3c61:	49 89 c0             	mov    %rax,%r8
    3c64:	0f b6 4a 05          	movzbl 0x5(%rdx),%ecx
    3c68:	89 bc 24 d0 00 00 00 	mov    %edi,0xd0(%rsp)
    3c6f:	45 0f b6 54 1e 04    	movzbl 0x4(%r14,%rbx,1),%r10d
    3c75:	48 89 cf             	mov    %rcx,%rdi
    3c78:	4d 29 d8             	sub    %r11,%r8
    3c7b:	49 89 c3             	mov    %rax,%r11
    3c7e:	4c 8b 4c 24 20       	mov    0x20(%rsp),%r9
    3c83:	49 29 fb             	sub    %rdi,%r11
    3c86:	0f b6 74 1a 02       	movzbl 0x2(%rdx,%rbx,1),%esi
    3c8b:	41 0f b6 54 1e 05    	movzbl 0x5(%r14,%rbx,1),%edx
    3c91:	41 0f b6 4c 1e 03    	movzbl 0x3(%r14,%rbx,1),%ecx
    3c97:	49 89 c6             	mov    %rax,%r14
    3c9a:	0f b6 7d 02          	movzbl 0x2(%rbp),%edi
    3c9e:	4c 89 5c 24 48       	mov    %r11,0x48(%rsp)
    3ca3:	49 89 c3             	mov    %rax,%r11
    3ca6:	45 0f b6 4c 19 06    	movzbl 0x6(%r9,%rbx,1),%r9d
    3cac:	49 29 f6             	sub    %rsi,%r14
    3caf:	4d 29 d3             	sub    %r10,%r11
    3cb2:	48 89 c6             	mov    %rax,%rsi
    3cb5:	44 0f b6 55 05       	movzbl 0x5(%rbp),%r10d
    3cba:	4c 89 44 24 40       	mov    %r8,0x40(%rsp)
    3cbf:	4c 89 5c 24 60       	mov    %r11,0x60(%rsp)
    3cc4:	49 89 c3             	mov    %rax,%r11
    3cc7:	48 29 ce             	sub    %rcx,%rsi
    3cca:	0f b6 4d 03          	movzbl 0x3(%rbp),%ecx
    3cce:	49 29 d3             	sub    %rdx,%r11
    3cd1:	48 89 c2             	mov    %rax,%rdx
    3cd4:	48 89 74 24 58       	mov    %rsi,0x58(%rsp)
    3cd9:	4c 29 ca             	sub    %r9,%rdx
    3cdc:	48 89 ce             	mov    %rcx,%rsi
    3cdf:	44 0f b6 45 01       	movzbl 0x1(%rbp),%r8d
    3ce4:	0f b6 4d 04          	movzbl 0x4(%rbp),%ecx
    3ce8:	48 89 54 24 68       	mov    %rdx,0x68(%rsp)
    3ced:	48 89 c2             	mov    %rax,%rdx
    3cf0:	44 0f b6 4d 06       	movzbl 0x6(%rbp),%r9d
    3cf5:	48 29 fa             	sub    %rdi,%rdx
    3cf8:	48 89 c7             	mov    %rax,%rdi
    3cfb:	4c 89 54 24 70       	mov    %r10,0x70(%rsp)
    3d00:	4d 89 ca             	mov    %r9,%r10
    3d03:	49 89 c1             	mov    %rax,%r9
    3d06:	4c 89 74 24 50       	mov    %r14,0x50(%rsp)
    3d0b:	48 89 94 24 80 00 00 	mov    %rdx,0x80(%rsp)
    3d12:	00 
    3d13:	4d 29 c1             	sub    %r8,%r9
    3d16:	44 0f b6 75 07       	movzbl 0x7(%rbp),%r14d
    3d1b:	44 0f b6 44 1d 01    	movzbl 0x1(%rbp,%rbx,1),%r8d
    3d21:	48 29 f7             	sub    %rsi,%rdi
    3d24:	48 89 c6             	mov    %rax,%rsi
    3d27:	48 89 c2             	mov    %rax,%rdx
    3d2a:	45 0f b6 1b          	movzbl (%r11),%r11d
    3d2e:	48 29 ce             	sub    %rcx,%rsi
    3d31:	4c 29 d2             	sub    %r10,%rdx
    3d34:	48 89 c1             	mov    %rax,%rcx
    3d37:	48 2b 4c 24 70       	sub    0x70(%rsp),%rcx
    3d3c:	4c 8b 54 24 40       	mov    0x40(%rsp),%r10
    3d41:	45 0f b6 09          	movzbl (%r9),%r9d
    3d45:	44 89 9c 24 88 00 00 	mov    %r11d,0x88(%rsp)
    3d4c:	00 
    3d4d:	4c 8b 5c 24 48       	mov    0x48(%rsp),%r11
    3d52:	0f b6 3f             	movzbl (%rdi),%edi
    3d55:	45 0f b6 12          	movzbl (%r10),%r10d
    3d59:	0f b6 36             	movzbl (%rsi),%esi
    3d5c:	44 89 4c 24 40       	mov    %r9d,0x40(%rsp)
    3d61:	45 0f b6 0b          	movzbl (%r11),%r9d
    3d65:	0f b6 12             	movzbl (%rdx),%edx
    3d68:	89 7c 24 48          	mov    %edi,0x48(%rsp)
    3d6c:	48 8b 7c 24 50       	mov    0x50(%rsp),%rdi
    3d71:	0f b6 09             	movzbl (%rcx),%ecx
    3d74:	44 89 54 24 70       	mov    %r10d,0x70(%rsp)
    3d79:	49 89 c2             	mov    %rax,%r10
    3d7c:	44 89 4c 24 78       	mov    %r9d,0x78(%rsp)
    3d81:	4d 29 f2             	sub    %r14,%r10
    3d84:	49 89 c6             	mov    %rax,%r14
    3d87:	89 b4 24 ec 00 00 00 	mov    %esi,0xec(%rsp)
    3d8e:	4d 29 c6             	sub    %r8,%r14
    3d91:	4d 89 d8             	mov    %r11,%r8
    3d94:	45 89 c8             	mov    %r9d,%r8d
    3d97:	49 89 f8             	mov    %rdi,%r8
    3d9a:	45 0f b6 00          	movzbl (%r8),%r8d
    3d9e:	48 8b 74 24 58       	mov    0x58(%rsp),%rsi
    3da3:	89 4c 24 50          	mov    %ecx,0x50(%rsp)
    3da7:	48 8b 4c 24 60       	mov    0x60(%rsp),%rcx
    3dac:	4c 8b 5c 24 68       	mov    0x68(%rsp),%r11
    3db1:	44 89 84 24 d4 00 00 	mov    %r8d,0xd4(%rsp)
    3db8:	00 
    3db9:	49 89 f0             	mov    %rsi,%r8
    3dbc:	45 0f b6 00          	movzbl (%r8),%r8d
    3dc0:	44 0f b6 09          	movzbl (%rcx),%r9d
    3dc4:	41 0f b6 3b          	movzbl (%r11),%edi
    3dc8:	48 8b b4 24 80 00 00 	mov    0x80(%rsp),%rsi
    3dcf:	00 
    3dd0:	44 89 44 24 7c       	mov    %r8d,0x7c(%rsp)
    3dd5:	49 89 c8             	mov    %rcx,%r8
    3dd8:	45 89 c8             	mov    %r9d,%r8d
    3ddb:	44 89 84 24 dc 00 00 	mov    %r8d,0xdc(%rsp)
    3de2:	00 
    3de3:	4d 89 d8             	mov    %r11,%r8
    3de6:	41 89 fb             	mov    %edi,%r11d
    3de9:	44 89 9c 24 e4 00 00 	mov    %r11d,0xe4(%rsp)
    3df0:	00 
    3df1:	44 8b 5c 24 7c       	mov    0x7c(%rsp),%r11d
    3df6:	49 89 f0             	mov    %rsi,%r8
    3df9:	8b 8c 24 88 00 00 00 	mov    0x88(%rsp),%ecx
    3e00:	45 0f b6 00          	movzbl (%r8),%r8d
    3e04:	47 8d 0c 1b          	lea    (%r11,%r11,1),%r9d
    3e08:	89 94 24 8c 00 00 00 	mov    %edx,0x8c(%rsp)
    3e0f:	41 89 cb             	mov    %ecx,%r11d
    3e12:	44 89 8c 24 d8 00 00 	mov    %r9d,0xd8(%rsp)
    3e19:	00 
    3e1a:	43 8d 3c 00          	lea    (%r8,%r8,1),%edi
    3e1e:	47 8d 0c 1b          	lea    (%r11,%r11,1),%r9d
    3e22:	44 89 84 24 80 00 00 	mov    %r8d,0x80(%rsp)
    3e29:	00 
    3e2a:	44 89 8c 24 e0 00 00 	mov    %r9d,0xe0(%rsp)
    3e31:	00 
    3e32:	48 8b 54 24 30       	mov    0x30(%rsp),%rdx
    3e37:	45 0f b6 12          	movzbl (%r10),%r10d
    3e3b:	89 bc 24 e8 00 00 00 	mov    %edi,0xe8(%rsp)
    3e42:	8b b4 24 8c 00 00 00 	mov    0x8c(%rsp),%esi
    3e49:	44 0f b6 4c 1d 02    	movzbl 0x2(%rbp,%rbx,1),%r9d
    3e4f:	0f b6 4a 01          	movzbl 0x1(%rdx),%ecx
    3e53:	45 0f b6 36          	movzbl (%r14),%r14d
    3e57:	44 89 54 24 58       	mov    %r10d,0x58(%rsp)
    3e5c:	44 8d 1c 36          	lea    (%rsi,%rsi,1),%r11d
    3e60:	48 89 c6             	mov    %rax,%rsi
    3e63:	44 0f b6 52 02       	movzbl 0x2(%rdx),%r10d
    3e68:	4c 29 ce             	sub    %r9,%rsi
    3e6b:	49 89 c1             	mov    %rax,%r9
    3e6e:	49 29 c9             	sub    %rcx,%r9
    3e71:	0f b6 16             	movzbl (%rsi),%edx
    3e74:	48 89 c6             	mov    %rax,%rsi
    3e77:	44 89 b4 24 f4 00 00 	mov    %r14d,0xf4(%rsp)
    3e7e:	00 
    3e7f:	45 0f b6 31          	movzbl (%r9),%r14d
    3e83:	4c 29 d6             	sub    %r10,%rsi
    3e86:	44 0f b6 44 1d 03    	movzbl 0x3(%rbp,%rbx,1),%r8d
    3e8c:	44 89 9c 24 f0 00 00 	mov    %r11d,0xf0(%rsp)
    3e93:	00 
    3e94:	41 89 d3             	mov    %edx,%r11d
    3e97:	49 89 c2             	mov    %rax,%r10
    3e9a:	44 89 b4 24 90 00 00 	mov    %r14d,0x90(%rsp)
    3ea1:	00 
    3ea2:	49 89 c6             	mov    %rax,%r14
    3ea5:	0f b6 7c 1d 05       	movzbl 0x5(%rbp,%rbx,1),%edi
    3eaa:	4d 29 c6             	sub    %r8,%r14
    3ead:	0f b6 4c 1d 06       	movzbl 0x6(%rbp,%rbx,1),%ecx
    3eb2:	44 0f b6 06          	movzbl (%rsi),%r8d
    3eb6:	0f b6 54 1d 07       	movzbl 0x7(%rbp,%rbx,1),%edx
    3ebb:	44 89 9c 24 f8 00 00 	mov    %r11d,0xf8(%rsp)
    3ec2:	00 
    3ec3:	49 89 c3             	mov    %rax,%r11
    3ec6:	49 29 fa             	sub    %rdi,%r10
    3ec9:	48 8b 7c 24 30       	mov    0x30(%rsp),%rdi
    3ece:	49 29 cb             	sub    %rcx,%r11
    3ed1:	4c 8b 4c 24 30       	mov    0x30(%rsp),%r9
    3ed6:	48 8b 4c 24 30       	mov    0x30(%rsp),%rcx
    3edb:	44 89 84 24 94 00 00 	mov    %r8d,0x94(%rsp)
    3ee2:	00 
    3ee3:	49 89 c0             	mov    %rax,%r8
    3ee6:	0f b6 7f 03          	movzbl 0x3(%rdi),%edi
    3eea:	49 29 d0             	sub    %rdx,%r8
    3eed:	41 0f b6 71 04       	movzbl 0x4(%r9),%esi
    3ef2:	0f b6 49 05          	movzbl 0x5(%rcx),%ecx
    3ef6:	6b 94 24 90 00 00 00 	imul   $0xfffffffd,0x90(%rsp),%edx
    3efd:	fd 
    3efe:	4c 89 54 24 60       	mov    %r10,0x60(%rsp)
    3f03:	4c 89 44 24 68       	mov    %r8,0x68(%rsp)
    3f08:	49 89 fa             	mov    %rdi,%r10
    3f0b:	48 8b 7c 24 30       	mov    0x30(%rsp),%rdi
    3f10:	44 8b 84 24 94 00 00 	mov    0x94(%rsp),%r8d
    3f17:	00 
    3f18:	89 94 24 0c 01 00 00 	mov    %edx,0x10c(%rsp)
    3f1f:	4c 8b 4c 24 30       	mov    0x30(%rsp),%r9
    3f24:	0f b6 57 06          	movzbl 0x6(%rdi),%edx
    3f28:	45 0f b6 49 07       	movzbl 0x7(%r9),%r9d
    3f2d:	48 89 c7             	mov    %rax,%rdi
    3f30:	45 01 c0             	add    %r8d,%r8d
    3f33:	45 0f b6 36          	movzbl (%r14),%r14d
    3f37:	45 0f b6 1b          	movzbl (%r11),%r11d
    3f3b:	4c 29 d7             	sub    %r10,%rdi
    3f3e:	4c 8b 54 24 28       	mov    0x28(%rsp),%r10
    3f43:	44 89 84 24 10 01 00 	mov    %r8d,0x110(%rsp)
    3f4a:	00 
    3f4b:	48 89 bc 24 98 00 00 	mov    %rdi,0x98(%rsp)
    3f52:	00 
    3f53:	45 0f b6 42 02       	movzbl 0x2(%r10),%r8d
    3f58:	41 0f b6 7a 03       	movzbl 0x3(%r10),%edi
    3f5d:	49 89 c2             	mov    %rax,%r10
    3f60:	44 89 b4 24 fc 00 00 	mov    %r14d,0xfc(%rsp)
    3f67:	00 
    3f68:	49 29 f2             	sub    %rsi,%r10
    3f6b:	48 89 c6             	mov    %rax,%rsi
    3f6e:	48 29 ce             	sub    %rcx,%rsi
    3f71:	48 8b 4c 24 28       	mov    0x28(%rsp),%rcx
    3f76:	4c 8b 74 24 60       	mov    0x60(%rsp),%r14
    3f7b:	0f b6 36             	movzbl (%rsi),%esi
    3f7e:	4c 89 94 24 a0 00 00 	mov    %r10,0xa0(%rsp)
    3f85:	00 
    3f86:	44 0f b6 51 04       	movzbl 0x4(%rcx),%r10d
    3f8b:	48 89 c1             	mov    %rax,%rcx
    3f8e:	44 89 9c 24 04 01 00 	mov    %r11d,0x104(%rsp)
    3f95:	00 
    3f96:	48 29 d1             	sub    %rdx,%rcx
    3f99:	48 89 c2             	mov    %rax,%rdx
    3f9c:	4c 29 ca             	sub    %r9,%rdx
    3f9f:	49 89 c1             	mov    %rax,%r9
    3fa2:	45 0f b6 1e          	movzbl (%r14),%r11d
    3fa6:	4d 29 c1             	sub    %r8,%r9
    3fa9:	49 89 c0             	mov    %rax,%r8
    3fac:	0f b6 12             	movzbl (%rdx),%edx
    3faf:	0f b6 09             	movzbl (%rcx),%ecx
    3fb2:	49 29 f8             	sub    %rdi,%r8
    3fb5:	4c 89 f7             	mov    %r14,%rdi
    3fb8:	45 89 de             	mov    %r11d,%r14d
    3fbb:	44 89 b4 24 00 01 00 	mov    %r14d,0x100(%rsp)
    3fc2:	00 
    3fc3:	49 89 c6             	mov    %rax,%r14
    3fc6:	4d 29 d6             	sub    %r10,%r14
    3fc9:	4c 8b 54 24 68       	mov    0x68(%rsp),%r10
    3fce:	45 0f b6 09          	movzbl (%r9),%r9d
    3fd2:	89 74 24 68          	mov    %esi,0x68(%rsp)
    3fd6:	4c 8b 9c 24 98 00 00 	mov    0x98(%rsp),%r11
    3fdd:	00 
    3fde:	48 8b b4 24 a0 00 00 	mov    0xa0(%rsp),%rsi
    3fe5:	00 
    3fe6:	41 0f b6 3a          	movzbl (%r10),%edi
    3fea:	45 0f b6 00          	movzbl (%r8),%r8d
    3fee:	45 0f b6 13          	movzbl (%r11),%r10d
    3ff2:	44 0f b6 1e          	movzbl (%rsi),%r11d
    3ff6:	89 bc 24 08 01 00 00 	mov    %edi,0x108(%rsp)
    3ffd:	48 89 f7             	mov    %rsi,%rdi
    4000:	44 89 54 24 60       	mov    %r10d,0x60(%rsp)
    4005:	44 89 9c 24 14 01 00 	mov    %r11d,0x114(%rsp)
    400c:	00 
    400d:	45 89 ca             	mov    %r9d,%r10d
    4010:	45 89 c1             	mov    %r8d,%r9d
    4013:	45 0f b6 1e          	movzbl (%r14),%r11d
    4017:	44 89 8c 24 a8 00 00 	mov    %r9d,0xa8(%rsp)
    401e:	00 
    401f:	89 94 24 a0 00 00 00 	mov    %edx,0xa0(%rsp)
    4026:	89 8c 24 98 00 00 00 	mov    %ecx,0x98(%rsp)
    402d:	8b bc 24 a8 00 00 00 	mov    0xa8(%rsp),%edi
    4034:	48 8b 4c 24 28       	mov    0x28(%rsp),%rcx
    4039:	44 6b b4 24 a0 00 00 	imul   $0x3,0xa0(%rsp),%r14d
    4040:	00 03 
    4042:	4c 8b 4c 24 20       	mov    0x20(%rsp),%r9
    4047:	8d 34 3f             	lea    (%rdi,%rdi,1),%esi
    404a:	48 89 cf             	mov    %rcx,%rdi
    404d:	48 8b 4c 24 28       	mov    0x28(%rsp),%rcx
    4052:	0f b6 57 05          	movzbl 0x5(%rdi),%edx
    4056:	44 8b 84 24 98 00 00 	mov    0x98(%rsp),%r8d
    405d:	00 
    405e:	0f b6 7f 06          	movzbl 0x6(%rdi),%edi
    4062:	44 89 b4 24 1c 01 00 	mov    %r14d,0x11c(%rsp)
    4069:	00 
    406a:	45 0f b6 49 04       	movzbl 0x4(%r9),%r9d
    406f:	89 b4 24 20 01 00 00 	mov    %esi,0x120(%rsp)
    4076:	48 89 ce             	mov    %rcx,%rsi
    4079:	49 89 fe             	mov    %rdi,%r14
    407c:	45 01 c0             	add    %r8d,%r8d
    407f:	0f b6 4c 1e 05       	movzbl 0x5(%rsi,%rbx,1),%ecx
    4084:	0f b6 74 1e 03       	movzbl 0x3(%rsi,%rbx,1),%esi
    4089:	4c 89 cf             	mov    %r9,%rdi
    408c:	49 89 c1             	mov    %rax,%r9
    408f:	44 89 84 24 18 01 00 	mov    %r8d,0x118(%rsp)
    4096:	00 
    4097:	49 29 d1             	sub    %rdx,%r9
    409a:	48 89 c2             	mov    %rax,%rdx
    409d:	49 89 c8             	mov    %rcx,%r8
    40a0:	4c 29 f2             	sub    %r14,%rdx
    40a3:	45 0f b6 31          	movzbl (%r9),%r14d
    40a7:	48 8b 4c 24 28       	mov    0x28(%rsp),%rcx
    40ac:	44 0f b6 0a          	movzbl (%rdx),%r9d
    40b0:	48 89 c2             	mov    %rax,%rdx
    40b3:	0f b6 4c 19 04       	movzbl 0x4(%rcx,%rbx,1),%ecx
    40b8:	44 89 b4 24 ac 00 00 	mov    %r14d,0xac(%rsp)
    40bf:	00 
    40c0:	48 29 fa             	sub    %rdi,%rdx
    40c3:	48 89 c7             	mov    %rax,%rdi
    40c6:	44 89 8c 24 28 01 00 	mov    %r9d,0x128(%rsp)
    40cd:	00 
    40ce:	4c 29 c7             	sub    %r8,%rdi
    40d1:	44 0f b6 02          	movzbl (%rdx),%r8d
    40d5:	48 89 c2             	mov    %rax,%rdx
    40d8:	45 01 f6             	add    %r14d,%r14d
    40db:	44 0f b6 0f          	movzbl (%rdi),%r9d
    40df:	48 29 f2             	sub    %rsi,%rdx
    40e2:	48 29 c8             	sub    %rcx,%rax
    40e5:	44 03 44 24 70       	add    0x70(%rsp),%r8d
    40ea:	0f b6 12             	movzbl (%rdx),%edx
    40ed:	0f b6 00             	movzbl (%rax),%eax
    40f0:	44 89 8c 24 b0 00 00 	mov    %r9d,0xb0(%rsp)
    40f7:	00 
    40f8:	6b b4 24 b0 00 00 00 	imul   $0x3,0xb0(%rsp),%esi
    40ff:	03 
    4100:	44 89 b4 24 24 01 00 	mov    %r14d,0x124(%rsp)
    4107:	00 
    4108:	41 89 d6             	mov    %edx,%r14d
    410b:	44 03 44 24 78       	add    0x78(%rsp),%r8d
    4110:	81 bc 24 d0 00 00 00 	cmpl   $0x258,0xd0(%rsp)
    4117:	58 02 00 00 
    411b:	89 84 24 2c 01 00 00 	mov    %eax,0x12c(%rsp)
    4122:	89 b4 24 30 01 00 00 	mov    %esi,0x130(%rsp)
    4129:	44 89 84 24 34 01 00 	mov    %r8d,0x134(%rsp)
    4130:	00 
    4131:	0f 8e a0 03 00 00    	jle    44d7 <susan_edges+0xe2d>
    4137:	41 6b c0 fd          	imul   $0xfffffffd,%r8d,%eax
    413b:	8b bc 24 d4 00 00 00 	mov    0xd4(%rsp),%edi
    4142:	8b 94 24 e4 00 00 00 	mov    0xe4(%rsp),%edx
    4149:	44 8b 84 24 dc 00 00 	mov    0xdc(%rsp),%r8d
    4150:	00 
    4151:	8b 4c 24 78          	mov    0x78(%rsp),%ecx
    4155:	01 ff                	add    %edi,%edi
    4157:	2b 4c 24 70          	sub    0x70(%rsp),%ecx
    415b:	8d 34 12             	lea    (%rdx,%rdx,1),%esi
    415e:	6b 54 24 40 fd       	imul   $0xfffffffd,0x40(%rsp),%edx
    4163:	29 f9                	sub    %edi,%ecx
    4165:	29 f8                	sub    %edi,%eax
    4167:	2b 4c 24 7c          	sub    0x7c(%rsp),%ecx
    416b:	2b 84 24 d8 00 00 00 	sub    0xd8(%rsp),%eax
    4172:	03 8c 24 88 00 00 00 	add    0x88(%rsp),%ecx
    4179:	47 8d 0c 00          	lea    (%r8,%r8,1),%r9d
    417d:	6b 7c 24 58 03       	imul   $0x3,0x58(%rsp),%edi
    4182:	44 29 c8             	sub    %r9d,%eax
    4185:	01 f1                	add    %esi,%ecx
    4187:	44 6b 8c 24 f4 00 00 	imul   $0xfffffffd,0xf4(%rsp),%r9d
    418e:	00 fd 
    4190:	01 d1                	add    %edx,%ecx
    4192:	2b 8c 24 e8 00 00 00 	sub    0xe8(%rsp),%ecx
    4199:	2b 4c 24 48          	sub    0x48(%rsp),%ecx
    419d:	03 4c 24 50          	add    0x50(%rsp),%ecx
    41a1:	03 8c 24 f0 00 00 00 	add    0xf0(%rsp),%ecx
    41a8:	44 8b 84 24 f8 00 00 	mov    0xf8(%rsp),%r8d
    41af:	00 
    41b0:	2b 84 24 e0 00 00 00 	sub    0xe0(%rsp),%eax
    41b7:	01 f9                	add    %edi,%ecx
    41b9:	29 f0                	sub    %esi,%eax
    41bb:	44 01 c9             	add    %r9d,%ecx
    41be:	45 01 c0             	add    %r8d,%r8d
    41c1:	8b b4 24 04 01 00 00 	mov    0x104(%rsp),%esi
    41c8:	6b 94 24 08 01 00 00 	imul   $0x3,0x108(%rsp),%edx
    41cf:	03 
    41d0:	2b 44 24 40          	sub    0x40(%rsp),%eax
    41d4:	44 29 c1             	sub    %r8d,%ecx
    41d7:	2b 84 24 80 00 00 00 	sub    0x80(%rsp),%eax
    41de:	2b 44 24 48          	sub    0x48(%rsp),%eax
    41e2:	2b 84 24 ec 00 00 00 	sub    0xec(%rsp),%eax
    41e9:	2b 44 24 50          	sub    0x50(%rsp),%eax
    41ed:	2b 84 24 8c 00 00 00 	sub    0x8c(%rsp),%eax
    41f4:	2b 44 24 58          	sub    0x58(%rsp),%eax
    41f8:	2b 8c 24 fc 00 00 00 	sub    0xfc(%rsp),%ecx
    41ff:	03 8c 24 00 01 00 00 	add    0x100(%rsp),%ecx
    4206:	8d 0c 71             	lea    (%rcx,%rsi,2),%ecx
    4209:	03 84 24 90 00 00 00 	add    0x90(%rsp),%eax
    4210:	01 ca                	add    %ecx,%edx
    4212:	03 94 24 0c 01 00 00 	add    0x10c(%rsp),%edx
    4219:	03 84 24 94 00 00 00 	add    0x94(%rsp),%eax
    4220:	03 44 24 60          	add    0x60(%rsp),%eax
    4224:	44 8b 84 24 14 01 00 	mov    0x114(%rsp),%r8d
    422b:	00 
    422c:	2b 94 24 10 01 00 00 	sub    0x110(%rsp),%edx
    4233:	42 8d 3c 00          	lea    (%rax,%r8,1),%edi
    4237:	03 7c 24 68          	add    0x68(%rsp),%edi
    423b:	43 8d 04 12          	lea    (%r10,%r10,1),%eax
    423f:	03 bc 24 98 00 00 00 	add    0x98(%rsp),%edi
    4246:	2b 54 24 60          	sub    0x60(%rsp),%edx
    424a:	44 89 94 24 5c 01 00 	mov    %r10d,0x15c(%rsp)
    4251:	00 
    4252:	03 bc 24 a0 00 00 00 	add    0xa0(%rsp),%edi
    4259:	44 8b 94 24 28 01 00 	mov    0x128(%rsp),%r10d
    4260:	00 
    4261:	01 c7                	add    %eax,%edi
    4263:	03 bc 24 20 01 00 00 	add    0x120(%rsp),%edi
    426a:	03 54 24 68          	add    0x68(%rsp),%edx
    426e:	46 8d 0c 5f          	lea    (%rdi,%r11,2),%r9d
    4272:	03 94 24 18 01 00 00 	add    0x118(%rsp),%edx
    4279:	03 94 24 1c 01 00 00 	add    0x11c(%rsp),%edx
    4280:	44 03 8c 24 24 01 00 	add    0x124(%rsp),%r9d
    4287:	00 
    4288:	45 01 d2             	add    %r10d,%r10d
    428b:	29 c2                	sub    %eax,%edx
    428d:	2b 94 24 a8 00 00 00 	sub    0xa8(%rsp),%edx
    4294:	6b 8c 24 2c 01 00 00 	imul   $0x3,0x12c(%rsp),%ecx
    429b:	03 
    429c:	03 94 24 ac 00 00 00 	add    0xac(%rsp),%edx
    42a3:	45 01 d1             	add    %r10d,%r9d
    42a6:	44 89 9c 24 58 01 00 	mov    %r11d,0x158(%rsp)
    42ad:	00 
    42ae:	47 8d 1c 76          	lea    (%r14,%r14,2),%r11d
    42b2:	41 01 d2             	add    %edx,%r10d
    42b5:	45 01 d9             	add    %r11d,%r9d
    42b8:	45 29 f2             	sub    %r14d,%r10d
    42bb:	44 01 c9             	add    %r9d,%ecx
    42be:	44 03 94 24 b0 00 00 	add    0xb0(%rsp),%r10d
    42c5:	00 
    42c6:	03 8c 24 30 01 00 00 	add    0x130(%rsp),%ecx
    42cd:	44 89 d2             	mov    %r10d,%edx
    42d0:	89 ce                	mov    %ecx,%esi
    42d2:	41 0f af d2          	imul   %r10d,%edx
    42d6:	0f af f1             	imul   %ecx,%esi
    42d9:	89 8c 24 50 01 00 00 	mov    %ecx,0x150(%rsp)
    42e0:	44 89 94 24 54 01 00 	mov    %r10d,0x154(%rsp)
    42e7:	00 
    42e8:	01 f2                	add    %esi,%edx
    42ea:	f3 0f 2a c2          	cvtsi2ss %edx,%xmm0
    42ee:	f3 0f 11 84 24 68 01 	movss  %xmm0,0x168(%rsp)
    42f5:	00 00 
    42f7:	f3 0f 10 84 24 68 01 	movss  0x168(%rsp),%xmm0
    42fe:	00 00 
    4300:	e8 cb cf ff ff       	call   12d0 <sqrtf@plt>
    4305:	f3 0f 10 1d d7 32 00 	movss  0x32d7(%rip),%xmm3        # 75e4 <_IO_stdin_used+0x5e4>
    430c:	00 
    430d:	44 8b 9c 24 58 01 00 	mov    0x158(%rsp),%r11d
    4314:	00 
    4315:	f3 0f 2a 8c 24 d0 00 	cvtsi2ssl 0xd0(%rsp),%xmm1
    431c:	00 00 
    431e:	f3 0f 11 84 24 88 01 	movss  %xmm0,0x188(%rsp)
    4325:	00 00 
    4327:	f3 0f 10 94 24 88 01 	movss  0x188(%rsp),%xmm2
    432e:	00 00 
    4330:	44 8b 94 24 5c 01 00 	mov    0x15c(%rsp),%r10d
    4337:	00 
    4338:	f3 0f 11 8c 24 6c 01 	movss  %xmm1,0x16c(%rsp)
    433f:	00 00 
    4341:	f3 0f 59 9c 24 6c 01 	mulss  0x16c(%rsp),%xmm3
    4348:	00 00 
    434a:	f3 0f 11 9c 24 70 01 	movss  %xmm3,0x170(%rsp)
    4351:	00 00 
    4353:	0f 2f 94 24 70 01 00 	comiss 0x170(%rsp),%xmm2
    435a:	00 
    435b:	0f 86 76 01 00 00    	jbe    44d7 <susan_edges+0xe2d>
    4361:	44 8b 9c 24 54 01 00 	mov    0x154(%rsp),%r11d
    4368:	00 
    4369:	41 be 01 00 00 00    	mov    $0x1,%r14d
    436f:	45 85 db             	test   %r11d,%r11d
    4372:	0f 84 c1 00 00 00    	je     4439 <susan_edges+0xd8f>
    4378:	44 8b 94 24 50 01 00 	mov    0x150(%rsp),%r10d
    437f:	00 
    4380:	f3 45 0f 2a db       	cvtsi2ss %r11d,%xmm11
    4385:	45 0f 57 d2          	xorps  %xmm10,%xmm10
    4389:	f3 45 0f 2a ca       	cvtsi2ss %r10d,%xmm9
    438e:	f3 44 0f 11 9c 24 78 	movss  %xmm11,0x178(%rsp)
    4395:	01 00 00 
    4398:	f3 44 0f 11 8c 24 74 	movss  %xmm9,0x174(%rsp)
    439f:	01 00 00 
    43a2:	f3 44 0f 10 a4 24 74 	movss  0x174(%rsp),%xmm12
    43a9:	01 00 00 
    43ac:	f3 44 0f 5e a4 24 78 	divss  0x178(%rsp),%xmm12
    43b3:	01 00 00 
    43b6:	f3 44 0f 11 a4 24 84 	movss  %xmm12,0x184(%rsp)
    43bd:	01 00 00 
    43c0:	44 0f 2f 94 24 84 01 	comiss 0x184(%rsp),%xmm10
    43c7:	00 00 
    43c9:	76 20                	jbe    43eb <susan_edges+0xd41>
    43cb:	f3 44 0f 10 ac 24 84 	movss  0x184(%rsp),%xmm13
    43d2:	01 00 00 
    43d5:	41 83 ce ff          	or     $0xffffffff,%r14d
    43d9:	44 0f 57 2d df 31 00 	xorps  0x31df(%rip),%xmm13        # 75c0 <_IO_stdin_used+0x5c0>
    43e0:	00 
    43e1:	f3 44 0f 11 ac 24 84 	movss  %xmm13,0x184(%rsp)
    43e8:	01 00 00 
    43eb:	f3 44 0f 10 35 f4 31 	movss  0x31f4(%rip),%xmm14        # 75e8 <_IO_stdin_used+0x5e8>
    43f2:	00 00 
    43f4:	44 0f 2f b4 24 84 01 	comiss 0x184(%rsp),%xmm14
    43fb:	00 00 
    43fd:	77 26                	ja     4425 <susan_edges+0xd7b>
    43ff:	f3 44 0f 10 bc 24 84 	movss  0x184(%rsp),%xmm15
    4406:	01 00 00 
    4409:	44 0f 2f 3d db 31 00 	comiss 0x31db(%rip),%xmm15        # 75ec <_IO_stdin_used+0x5ec>
    4410:	00 
    4411:	77 1d                	ja     4430 <susan_edges+0xd86>
    4413:	41 83 fe 01          	cmp    $0x1,%r14d
    4417:	41 bb 01 00 00 00    	mov    $0x1,%r11d
    441d:	74 1a                	je     4439 <susan_edges+0xd8f>
    441f:	41 83 ce ff          	or     $0xffffffff,%r14d
    4423:	eb 14                	jmp    4439 <susan_edges+0xd8f>
    4425:	41 bb 01 00 00 00    	mov    $0x1,%r11d
    442b:	45 31 f6             	xor    %r14d,%r14d
    442e:	eb 09                	jmp    4439 <susan_edges+0xd8f>
    4430:	41 be 01 00 00 00    	mov    $0x1,%r14d
    4436:	45 31 db             	xor    %r11d,%r11d
    4439:	8b 54 24 14          	mov    0x14(%rsp),%edx
    443d:	48 8b 74 24 08       	mov    0x8(%rsp),%rsi
    4442:	42 8d 0c 32          	lea    (%rdx,%r14,1),%ecx
    4446:	41 0f af cf          	imul   %r15d,%ecx
    444a:	44 01 e1             	add    %r12d,%ecx
    444d:	44 01 d9             	add    %r11d,%ecx
    4450:	4c 63 c9             	movslq %ecx,%r9
    4453:	46 3b 2c 8e          	cmp    (%rsi,%r9,4),%r13d
    4457:	0f 8e 20 f7 ff ff    	jle    3b7d <susan_edges+0x4d3>
    445d:	89 d7                	mov    %edx,%edi
    445f:	49 89 f0             	mov    %rsi,%r8
    4462:	44 29 f7             	sub    %r14d,%edi
    4465:	41 0f af ff          	imul   %r15d,%edi
    4469:	44 01 e7             	add    %r12d,%edi
    446c:	44 29 df             	sub    %r11d,%edi
    446f:	48 63 c7             	movslq %edi,%rax
    4472:	44 3b 2c 86          	cmp    (%rsi,%rax,4),%r13d
    4476:	0f 8c 01 f7 ff ff    	jl     3b7d <susan_edges+0x4d3>
    447c:	44 8b 54 24 14       	mov    0x14(%rsp),%r10d
    4481:	45 01 f6             	add    %r14d,%r14d
    4484:	45 01 db             	add    %r11d,%r11d
    4487:	43 8d 14 16          	lea    (%r14,%r10,1),%edx
    448b:	41 0f af d7          	imul   %r15d,%edx
    448f:	44 01 e2             	add    %r12d,%edx
    4492:	44 01 da             	add    %r11d,%edx
    4495:	48 63 ca             	movslq %edx,%rcx
    4498:	44 3b 2c 8e          	cmp    (%rsi,%rcx,4),%r13d
    449c:	0f 8e db f6 ff ff    	jle    3b7d <susan_edges+0x4d3>
    44a2:	44 89 d6             	mov    %r10d,%esi
    44a5:	44 29 f6             	sub    %r14d,%esi
    44a8:	41 0f af f7          	imul   %r15d,%esi
    44ac:	44 01 e6             	add    %r12d,%esi
    44af:	44 29 de             	sub    %r11d,%esi
    44b2:	4c 63 de             	movslq %esi,%r11
    44b5:	47 3b 2c 98          	cmp    (%r8,%r11,4),%r13d
    44b9:	0f 8c be f6 ff ff    	jl     3b7d <susan_edges+0x4d3>
    44bf:	4c 8b ac 24 38 01 00 	mov    0x138(%rsp),%r13
    44c6:	00 
    44c7:	4c 8b 74 24 38       	mov    0x38(%rsp),%r14
    44cc:	43 c6 44 35 04 01    	movb   $0x1,0x4(%r13,%r14,1)
    44d2:	e9 a6 f6 ff ff       	jmp    3b7d <susan_edges+0x4d3>
    44d7:	8b 8c 24 d4 00 00 00 	mov    0xd4(%rsp),%ecx
    44de:	6b 84 24 34 01 00 00 	imul   $0x9,0x134(%rsp),%eax
    44e5:	09 
    44e6:	8b 54 24 7c          	mov    0x7c(%rsp),%edx
    44ea:	44 8b 8c 24 e4 00 00 	mov    0xe4(%rsp),%r9d
    44f1:	00 
    44f2:	c1 e1 02             	shl    $0x2,%ecx
    44f5:	46 8d 04 95 00 00 00 	lea    0x0(,%r10,4),%r8d
    44fc:	00 
    44fd:	01 c8                	add    %ecx,%eax
    44ff:	41 c1 e1 02          	shl    $0x2,%r9d
    4503:	47 8d 14 f6          	lea    (%r14,%r14,8),%r10d
    4507:	be 01 00 00 00       	mov    $0x1,%esi
    450c:	8d 04 90             	lea    (%rax,%rdx,4),%eax
    450f:	8b 94 24 dc 00 00 00 	mov    0xdc(%rsp),%edx
    4516:	8b bc 24 28 01 00 00 	mov    0x128(%rsp),%edi
    451d:	8d 04 90             	lea    (%rax,%rdx,4),%eax
    4520:	8b 94 24 88 00 00 00 	mov    0x88(%rsp),%edx
    4527:	c1 e7 02             	shl    $0x2,%edi
    452a:	8d 04 90             	lea    (%rax,%rdx,4),%eax
    452d:	44 01 c8             	add    %r9d,%eax
    4530:	03 44 24 40          	add    0x40(%rsp),%eax
    4534:	03 84 24 80 00 00 00 	add    0x80(%rsp),%eax
    453b:	03 44 24 48          	add    0x48(%rsp),%eax
    453f:	03 84 24 ec 00 00 00 	add    0xec(%rsp),%eax
    4546:	03 44 24 50          	add    0x50(%rsp),%eax
    454a:	03 84 24 8c 00 00 00 	add    0x8c(%rsp),%eax
    4551:	03 44 24 58          	add    0x58(%rsp),%eax
    4555:	03 84 24 90 00 00 00 	add    0x90(%rsp),%eax
    455c:	03 84 24 94 00 00 00 	add    0x94(%rsp),%eax
    4563:	03 44 24 60          	add    0x60(%rsp),%eax
    4567:	03 84 24 14 01 00 00 	add    0x114(%rsp),%eax
    456e:	03 44 24 68          	add    0x68(%rsp),%eax
    4572:	03 84 24 98 00 00 00 	add    0x98(%rsp),%eax
    4579:	03 84 24 a0 00 00 00 	add    0xa0(%rsp),%eax
    4580:	8b 94 24 a8 00 00 00 	mov    0xa8(%rsp),%edx
    4587:	44 01 c0             	add    %r8d,%eax
    458a:	8d 04 90             	lea    (%rax,%rdx,4),%eax
    458d:	8b 94 24 ac 00 00 00 	mov    0xac(%rsp),%edx
    4594:	46 8d 1c 98          	lea    (%rax,%r11,4),%r11d
    4598:	6b 84 24 2c 01 00 00 	imul   $0x9,0x12c(%rsp),%eax
    459f:	09 
    45a0:	45 8d 1c 93          	lea    (%r11,%rdx,4),%r11d
    45a4:	41 01 fb             	add    %edi,%r11d
    45a7:	6b 94 24 b0 00 00 00 	imul   $0x9,0xb0(%rsp),%edx
    45ae:	09 
    45af:	45 01 da             	add    %r11d,%r10d
    45b2:	44 01 d0             	add    %r10d,%eax
    45b5:	01 c2                	add    %eax,%edx
    45b7:	0f 84 06 02 00 00    	je     47c3 <susan_edges+0x1119>
    45bd:	8b 44 24 70          	mov    0x70(%rsp),%eax
    45c1:	03 44 24 78          	add    0x78(%rsp),%eax
    45c5:	f3 0f 2a f2          	cvtsi2ss %edx,%xmm6
    45c9:	44 6b 5c 24 40 09    	imul   $0x9,0x40(%rsp),%r11d
    45cf:	01 c8                	add    %ecx,%eax
    45d1:	03 44 24 7c          	add    0x7c(%rsp),%eax
    45d5:	03 84 24 88 00 00 00 	add    0x88(%rsp),%eax
    45dc:	44 01 c8             	add    %r9d,%eax
    45df:	8b 94 24 80 00 00 00 	mov    0x80(%rsp),%edx
    45e6:	41 01 c3             	add    %eax,%r11d
    45e9:	44 6b 54 24 58 09    	imul   $0x9,0x58(%rsp),%r10d
    45ef:	89 d0                	mov    %edx,%eax
    45f1:	8b 94 24 8c 00 00 00 	mov    0x8c(%rsp),%edx
    45f8:	45 8d 1c 83          	lea    (%r11,%rax,4),%r11d
    45fc:	44 03 5c 24 48       	add    0x48(%rsp),%r11d
    4601:	6b 84 24 f4 00 00 00 	imul   $0x9,0xf4(%rsp),%eax
    4608:	09 
    4609:	44 03 5c 24 50       	add    0x50(%rsp),%r11d
    460e:	45 8d 1c 93          	lea    (%r11,%rdx,4),%r11d
    4612:	f3 0f 10 25 ce 2f 00 	movss  0x2fce(%rip),%xmm4        # 75e8 <_IO_stdin_used+0x5e8>
    4619:	00 
    461a:	45 01 da             	add    %r11d,%r10d
    461d:	44 6b 9c 24 08 01 00 	imul   $0x9,0x108(%rsp),%r11d
    4624:	00 09 
    4626:	89 44 24 7c          	mov    %eax,0x7c(%rsp)
    462a:	89 d0                	mov    %edx,%eax
    462c:	8b 44 24 7c          	mov    0x7c(%rsp),%eax
    4630:	8b 94 24 f8 00 00 00 	mov    0xf8(%rsp),%edx
    4637:	44 01 d0             	add    %r10d,%eax
    463a:	41 89 d2             	mov    %edx,%r10d
    463d:	8b 94 24 04 01 00 00 	mov    0x104(%rsp),%edx
    4644:	42 8d 04 90          	lea    (%rax,%r10,4),%eax
    4648:	44 6b 94 24 90 00 00 	imul   $0x9,0x90(%rsp),%r10d
    464f:	00 09 
    4651:	03 84 24 fc 00 00 00 	add    0xfc(%rsp),%eax
    4658:	03 84 24 00 01 00 00 	add    0x100(%rsp),%eax
    465f:	8d 04 90             	lea    (%rax,%rdx,4),%eax
    4662:	44 89 54 24 7c       	mov    %r10d,0x7c(%rsp)
    4667:	41 89 d2             	mov    %edx,%r10d
    466a:	44 8b 54 24 7c       	mov    0x7c(%rsp),%r10d
    466f:	41 01 c3             	add    %eax,%r11d
    4672:	8b 94 24 94 00 00 00 	mov    0x94(%rsp),%edx
    4679:	6b 84 24 a0 00 00 00 	imul   $0x9,0xa0(%rsp),%eax
    4680:	09 
    4681:	45 01 da             	add    %r11d,%r10d
    4684:	41 89 d3             	mov    %edx,%r11d
    4687:	8b 94 24 98 00 00 00 	mov    0x98(%rsp),%edx
    468e:	47 8d 14 9a          	lea    (%r10,%r11,4),%r10d
    4692:	41 89 d3             	mov    %edx,%r11d
    4695:	44 03 54 24 60       	add    0x60(%rsp),%r10d
    469a:	44 03 54 24 68       	add    0x68(%rsp),%r10d
    469f:	47 8d 14 9a          	lea    (%r10,%r11,4),%r10d
    46a3:	44 01 d0             	add    %r10d,%eax
    46a6:	44 01 c0             	add    %r8d,%eax
    46a9:	03 84 24 a8 00 00 00 	add    0xa8(%rsp),%eax
    46b0:	03 84 24 ac 00 00 00 	add    0xac(%rsp),%eax
    46b7:	01 f8                	add    %edi,%eax
    46b9:	44 01 f0             	add    %r14d,%eax
    46bc:	03 84 24 b0 00 00 00 	add    0xb0(%rsp),%eax
    46c3:	f3 0f 2a e8          	cvtsi2ss %eax,%xmm5
    46c7:	f3 0f 11 b4 24 80 01 	movss  %xmm6,0x180(%rsp)
    46ce:	00 00 
    46d0:	f3 0f 11 ac 24 7c 01 	movss  %xmm5,0x17c(%rsp)
    46d7:	00 00 
    46d9:	f3 0f 10 bc 24 7c 01 	movss  0x17c(%rsp),%xmm7
    46e0:	00 00 
    46e2:	f3 0f 5e bc 24 80 01 	divss  0x180(%rsp),%xmm7
    46e9:	00 00 
    46eb:	f3 0f 11 bc 24 8c 01 	movss  %xmm7,0x18c(%rsp)
    46f2:	00 00 
    46f4:	0f 2f a4 24 8c 01 00 	comiss 0x18c(%rsp),%xmm4
    46fb:	00 
    46fc:	0f 87 ba 00 00 00    	ja     47bc <susan_edges+0x1112>
    4702:	f3 44 0f 10 84 24 8c 	movss  0x18c(%rsp),%xmm8
    4709:	01 00 00 
    470c:	31 d2                	xor    %edx,%edx
    470e:	44 0f 2f 05 d6 2e 00 	comiss 0x2ed6(%rip),%xmm8        # 75ec <_IO_stdin_used+0x5ec>
    4715:	00 
    4716:	0f 87 a7 00 00 00    	ja     47c3 <susan_edges+0x1119>
    471c:	44 6b 54 24 70 03    	imul   $0x3,0x70(%rsp),%r10d
    4722:	ba 01 00 00 00       	mov    $0x1,%edx
    4727:	44 6b 5c 24 78 fd    	imul   $0xfffffffd,0x78(%rsp),%r11d
    472d:	6b 74 24 40 03       	imul   $0x3,0x40(%rsp),%esi
    4732:	6b 44 24 58 fd       	imul   $0xfffffffd,0x58(%rsp),%eax
    4737:	45 01 da             	add    %r11d,%r10d
    473a:	45 6b f6 fd          	imul   $0xfffffffd,%r14d,%r14d
    473e:	44 01 d1             	add    %r10d,%ecx
    4741:	03 8c 24 d8 00 00 00 	add    0xd8(%rsp),%ecx
    4748:	2b 8c 24 e0 00 00 00 	sub    0xe0(%rsp),%ecx
    474f:	44 29 c9             	sub    %r9d,%ecx
    4752:	01 ce                	add    %ecx,%esi
    4754:	03 b4 24 e8 00 00 00 	add    0xe8(%rsp),%esi
    475b:	03 74 24 48          	add    0x48(%rsp),%esi
    475f:	31 c9                	xor    %ecx,%ecx
    4761:	2b 74 24 50          	sub    0x50(%rsp),%esi
    4765:	2b b4 24 f0 00 00 00 	sub    0xf0(%rsp),%esi
    476c:	01 f0                	add    %esi,%eax
    476e:	03 84 24 0c 01 00 00 	add    0x10c(%rsp),%eax
    4775:	2b 84 24 10 01 00 00 	sub    0x110(%rsp),%eax
    477c:	2b 44 24 60          	sub    0x60(%rsp),%eax
    4780:	03 44 24 68          	add    0x68(%rsp),%eax
    4784:	03 84 24 18 01 00 00 	add    0x118(%rsp),%eax
    478b:	03 84 24 1c 01 00 00 	add    0x11c(%rsp),%eax
    4792:	44 29 c0             	sub    %r8d,%eax
    4795:	2b 84 24 20 01 00 00 	sub    0x120(%rsp),%eax
    479c:	03 84 24 24 01 00 00 	add    0x124(%rsp),%eax
    47a3:	01 c7                	add    %eax,%edi
    47a5:	41 01 fe             	add    %edi,%r14d
    47a8:	44 03 b4 24 30 01 00 	add    0x130(%rsp),%r14d
    47af:	00 
    47b0:	45 85 f6             	test   %r14d,%r14d
    47b3:	0f 9e c1             	setle  %cl
    47b6:	8d 74 09 ff          	lea    -0x1(%rcx,%rcx,1),%esi
    47ba:	eb 07                	jmp    47c3 <susan_edges+0x1119>
    47bc:	ba 01 00 00 00       	mov    $0x1,%edx
    47c1:	31 f6                	xor    %esi,%esi
    47c3:	8b 44 24 14          	mov    0x14(%rsp),%eax
    47c7:	4c 8b 4c 24 08       	mov    0x8(%rsp),%r9
    47cc:	01 f0                	add    %esi,%eax
    47ce:	41 0f af c7          	imul   %r15d,%eax
    47d2:	44 01 e0             	add    %r12d,%eax
    47d5:	01 d0                	add    %edx,%eax
    47d7:	48 98                	cltq   
    47d9:	45 3b 2c 81          	cmp    (%r9,%rax,4),%r13d
    47dd:	0f 8e 9a f3 ff ff    	jle    3b7d <susan_edges+0x4d3>
    47e3:	8b 44 24 14          	mov    0x14(%rsp),%eax
    47e7:	29 f0                	sub    %esi,%eax
    47e9:	41 0f af c7          	imul   %r15d,%eax
    47ed:	44 01 e0             	add    %r12d,%eax
    47f0:	29 d0                	sub    %edx,%eax
    47f2:	48 98                	cltq   
    47f4:	45 3b 2c 81          	cmp    (%r9,%rax,4),%r13d
    47f8:	0f 8c 7f f3 ff ff    	jl     3b7d <susan_edges+0x4d3>
    47fe:	8b 44 24 14          	mov    0x14(%rsp),%eax
    4802:	01 f6                	add    %esi,%esi
    4804:	01 d2                	add    %edx,%edx
    4806:	01 f0                	add    %esi,%eax
    4808:	41 0f af c7          	imul   %r15d,%eax
    480c:	44 01 e0             	add    %r12d,%eax
    480f:	01 d0                	add    %edx,%eax
    4811:	48 98                	cltq   
    4813:	45 3b 2c 81          	cmp    (%r9,%rax,4),%r13d
    4817:	0f 8e 60 f3 ff ff    	jle    3b7d <susan_edges+0x4d3>
    481d:	8b 44 24 14          	mov    0x14(%rsp),%eax
    4821:	29 f0                	sub    %esi,%eax
    4823:	41 0f af c7          	imul   %r15d,%eax
    4827:	44 01 e0             	add    %r12d,%eax
    482a:	29 d0                	sub    %edx,%eax
    482c:	48 98                	cltq   
    482e:	45 3b 2c 81          	cmp    (%r9,%rax,4),%r13d
    4832:	0f 8c 45 f3 ff ff    	jl     3b7d <susan_edges+0x4d3>
    4838:	4c 8b ac 24 38 01 00 	mov    0x138(%rsp),%r13
    483f:	00 
    4840:	4c 8b 44 24 38       	mov    0x38(%rsp),%r8
    4845:	43 c6 44 05 04 02    	movb   $0x2,0x4(%r13,%r8,1)
    484b:	e9 2d f3 ff ff       	jmp    3b7d <susan_edges+0x4d3>
    4850:	48 81 c4 98 01 00 00 	add    $0x198,%rsp
    4857:	5b                   	pop    %rbx
    4858:	5d                   	pop    %rbp
    4859:	41 5c                	pop    %r12
    485b:	41 5d                	pop    %r13
    485d:	41 5e                	pop    %r14
    485f:	41 5f                	pop    %r15
    4861:	c3                   	ret    

0000000000004862 <susan_edges_small>:
    4862:	f3 0f 1e fa          	endbr64 
    4866:	41 57                	push   %r15
    4868:	31 c0                	xor    %eax,%eax
    486a:	41 bf 01 00 00 00    	mov    $0x1,%r15d
    4870:	41 56                	push   %r14
    4872:	41 55                	push   %r13
    4874:	41 54                	push   %r12
    4876:	55                   	push   %rbp
    4877:	53                   	push   %rbx
    4878:	49 63 e9             	movslq %r9d,%rbp
    487b:	48 89 eb             	mov    %rbp,%rbx
    487e:	44 8d 63 ff          	lea    -0x1(%rbx),%r12d
    4882:	48 81 ec a8 00 00 00 	sub    $0xa8,%rsp
    4889:	48 89 4c 24 48       	mov    %rcx,0x48(%rsp)
    488e:	8b 8c 24 e0 00 00 00 	mov    0xe0(%rsp),%ecx
    4895:	48 89 7c 24 20       	mov    %rdi,0x20(%rsp)
    489a:	0f af cd             	imul   %ebp,%ecx
    489d:	48 8d 7c 2d 00       	lea    0x0(%rbp,%rbp,1),%rdi
    48a2:	48 89 74 24 08       	mov    %rsi,0x8(%rsp)
    48a7:	48 89 7c 24 30       	mov    %rdi,0x30(%rsp)
    48ac:	48 89 f7             	mov    %rsi,%rdi
    48af:	48 89 54 24 40       	mov    %rdx,0x40(%rsp)
    48b4:	4c 8b 4c 24 08       	mov    0x8(%rsp),%r9
    48b9:	48 63 c9             	movslq %ecx,%rcx
    48bc:	89 6c 24 14          	mov    %ebp,0x14(%rsp)
    48c0:	48 c1 e1 02          	shl    $0x2,%rcx
    48c4:	c7 44 24 18 00 00 00 	movl   $0x0,0x18(%rsp)
    48cb:	00 
    48cc:	f3 aa                	rep stos %al,%es:(%rdi)
    48ce:	48 63 7c 24 14       	movslq 0x14(%rsp),%rdi
    48d3:	48 63 54 24 18       	movslq 0x18(%rsp),%rdx
    48d8:	be 01 00 00 00       	mov    $0x1,%esi
    48dd:	44 8b 84 24 e0 00 00 	mov    0xe0(%rsp),%r8d
    48e4:	00 
    48e5:	4d 8d 14 b9          	lea    (%r9,%rdi,4),%r10
    48e9:	41 ff c8             	dec    %r8d
    48ec:	4c 89 54 24 28       	mov    %r10,0x28(%rsp)
    48f1:	45 39 f8             	cmp    %r15d,%r8d
    48f4:	0f 8e 1a 01 00 00    	jle    4a14 <susan_edges_small+0x1b2>
    48fa:	4c 8b 5c 24 30       	mov    0x30(%rsp),%r11
    48ff:	4a 8d 0c 1a          	lea    (%rdx,%r11,1),%rcx
    4903:	48 03 54 24 20       	add    0x20(%rsp),%rdx
    4908:	48 03 4c 24 20       	add    0x20(%rsp),%rcx
    490d:	41 39 f4             	cmp    %esi,%r12d
    4910:	0f 8e e5 00 00 00    	jle    49fb <susan_edges_small+0x199>
    4916:	4c 8b 6c 24 20       	mov    0x20(%rsp),%r13
    491b:	44 0f b6 22          	movzbl (%rdx),%r12d
    491f:	44 0f b6 4a 01       	movzbl 0x1(%rdx),%r9d
    4924:	44 0f b6 42 02       	movzbl 0x2(%rdx),%r8d
    4929:	49 01 fd             	add    %rdi,%r13
    492c:	44 0f b6 34 2a       	movzbl (%rdx,%rbp,1),%r14d
    4931:	44 0f b6 54 2a 02    	movzbl 0x2(%rdx,%rbp,1),%r10d
    4937:	41 0f b6 44 35 00    	movzbl 0x0(%r13,%rsi,1),%eax
    493d:	44 0f b6 69 01       	movzbl 0x1(%rcx),%r13d
    4942:	48 03 44 24 48       	add    0x48(%rsp),%rax
    4947:	44 0f b6 19          	movzbl (%rcx),%r11d
    494b:	4c 89 6c 24 38       	mov    %r13,0x38(%rsp)
    4950:	49 89 c5             	mov    %rax,%r13
    4953:	4d 29 e5             	sub    %r12,%r13
    4956:	49 89 c4             	mov    %rax,%r12
    4959:	45 0f b6 6d 00       	movzbl 0x0(%r13),%r13d
    495e:	4d 29 cc             	sub    %r9,%r12
    4961:	49 89 c1             	mov    %rax,%r9
    4964:	45 0f b6 24 24       	movzbl (%r12),%r12d
    4969:	4d 29 c1             	sub    %r8,%r9
    496c:	49 89 c0             	mov    %rax,%r8
    496f:	4d 29 f0             	sub    %r14,%r8
    4972:	45 89 ee             	mov    %r13d,%r14d
    4975:	45 89 e5             	mov    %r12d,%r13d
    4978:	49 89 c4             	mov    %rax,%r12
    497b:	4d 29 d4             	sub    %r10,%r12
    497e:	45 0f b6 09          	movzbl (%r9),%r9d
    4982:	45 0f b6 00          	movzbl (%r8),%r8d
    4986:	49 89 c2             	mov    %rax,%r10
    4989:	47 8d 6c 2e 64       	lea    0x64(%r14,%r13,1),%r13d
    498e:	45 0f b6 24 24       	movzbl (%r12),%r12d
    4993:	4d 29 da             	sub    %r11,%r10
    4996:	45 89 cb             	mov    %r9d,%r11d
    4999:	44 0f b6 71 02       	movzbl 0x2(%rcx),%r14d
    499e:	45 01 dd             	add    %r11d,%r13d
    49a1:	45 01 c5             	add    %r8d,%r13d
    49a4:	45 0f b6 12          	movzbl (%r10),%r10d
    49a8:	49 89 c1             	mov    %rax,%r9
    49ab:	4c 2b 4c 24 38       	sub    0x38(%rsp),%r9
    49b0:	45 01 e5             	add    %r12d,%r13d
    49b3:	4c 29 f0             	sub    %r14,%rax
    49b6:	45 0f b6 19          	movzbl (%r9),%r11d
    49ba:	45 01 ea             	add    %r13d,%r10d
    49bd:	0f b6 00             	movzbl (%rax),%eax
    49c0:	41 b8 da 02 00 00    	mov    $0x2da,%r8d
    49c6:	44 8d 63 ff          	lea    -0x1(%rbx),%r12d
    49ca:	45 01 d3             	add    %r10d,%r11d
    49cd:	41 01 c3             	add    %eax,%r11d
    49d0:	41 81 fb da 02 00 00 	cmp    $0x2da,%r11d
    49d7:	7f 14                	jg     49ed <susan_edges_small+0x18b>
    49d9:	4c 8b 4c 24 28       	mov    0x28(%rsp),%r9
    49de:	45 29 d8             	sub    %r11d,%r8d
    49e1:	48 ff c2             	inc    %rdx
    49e4:	48 ff c1             	inc    %rcx
    49e7:	45 89 04 b1          	mov    %r8d,(%r9,%rsi,4)
    49eb:	eb 06                	jmp    49f3 <susan_edges_small+0x191>
    49ed:	48 ff c2             	inc    %rdx
    49f0:	48 ff c1             	inc    %rcx
    49f3:	48 ff c6             	inc    %rsi
    49f6:	e9 12 ff ff ff       	jmp    490d <susan_edges_small+0xab>
    49fb:	41 ff c7             	inc    %r15d
    49fe:	01 5c 24 18          	add    %ebx,0x18(%rsp)
    4a02:	4c 8b 4c 24 08       	mov    0x8(%rsp),%r9
    4a07:	44 8d 63 ff          	lea    -0x1(%rbx),%r12d
    4a0b:	01 5c 24 14          	add    %ebx,0x14(%rsp)
    4a0f:	e9 ba fe ff ff       	jmp    48ce <susan_edges_small+0x6c>
    4a14:	c7 44 24 14 02 00 00 	movl   $0x2,0x14(%rsp)
    4a1b:	00 
    4a1c:	89 d8                	mov    %ebx,%eax
    4a1e:	8b 94 24 e0 00 00 00 	mov    0xe0(%rsp),%edx
    4a25:	83 ea 02             	sub    $0x2,%edx
    4a28:	3b 54 24 14          	cmp    0x14(%rsp),%edx
    4a2c:	0f 8e 04 04 00 00    	jle    4e36 <susan_edges_small+0x5d4>
    4a32:	4c 63 e8             	movslq %eax,%r13
    4a35:	01 d8                	add    %ebx,%eax
    4a37:	ba 02 00 00 00       	mov    $0x2,%edx
    4a3c:	89 44 24 30          	mov    %eax,0x30(%rsp)
    4a40:	48 98                	cltq   
    4a42:	49 01 ed             	add    %rbp,%r13
    4a45:	48 89 44 24 18       	mov    %rax,0x18(%rsp)
    4a4a:	4c 03 6c 24 20       	add    0x20(%rsp),%r13
    4a4f:	8d 7b fe             	lea    -0x2(%rbx),%edi
    4a52:	39 d7                	cmp    %edx,%edi
    4a54:	0f 8e cf 03 00 00    	jle    4e29 <susan_edges_small+0x5c7>
    4a5a:	48 8b 74 24 08       	mov    0x8(%rsp),%rsi
    4a5f:	48 8b 4c 24 18       	mov    0x18(%rsp),%rcx
    4a64:	8b 4c 8e 08          	mov    0x8(%rsi,%rcx,4),%ecx
    4a68:	85 c9                	test   %ecx,%ecx
    4a6a:	0f 8e aa 03 00 00    	jle    4e1a <susan_edges_small+0x5b8>
    4a70:	4c 8b 7c 24 20       	mov    0x20(%rsp),%r15
    4a75:	4c 8b 64 24 18       	mov    0x18(%rsp),%r12
    4a7a:	49 89 ee             	mov    %rbp,%r14
    4a7d:	49 f7 de             	neg    %r14
    4a80:	41 ba da 02 00 00    	mov    $0x2da,%r10d
    4a86:	45 0f b6 4d 01       	movzbl 0x1(%r13),%r9d
    4a8b:	41 29 ca             	sub    %ecx,%r10d
    4a8e:	43 0f b6 44 27 02    	movzbl 0x2(%r15,%r12,1),%eax
    4a94:	48 03 44 24 48       	add    0x48(%rsp),%rax
    4a99:	43 0f b6 7c 35 02    	movzbl 0x2(%r13,%r14,1),%edi
    4a9f:	44 89 54 24 28       	mov    %r10d,0x28(%rsp)
    4aa4:	47 0f b6 54 35 03    	movzbl 0x3(%r13,%r14,1),%r10d
    4aaa:	49 89 c4             	mov    %rax,%r12
    4aad:	49 29 fc             	sub    %rdi,%r12
    4ab0:	48 89 c7             	mov    %rax,%rdi
    4ab3:	47 0f b6 5c 35 01    	movzbl 0x1(%r13,%r14,1),%r11d
    4ab9:	4c 29 d7             	sub    %r10,%rdi
    4abc:	49 89 c2             	mov    %rax,%r10
    4abf:	49 89 c6             	mov    %rax,%r14
    4ac2:	41 0f b6 75 03       	movzbl 0x3(%r13),%esi
    4ac7:	4d 29 ca             	sub    %r9,%r10
    4aca:	49 89 c1             	mov    %rax,%r9
    4acd:	0f b6 3f             	movzbl (%rdi),%edi
    4ad0:	45 0f b6 44 2d 01    	movzbl 0x1(%r13,%rbp,1),%r8d
    4ad6:	4d 29 de             	sub    %r11,%r14
    4ad9:	45 0f b6 7c 2d 02    	movzbl 0x2(%r13,%rbp,1),%r15d
    4adf:	49 29 f1             	sub    %rsi,%r9
    4ae2:	45 0f b6 5c 2d 03    	movzbl 0x3(%r13,%rbp,1),%r11d
    4ae8:	48 89 c6             	mov    %rax,%rsi
    4aeb:	4c 29 c6             	sub    %r8,%rsi
    4aee:	49 89 c0             	mov    %rax,%r8
    4af1:	45 0f b6 36          	movzbl (%r14),%r14d
    4af5:	45 0f b6 24 24       	movzbl (%r12),%r12d
    4afa:	4d 29 f8             	sub    %r15,%r8
    4afd:	4c 29 d8             	sub    %r11,%rax
    4b00:	45 0f b6 1a          	movzbl (%r10),%r11d
    4b04:	45 0f b6 09          	movzbl (%r9),%r9d
    4b08:	45 89 f7             	mov    %r14d,%r15d
    4b0b:	45 89 e6             	mov    %r12d,%r14d
    4b0e:	0f b6 36             	movzbl (%rsi),%esi
    4b11:	45 0f b6 10          	movzbl (%r8),%r10d
    4b15:	0f b6 00             	movzbl (%rax),%eax
    4b18:	81 7c 24 28 fa 00 00 	cmpl   $0xfa,0x28(%rsp)
    4b1f:	00 
    4b20:	44 89 74 24 38       	mov    %r14d,0x38(%rsp)
    4b25:	44 89 5c 24 50       	mov    %r11d,0x50(%rsp)
    4b2a:	0f 8e ec 01 00 00    	jle    4d1c <susan_edges_small+0x4ba>
    4b30:	45 89 fe             	mov    %r15d,%r14d
    4b33:	41 89 fc             	mov    %edi,%r12d
    4b36:	89 4c 24 68          	mov    %ecx,0x68(%rsp)
    4b3a:	41 f7 de             	neg    %r14d
    4b3d:	44 2b 74 24 38       	sub    0x38(%rsp),%r14d
    4b42:	45 29 fc             	sub    %r15d,%r12d
    4b45:	89 54 24 6c          	mov    %edx,0x6c(%rsp)
    4b49:	41 29 fe             	sub    %edi,%r14d
    4b4c:	45 29 dc             	sub    %r11d,%r12d
    4b4f:	89 44 24 54          	mov    %eax,0x54(%rsp)
    4b53:	45 01 cc             	add    %r9d,%r12d
    4b56:	41 01 f6             	add    %esi,%r14d
    4b59:	44 89 54 24 58       	mov    %r10d,0x58(%rsp)
    4b5e:	41 29 f4             	sub    %esi,%r12d
    4b61:	45 01 d6             	add    %r10d,%r14d
    4b64:	89 74 24 5c          	mov    %esi,0x5c(%rsp)
    4b68:	41 01 c4             	add    %eax,%r12d
    4b6b:	41 01 c6             	add    %eax,%r14d
    4b6e:	44 89 4c 24 60       	mov    %r9d,0x60(%rsp)
    4b73:	44 89 e2             	mov    %r12d,%edx
    4b76:	44 89 f1             	mov    %r14d,%ecx
    4b79:	89 7c 24 64          	mov    %edi,0x64(%rsp)
    4b7d:	41 0f af d4          	imul   %r12d,%edx
    4b81:	41 0f af ce          	imul   %r14d,%ecx
    4b85:	01 ca                	add    %ecx,%edx
    4b87:	f3 0f 2a c2          	cvtsi2ss %edx,%xmm0
    4b8b:	f3 0f 11 44 24 78    	movss  %xmm0,0x78(%rsp)
    4b91:	f3 0f 10 44 24 78    	movss  0x78(%rsp),%xmm0
    4b97:	e8 34 c7 ff ff       	call   12d0 <sqrtf@plt>
    4b9c:	f3 0f 2a 4c 24 28    	cvtsi2ssl 0x28(%rsp),%xmm1
    4ba2:	f3 0f 10 1d 46 2a 00 	movss  0x2a46(%rip),%xmm3        # 75f0 <_IO_stdin_used+0x5f0>
    4ba9:	00 
    4baa:	f3 0f 11 84 24 98 00 	movss  %xmm0,0x98(%rsp)
    4bb1:	00 00 
    4bb3:	8b 44 24 54          	mov    0x54(%rsp),%eax
    4bb7:	44 8b 54 24 58       	mov    0x58(%rsp),%r10d
    4bbc:	f3 0f 10 94 24 98 00 	movss  0x98(%rsp),%xmm2
    4bc3:	00 00 
    4bc5:	8b 74 24 5c          	mov    0x5c(%rsp),%esi
    4bc9:	44 8b 4c 24 60       	mov    0x60(%rsp),%r9d
    4bce:	8b 7c 24 64          	mov    0x64(%rsp),%edi
    4bd2:	f3 0f 11 4c 24 7c    	movss  %xmm1,0x7c(%rsp)
    4bd8:	f3 0f 59 5c 24 7c    	mulss  0x7c(%rsp),%xmm3
    4bde:	8b 4c 24 68          	mov    0x68(%rsp),%ecx
    4be2:	8b 54 24 6c          	mov    0x6c(%rsp),%edx
    4be6:	f3 0f 11 9c 24 80 00 	movss  %xmm3,0x80(%rsp)
    4bed:	00 00 
    4bef:	0f 2f 94 24 80 00 00 	comiss 0x80(%rsp),%xmm2
    4bf6:	00 
    4bf7:	0f 86 1f 01 00 00    	jbe    4d1c <susan_edges_small+0x4ba>
    4bfd:	45 85 e4             	test   %r12d,%r12d
    4c00:	41 b9 01 00 00 00    	mov    $0x1,%r9d
    4c06:	0f 84 b9 00 00 00    	je     4cc5 <susan_edges_small+0x463>
    4c0c:	f3 45 0f 2a ce       	cvtsi2ss %r14d,%xmm9
    4c11:	45 0f 57 d2          	xorps  %xmm10,%xmm10
    4c15:	f3 45 0f 2a dc       	cvtsi2ss %r12d,%xmm11
    4c1a:	f3 44 0f 11 8c 24 84 	movss  %xmm9,0x84(%rsp)
    4c21:	00 00 00 
    4c24:	f3 44 0f 11 9c 24 88 	movss  %xmm11,0x88(%rsp)
    4c2b:	00 00 00 
    4c2e:	f3 44 0f 10 a4 24 84 	movss  0x84(%rsp),%xmm12
    4c35:	00 00 00 
    4c38:	f3 44 0f 5e a4 24 88 	divss  0x88(%rsp),%xmm12
    4c3f:	00 00 00 
    4c42:	f3 44 0f 11 a4 24 94 	movss  %xmm12,0x94(%rsp)
    4c49:	00 00 00 
    4c4c:	44 0f 2f 94 24 94 00 	comiss 0x94(%rsp),%xmm10
    4c53:	00 00 
    4c55:	76 20                	jbe    4c77 <susan_edges_small+0x415>
    4c57:	f3 44 0f 10 ac 24 94 	movss  0x94(%rsp),%xmm13
    4c5e:	00 00 00 
    4c61:	41 83 c9 ff          	or     $0xffffffff,%r9d
    4c65:	44 0f 57 2d 53 29 00 	xorps  0x2953(%rip),%xmm13        # 75c0 <_IO_stdin_used+0x5c0>
    4c6c:	00 
    4c6d:	f3 44 0f 11 ac 24 94 	movss  %xmm13,0x94(%rsp)
    4c74:	00 00 00 
    4c77:	f3 44 0f 10 35 68 29 	movss  0x2968(%rip),%xmm14        # 75e8 <_IO_stdin_used+0x5e8>
    4c7e:	00 00 
    4c80:	44 0f 2f b4 24 94 00 	comiss 0x94(%rsp),%xmm14
    4c87:	00 00 
    4c89:	77 26                	ja     4cb1 <susan_edges_small+0x44f>
    4c8b:	f3 44 0f 10 bc 24 94 	movss  0x94(%rsp),%xmm15
    4c92:	00 00 00 
    4c95:	44 0f 2f 3d 4f 29 00 	comiss 0x294f(%rip),%xmm15        # 75ec <_IO_stdin_used+0x5ec>
    4c9c:	00 
    4c9d:	77 1d                	ja     4cbc <susan_edges_small+0x45a>
    4c9f:	41 83 f9 01          	cmp    $0x1,%r9d
    4ca3:	41 bc 01 00 00 00    	mov    $0x1,%r12d
    4ca9:	74 1a                	je     4cc5 <susan_edges_small+0x463>
    4cab:	41 83 c9 ff          	or     $0xffffffff,%r9d
    4caf:	eb 14                	jmp    4cc5 <susan_edges_small+0x463>
    4cb1:	41 bc 01 00 00 00    	mov    $0x1,%r12d
    4cb7:	45 31 c9             	xor    %r9d,%r9d
    4cba:	eb 09                	jmp    4cc5 <susan_edges_small+0x463>
    4cbc:	41 b9 01 00 00 00    	mov    $0x1,%r9d
    4cc2:	45 31 e4             	xor    %r12d,%r12d
    4cc5:	8b 7c 24 14          	mov    0x14(%rsp),%edi
    4cc9:	4c 8b 44 24 08       	mov    0x8(%rsp),%r8
    4cce:	46 8d 1c 0f          	lea    (%rdi,%r9,1),%r11d
    4cd2:	44 0f af db          	imul   %ebx,%r11d
    4cd6:	41 01 d3             	add    %edx,%r11d
    4cd9:	45 01 e3             	add    %r12d,%r11d
    4cdc:	4d 63 f3             	movslq %r11d,%r14
    4cdf:	43 3b 0c b0          	cmp    (%r8,%r14,4),%ecx
    4ce3:	0f 8e 31 01 00 00    	jle    4e1a <susan_edges_small+0x5b8>
    4ce9:	44 8b 7c 24 14       	mov    0x14(%rsp),%r15d
    4cee:	45 29 cf             	sub    %r9d,%r15d
    4cf1:	44 0f af fb          	imul   %ebx,%r15d
    4cf5:	41 01 d7             	add    %edx,%r15d
    4cf8:	45 29 e7             	sub    %r12d,%r15d
    4cfb:	4d 63 d7             	movslq %r15d,%r10
    4cfe:	43 3b 0c 90          	cmp    (%r8,%r10,4),%ecx
    4d02:	0f 8c 12 01 00 00    	jl     4e1a <susan_edges_small+0x5b8>
    4d08:	48 8b 44 24 40       	mov    0x40(%rsp),%rax
    4d0d:	48 8b 4c 24 18       	mov    0x18(%rsp),%rcx
    4d12:	c6 44 08 02 01       	movb   $0x1,0x2(%rax,%rcx,1)
    4d17:	e9 fe 00 00 00       	jmp    4e1a <susan_edges_small+0x5b8>
    4d1c:	44 8b 44 24 38       	mov    0x38(%rsp),%r8d
    4d21:	41 be 01 00 00 00    	mov    $0x1,%r14d
    4d27:	45 01 f8             	add    %r15d,%r8d
    4d2a:	41 01 f8             	add    %edi,%r8d
    4d2d:	41 01 f0             	add    %esi,%r8d
    4d30:	45 01 d0             	add    %r10d,%r8d
    4d33:	41 01 c0             	add    %eax,%r8d
    4d36:	0f 84 9b 00 00 00    	je     4dd7 <susan_edges_small+0x575>
    4d3c:	45 8d 24 3f          	lea    (%r15,%rdi,1),%r12d
    4d40:	44 03 64 24 50       	add    0x50(%rsp),%r12d
    4d45:	45 01 cc             	add    %r9d,%r12d
    4d48:	f3 41 0f 2a e8       	cvtsi2ss %r8d,%xmm5
    4d4d:	f3 0f 10 3d 93 28 00 	movss  0x2893(%rip),%xmm7        # 75e8 <_IO_stdin_used+0x5e8>
    4d54:	00 
    4d55:	41 01 f4             	add    %esi,%r12d
    4d58:	41 01 c4             	add    %eax,%r12d
    4d5b:	f3 41 0f 2a e4       	cvtsi2ss %r12d,%xmm4
    4d60:	f3 0f 11 ac 24 90 00 	movss  %xmm5,0x90(%rsp)
    4d67:	00 00 
    4d69:	f3 0f 11 a4 24 8c 00 	movss  %xmm4,0x8c(%rsp)
    4d70:	00 00 
    4d72:	f3 0f 10 b4 24 8c 00 	movss  0x8c(%rsp),%xmm6
    4d79:	00 00 
    4d7b:	f3 0f 5e b4 24 90 00 	divss  0x90(%rsp),%xmm6
    4d82:	00 00 
    4d84:	f3 0f 11 b4 24 9c 00 	movss  %xmm6,0x9c(%rsp)
    4d8b:	00 00 
    4d8d:	0f 2f bc 24 9c 00 00 	comiss 0x9c(%rsp),%xmm7
    4d94:	00 
    4d95:	77 37                	ja     4dce <susan_edges_small+0x56c>
    4d97:	f3 44 0f 10 84 24 9c 	movss  0x9c(%rsp),%xmm8
    4d9e:	00 00 00 
    4da1:	45 31 c0             	xor    %r8d,%r8d
    4da4:	44 0f 2f 05 40 28 00 	comiss 0x2840(%rip),%xmm8        # 75ec <_IO_stdin_used+0x5ec>
    4dab:	00 
    4dac:	77 29                	ja     4dd7 <susan_edges_small+0x575>
    4dae:	41 29 ff             	sub    %edi,%r15d
    4db1:	45 31 db             	xor    %r11d,%r11d
    4db4:	41 b8 01 00 00 00    	mov    $0x1,%r8d
    4dba:	41 29 f7             	sub    %esi,%r15d
    4dbd:	41 01 c7             	add    %eax,%r15d
    4dc0:	45 85 ff             	test   %r15d,%r15d
    4dc3:	41 0f 9e c3          	setle  %r11b
    4dc7:	47 8d 74 1b ff       	lea    -0x1(%r11,%r11,1),%r14d
    4dcc:	eb 09                	jmp    4dd7 <susan_edges_small+0x575>
    4dce:	41 b8 01 00 00 00    	mov    $0x1,%r8d
    4dd4:	45 31 f6             	xor    %r14d,%r14d
    4dd7:	8b 44 24 14          	mov    0x14(%rsp),%eax
    4ddb:	4c 8b 7c 24 08       	mov    0x8(%rsp),%r15
    4de0:	44 01 f0             	add    %r14d,%eax
    4de3:	0f af c3             	imul   %ebx,%eax
    4de6:	01 d0                	add    %edx,%eax
    4de8:	44 01 c0             	add    %r8d,%eax
    4deb:	48 98                	cltq   
    4ded:	41 3b 0c 87          	cmp    (%r15,%rax,4),%ecx
    4df1:	7e 27                	jle    4e1a <susan_edges_small+0x5b8>
    4df3:	8b 44 24 14          	mov    0x14(%rsp),%eax
    4df7:	44 29 f0             	sub    %r14d,%eax
    4dfa:	0f af c3             	imul   %ebx,%eax
    4dfd:	01 d0                	add    %edx,%eax
    4dff:	44 29 c0             	sub    %r8d,%eax
    4e02:	48 98                	cltq   
    4e04:	41 3b 0c 87          	cmp    (%r15,%rax,4),%ecx
    4e08:	7c 10                	jl     4e1a <susan_edges_small+0x5b8>
    4e0a:	4c 8b 54 24 40       	mov    0x40(%rsp),%r10
    4e0f:	48 8b 74 24 18       	mov    0x18(%rsp),%rsi
    4e14:	41 c6 44 32 02 02    	movb   $0x2,0x2(%r10,%rsi,1)
    4e1a:	ff c2                	inc    %edx
    4e1c:	49 ff c5             	inc    %r13
    4e1f:	48 ff 44 24 18       	incq   0x18(%rsp)
    4e24:	e9 26 fc ff ff       	jmp    4a4f <susan_edges_small+0x1ed>
    4e29:	8b 44 24 30          	mov    0x30(%rsp),%eax
    4e2d:	ff 44 24 14          	incl   0x14(%rsp)
    4e31:	e9 e8 fb ff ff       	jmp    4a1e <susan_edges_small+0x1bc>
    4e36:	48 81 c4 a8 00 00 00 	add    $0xa8,%rsp
    4e3d:	5b                   	pop    %rbx
    4e3e:	5d                   	pop    %rbp
    4e3f:	41 5c                	pop    %r12
    4e41:	41 5d                	pop    %r13
    4e43:	41 5e                	pop    %r14
    4e45:	41 5f                	pop    %r15
    4e47:	c3                   	ret    

0000000000004e48 <corner_draw>:
    4e48:	f3 0f 1e fa          	endbr64 
    4e4c:	49 89 fa             	mov    %rdi,%r10
    4e4f:	48 63 fa             	movslq %edx,%rdi
    4e52:	49 89 f0             	mov    %rsi,%r8
    4e55:	41 89 c9             	mov    %ecx,%r9d
    4e58:	4c 89 d6             	mov    %r10,%rsi
    4e5b:	4c 89 c2             	mov    %r8,%rdx
    4e5e:	48 89 f9             	mov    %rdi,%rcx
    4e61:	48 83 ef 02          	sub    $0x2,%rdi
    4e65:	eb 02                	jmp    4e69 <corner_draw+0x21>
    4e67:	eb 00                	jmp    4e69 <corner_draw+0x21>
    4e69:	83 7a 08 07          	cmpl   $0x7,0x8(%rdx)
    4e6d:	74 5c                	je     4ecb <corner_draw+0x83>
    4e6f:	8b 42 04             	mov    0x4(%rdx),%eax
    4e72:	4c 63 1a             	movslq (%rdx),%r11
    4e75:	45 85 c9             	test   %r9d,%r9d
    4e78:	75 3e                	jne    4eb8 <corner_draw+0x70>
    4e7a:	ff c8                	dec    %eax
    4e7c:	48 83 c2 18          	add    $0x18,%rdx
    4e80:	0f af c1             	imul   %ecx,%eax
    4e83:	48 98                	cltq   
    4e85:	49 8d 44 03 ff       	lea    -0x1(%r11,%rax,1),%rax
    4e8a:	48 01 f0             	add    %rsi,%rax
    4e8d:	4c 8d 44 38 02       	lea    0x2(%rax,%rdi,1),%r8
    4e92:	66 c7 00 ff ff       	movw   $0xffff,(%rax)
    4e97:	4d 8d 54 38 02       	lea    0x2(%r8,%rdi,1),%r10
    4e9c:	c6 40 02 ff          	movb   $0xff,0x2(%rax)
    4ea0:	66 41 c7 00 ff 00    	movw   $0xff,(%r8)
    4ea6:	41 c6 40 02 ff       	movb   $0xff,0x2(%r8)
    4eab:	66 41 c7 02 ff ff    	movw   $0xffff,(%r10)
    4eb1:	41 c6 42 02 ff       	movb   $0xff,0x2(%r10)
    4eb6:	eb af                	jmp    4e67 <corner_draw+0x1f>
    4eb8:	0f af c1             	imul   %ecx,%eax
    4ebb:	49 01 f3             	add    %rsi,%r11
    4ebe:	48 83 c2 18          	add    $0x18,%rdx
    4ec2:	48 98                	cltq   
    4ec4:	41 c6 04 03 00       	movb   $0x0,(%r11,%rax,1)
    4ec9:	eb 9c                	jmp    4e67 <corner_draw+0x1f>
    4ecb:	c3                   	ret    

0000000000004ecc <susan_corners>:
    4ecc:	f3 0f 1e fa          	endbr64 
    4ed0:	41 57                	push   %r15
    4ed2:	41 56                	push   %r14
    4ed4:	49 89 ff             	mov    %rdi,%r15
    4ed7:	41 55                	push   %r13
    4ed9:	48 89 f7             	mov    %rsi,%rdi
    4edc:	45 89 cd             	mov    %r9d,%r13d
    4edf:	41 54                	push   %r12
    4ee1:	55                   	push   %rbp
    4ee2:	41 89 cc             	mov    %ecx,%r12d
    4ee5:	53                   	push   %rbx
    4ee6:	48 89 f3             	mov    %rsi,%rbx
    4ee9:	48 81 ec d8 01 00 00 	sub    $0x1d8,%rsp
    4ef0:	8b 84 24 10 02 00 00 	mov    0x210(%rsp),%eax
    4ef7:	48 89 94 24 60 01 00 	mov    %rdx,0x160(%rsp)
    4efe:	00 
    4eff:	4c 89 84 24 18 01 00 	mov    %r8,0x118(%rsp)
    4f06:	00 
    4f07:	89 84 24 24 01 00 00 	mov    %eax,0x124(%rsp)
    4f0e:	8b ac 24 24 01 00 00 	mov    0x124(%rsp),%ebp
    4f15:	31 c0                	xor    %eax,%eax
    4f17:	41 0f af e9          	imul   %r9d,%ebp
    4f1b:	4c 63 f5             	movslq %ebp,%r14
    4f1e:	49 c1 e6 02          	shl    $0x2,%r14
    4f22:	4c 89 f1             	mov    %r14,%rcx
    4f25:	f3 aa                	rep stos %al,%es:(%rdi)
    4f27:	4c 89 f7             	mov    %r14,%rdi
    4f2a:	e8 b1 c3 ff ff       	call   12e0 <malloc@plt>
    4f2f:	4c 89 f7             	mov    %r14,%rdi
    4f32:	48 89 84 24 88 00 00 	mov    %rax,0x88(%rsp)
    4f39:	00 
    4f3a:	e8 a1 c3 ff ff       	call   12e0 <malloc@plt>
    4f3f:	4d 63 c5             	movslq %r13d,%r8
    4f42:	43 8d 54 ad 00       	lea    0x0(%r13,%r13,4),%edx
    4f47:	4d 63 dd             	movslq %r13d,%r11
    4f4a:	4c 89 44 24 38       	mov    %r8,0x38(%rsp)
    4f4f:	4d 63 f5             	movslq %r13d,%r14
    4f52:	4d 01 db             	add    %r11,%r11
    4f55:	43 8d 74 2d 00       	lea    0x0(%r13,%r13,1),%esi
    4f5a:	4c 6b 54 24 38 03    	imul   $0x3,0x38(%rsp),%r10
    4f60:	89 54 24 50          	mov    %edx,0x50(%rsp)
    4f64:	48 6b 6c 24 38 06    	imul   $0x6,0x38(%rsp),%rbp
    4f6a:	48 89 84 24 90 00 00 	mov    %rax,0x90(%rsp)
    4f71:	00 
    4f72:	49 c1 e6 02          	shl    $0x2,%r14
    4f76:	48 6b 7c 24 38 05    	imul   $0x5,0x38(%rsp),%rdi
    4f7c:	8b 44 24 50          	mov    0x50(%rsp),%eax
    4f80:	47 8d 4c 2d 00       	lea    0x0(%r13,%r13,1),%r9d
    4f85:	c7 44 24 1c 05 00 00 	movl   $0x5,0x1c(%rsp)
    4f8c:	00 
    4f8d:	89 84 24 20 01 00 00 	mov    %eax,0x120(%rsp)
    4f94:	f3 0f 10 05 4c 26 00 	movss  0x264c(%rip),%xmm0        # 75e8 <_IO_stdin_used+0x5e8>
    4f9b:	00 
    4f9c:	44 89 8c 24 e8 00 00 	mov    %r9d,0xe8(%rsp)
    4fa3:	00 
    4fa4:	f3 0f 10 1d 48 26 00 	movss  0x2648(%rip),%xmm3        # 75f4 <_IO_stdin_used+0x5f4>
    4fab:	00 
    4fac:	89 b4 24 ec 00 00 00 	mov    %esi,0xec(%rsp)
    4fb3:	4c 89 94 24 40 01 00 	mov    %r10,0x140(%rsp)
    4fba:	00 
    4fbb:	4c 89 9c 24 68 01 00 	mov    %r11,0x168(%rsp)
    4fc2:	00 
    4fc3:	48 89 ac 24 48 01 00 	mov    %rbp,0x148(%rsp)
    4fca:	00 
    4fcb:	4c 89 b4 24 58 01 00 	mov    %r14,0x158(%rsp)
    4fd2:	00 
    4fd3:	48 89 bc 24 50 01 00 	mov    %rdi,0x150(%rsp)
    4fda:	00 
    4fdb:	8b 8c 24 24 01 00 00 	mov    0x124(%rsp),%ecx
    4fe2:	83 e9 05             	sub    $0x5,%ecx
    4fe5:	3b 4c 24 1c          	cmp    0x1c(%rsp),%ecx
    4fe9:	89 4c 24 08          	mov    %ecx,0x8(%rsp)
    4fed:	7f 18                	jg     5007 <susan_corners+0x13b>
    4fef:	8b ac 24 ec 00 00 00 	mov    0xec(%rsp),%ebp
    4ff6:	41 b9 05 00 00 00    	mov    $0x5,%r9d
    4ffc:	45 6b dd 07          	imul   $0x7,%r13d,%r11d
    5000:	31 f6                	xor    %esi,%esi
    5002:	e9 2e 0c 00 00       	jmp    5c35 <susan_corners+0xd69>
    5007:	48 63 94 24 20 01 00 	movslq 0x120(%rsp),%rdx
    500e:	00 
    500f:	4c 63 8c 24 e8 00 00 	movslq 0xe8(%rsp),%r9
    5016:	00 
    5017:	48 8b b4 24 40 01 00 	mov    0x140(%rsp),%rsi
    501e:	00 
    501f:	4c 8b 84 24 68 01 00 	mov    0x168(%rsp),%r8
    5026:	00 
    5027:	48 89 94 24 e0 00 00 	mov    %rdx,0xe0(%rsp)
    502e:	00 
    502f:	48 8b 54 24 38       	mov    0x38(%rsp),%rdx
    5034:	48 8b 84 24 48 01 00 	mov    0x148(%rsp),%rax
    503b:	00 
    503c:	48 8b bc 24 50 01 00 	mov    0x150(%rsp),%rdi
    5043:	00 
    5044:	4d 8d 14 31          	lea    (%r9,%rsi,1),%r10
    5048:	4c 01 ca             	add    %r9,%rdx
    504b:	4d 01 fa             	add    %r15,%r10
    504e:	4f 8d 1c 01          	lea    (%r9,%r8,1),%r11
    5052:	41 be 05 00 00 00    	mov    $0x5,%r14d
    5058:	48 8b b4 24 58 01 00 	mov    0x158(%rsp),%rsi
    505f:	00 
    5060:	4c 01 fa             	add    %r15,%rdx
    5063:	49 8d 2c 01          	lea    (%r9,%rax,1),%rbp
    5067:	49 8d 0c 39          	lea    (%r9,%rdi,1),%rcx
    506b:	48 8b 84 24 e0 00 00 	mov    0xe0(%rsp),%rax
    5072:	00 
    5073:	4c 01 fd             	add    %r15,%rbp
    5076:	4c 01 f9             	add    %r15,%rcx
    5079:	4c 01 ce             	add    %r9,%rsi
    507c:	4c 89 94 24 f0 00 00 	mov    %r10,0xf0(%rsp)
    5083:	00 
    5084:	4c 01 fe             	add    %r15,%rsi
    5087:	48 89 54 24 30       	mov    %rdx,0x30(%rsp)
    508c:	4f 8d 14 1f          	lea    (%r15,%r11,1),%r10
    5090:	48 c1 e0 02          	shl    $0x2,%rax
    5094:	48 8b 94 24 88 00 00 	mov    0x88(%rsp),%rdx
    509b:	00 
    509c:	4c 89 94 24 f8 00 00 	mov    %r10,0xf8(%rsp)
    50a3:	00 
    50a4:	4c 8b 84 24 f0 00 00 	mov    0xf0(%rsp),%r8
    50ab:	00 
    50ac:	48 89 ac 24 00 01 00 	mov    %rbp,0x100(%rsp)
    50b3:	00 
    50b4:	48 89 8c 24 08 01 00 	mov    %rcx,0x108(%rsp)
    50bb:	00 
    50bc:	48 01 c2             	add    %rax,%rdx
    50bf:	4f 8d 0c 0f          	lea    (%r15,%r9,1),%r9
    50c3:	4c 8b 9c 24 f8 00 00 	mov    0xf8(%rsp),%r11
    50ca:	00 
    50cb:	48 89 b4 24 10 01 00 	mov    %rsi,0x110(%rsp)
    50d2:	00 
    50d3:	48 8b ac 24 00 01 00 	mov    0x100(%rsp),%rbp
    50da:	00 
    50db:	48 8b bc 24 08 01 00 	mov    0x108(%rsp),%rdi
    50e2:	00 
    50e3:	48 8d 34 03          	lea    (%rbx,%rax,1),%rsi
    50e7:	48 8b 8c 24 10 01 00 	mov    0x110(%rsp),%rcx
    50ee:	00 
    50ef:	48 03 84 24 90 00 00 	add    0x90(%rsp),%rax
    50f6:	00 
    50f7:	4c 89 44 24 28       	mov    %r8,0x28(%rsp)
    50fc:	4c 89 5c 24 08       	mov    %r11,0x8(%rsp)
    5101:	48 89 ac 24 98 00 00 	mov    %rbp,0x98(%rsp)
    5108:	00 
    5109:	48 89 7c 24 40       	mov    %rdi,0x40(%rsp)
    510e:	48 89 4c 24 10       	mov    %rcx,0x10(%rsp)
    5113:	4c 89 4c 24 48       	mov    %r9,0x48(%rsp)
    5118:	48 89 b4 24 38 01 00 	mov    %rsi,0x138(%rsp)
    511f:	00 
    5120:	48 89 94 24 28 01 00 	mov    %rdx,0x128(%rsp)
    5127:	00 
    5128:	48 89 84 24 30 01 00 	mov    %rax,0x130(%rsp)
    512f:	00 
    5130:	45 8d 55 fb          	lea    -0x5(%r13),%r10d
    5134:	44 89 74 24 20       	mov    %r14d,0x20(%rsp)
    5139:	45 39 f2             	cmp    %r14d,%r10d
    513c:	0f 8e b3 0a 00 00    	jle    5bf5 <susan_corners+0xd29>
    5142:	4c 8b 9c 24 e0 00 00 	mov    0xe0(%rsp),%r11
    5149:	00 
    514a:	4c 8b 44 24 48       	mov    0x48(%rsp),%r8
    514f:	48 8b 44 24 48       	mov    0x48(%rsp),%rax
    5154:	48 8b 7c 24 30       	mov    0x30(%rsp),%rdi
    5159:	4d 01 fb             	add    %r15,%r11
    515c:	41 0f b6 68 04       	movzbl 0x4(%r8),%ebp
    5161:	45 0f b6 40 05       	movzbl 0x5(%r8),%r8d
    5166:	43 0f b6 14 33       	movzbl (%r11,%r14,1),%edx
    516b:	48 03 94 24 60 01 00 	add    0x160(%rsp),%rdx
    5172:	00 
    5173:	49 89 d2             	mov    %rdx,%r10
    5176:	0f b6 70 06          	movzbl 0x6(%rax),%esi
    517a:	44 0f b6 5f 03       	movzbl 0x3(%rdi),%r11d
    517f:	49 29 ea             	sub    %rbp,%r10
    5182:	48 89 d5             	mov    %rdx,%rbp
    5185:	0f b6 4f 04          	movzbl 0x4(%rdi),%ecx
    5189:	44 0f b6 4f 05       	movzbl 0x5(%rdi),%r9d
    518e:	4c 29 c5             	sub    %r8,%rbp
    5191:	0f b6 47 06          	movzbl 0x6(%rdi),%eax
    5195:	49 89 d0             	mov    %rdx,%r8
    5198:	45 0f b6 12          	movzbl (%r10),%r10d
    519c:	0f b6 7d 00          	movzbl 0x0(%rbp),%edi
    51a0:	49 29 f0             	sub    %rsi,%r8
    51a3:	48 89 d6             	mov    %rdx,%rsi
    51a6:	41 0f b6 28          	movzbl (%r8),%ebp
    51aa:	4c 29 de             	sub    %r11,%rsi
    51ad:	89 bc 24 a4 00 00 00 	mov    %edi,0xa4(%rsp)
    51b4:	48 89 d7             	mov    %rdx,%rdi
    51b7:	0f b6 36             	movzbl (%rsi),%esi
    51ba:	41 89 eb             	mov    %ebp,%r11d
    51bd:	48 29 cf             	sub    %rcx,%rdi
    51c0:	48 89 d1             	mov    %rdx,%rcx
    51c3:	44 8b 84 24 a4 00 00 	mov    0xa4(%rsp),%r8d
    51ca:	00 
    51cb:	89 f5                	mov    %esi,%ebp
    51cd:	48 8b 74 24 30       	mov    0x30(%rsp),%rsi
    51d2:	4c 29 c9             	sub    %r9,%rcx
    51d5:	49 89 d1             	mov    %rdx,%r9
    51d8:	0f b6 3f             	movzbl (%rdi),%edi
    51db:	49 29 c1             	sub    %rax,%r9
    51de:	44 89 c0             	mov    %r8d,%eax
    51e1:	0f b6 09             	movzbl (%rcx),%ecx
    51e4:	0f b6 76 07          	movzbl 0x7(%rsi),%esi
    51e8:	41 8d 44 02 64       	lea    0x64(%r10,%rax,1),%eax
    51ed:	45 0f b6 09          	movzbl (%r9),%r9d
    51f1:	41 89 f8             	mov    %edi,%r8d
    51f4:	44 01 d8             	add    %r11d,%eax
    51f7:	48 89 f7             	mov    %rsi,%rdi
    51fa:	44 89 44 24 54       	mov    %r8d,0x54(%rsp)
    51ff:	48 89 d6             	mov    %rdx,%rsi
    5202:	01 e8                	add    %ebp,%eax
    5204:	4c 8b 84 24 f8 00 00 	mov    0xf8(%rsp),%r8
    520b:	00 
    520c:	48 29 fe             	sub    %rdi,%rsi
    520f:	48 8b 7c 24 08       	mov    0x8(%rsp),%rdi
    5214:	89 8c 24 a8 00 00 00 	mov    %ecx,0xa8(%rsp)
    521b:	43 0f b6 4c 30 fd    	movzbl -0x3(%r8,%r14,1),%ecx
    5221:	44 0f b6 47 03       	movzbl 0x3(%rdi),%r8d
    5226:	44 89 4c 24 58       	mov    %r9d,0x58(%rsp)
    522b:	03 44 24 54          	add    0x54(%rsp),%eax
    522f:	44 0f b6 0e          	movzbl (%rsi),%r9d
    5233:	48 89 d6             	mov    %rdx,%rsi
    5236:	48 8b 7c 24 08       	mov    0x8(%rsp),%rdi
    523b:	03 84 24 a8 00 00 00 	add    0xa8(%rsp),%eax
    5242:	48 29 ce             	sub    %rcx,%rsi
    5245:	44 89 8c 24 ac 00 00 	mov    %r9d,0xac(%rsp)
    524c:	00 
    524d:	03 44 24 58          	add    0x58(%rsp),%eax
    5251:	48 89 f9             	mov    %rdi,%rcx
    5254:	0f b6 3e             	movzbl (%rsi),%edi
    5257:	48 89 d6             	mov    %rdx,%rsi
    525a:	44 0f b6 49 04       	movzbl 0x4(%rcx),%r9d
    525f:	48 8b 4c 24 08       	mov    0x8(%rsp),%rcx
    5264:	4c 29 c6             	sub    %r8,%rsi
    5267:	89 7c 24 5c          	mov    %edi,0x5c(%rsp)
    526b:	03 84 24 ac 00 00 00 	add    0xac(%rsp),%eax
    5272:	49 89 c8             	mov    %rcx,%r8
    5275:	0f b6 0e             	movzbl (%rsi),%ecx
    5278:	48 89 d6             	mov    %rdx,%rsi
    527b:	03 44 24 5c          	add    0x5c(%rsp),%eax
    527f:	4c 29 ce             	sub    %r9,%rsi
    5282:	41 0f b6 78 05       	movzbl 0x5(%r8),%edi
    5287:	4c 8b 4c 24 08       	mov    0x8(%rsp),%r9
    528c:	89 4c 24 60          	mov    %ecx,0x60(%rsp)
    5290:	0f b6 0e             	movzbl (%rsi),%ecx
    5293:	48 89 d6             	mov    %rdx,%rsi
    5296:	03 44 24 60          	add    0x60(%rsp),%eax
    529a:	45 0f b6 41 06       	movzbl 0x6(%r9),%r8d
    529f:	48 29 fe             	sub    %rdi,%rsi
    52a2:	89 4c 24 64          	mov    %ecx,0x64(%rsp)
    52a6:	03 44 24 64          	add    0x64(%rsp),%eax
    52aa:	0f b6 3e             	movzbl (%rsi),%edi
    52ad:	4c 8b 4c 24 08       	mov    0x8(%rsp),%r9
    52b2:	48 8b 4c 24 08       	mov    0x8(%rsp),%rcx
    52b7:	01 f8                	add    %edi,%eax
    52b9:	89 bc 24 b0 00 00 00 	mov    %edi,0xb0(%rsp)
    52c0:	48 89 d7             	mov    %rdx,%rdi
    52c3:	4c 29 c7             	sub    %r8,%rdi
    52c6:	41 0f b6 71 07       	movzbl 0x7(%r9),%esi
    52cb:	49 89 c8             	mov    %rcx,%r8
    52ce:	44 0f b6 0f          	movzbl (%rdi),%r9d
    52d2:	41 0f b6 48 08       	movzbl 0x8(%r8),%ecx
    52d7:	48 8b bc 24 f0 00 00 	mov    0xf0(%rsp),%rdi
    52de:	00 
    52df:	49 89 d0             	mov    %rdx,%r8
    52e2:	44 89 4c 24 68       	mov    %r9d,0x68(%rsp)
    52e7:	49 89 d1             	mov    %rdx,%r9
    52ea:	49 29 c8             	sub    %rcx,%r8
    52ed:	49 29 f1             	sub    %rsi,%r9
    52f0:	48 8b 74 24 28       	mov    0x28(%rsp),%rsi
    52f5:	42 0f b6 7c 37 fd    	movzbl -0x3(%rdi,%r14,1),%edi
    52fb:	45 0f b6 09          	movzbl (%r9),%r9d
    52ff:	48 8b 4c 24 28       	mov    0x28(%rsp),%rcx
    5304:	0f b6 76 03          	movzbl 0x3(%rsi),%esi
    5308:	0f b6 49 04          	movzbl 0x4(%rcx),%ecx
    530c:	45 0f b6 00          	movzbl (%r8),%r8d
    5310:	03 44 24 68          	add    0x68(%rsp),%eax
    5314:	44 89 4c 24 6c       	mov    %r9d,0x6c(%rsp)
    5319:	03 44 24 6c          	add    0x6c(%rsp),%eax
    531d:	45 89 c1             	mov    %r8d,%r9d
    5320:	49 89 d0             	mov    %rdx,%r8
    5323:	49 29 f8             	sub    %rdi,%r8
    5326:	44 01 c8             	add    %r9d,%eax
    5329:	44 89 4c 24 70       	mov    %r9d,0x70(%rsp)
    532e:	41 0f b6 38          	movzbl (%r8),%edi
    5332:	49 89 d0             	mov    %rdx,%r8
    5335:	49 29 f0             	sub    %rsi,%r8
    5338:	48 89 d6             	mov    %rdx,%rsi
    533b:	89 bc 24 b4 00 00 00 	mov    %edi,0xb4(%rsp)
    5342:	48 29 ce             	sub    %rcx,%rsi
    5345:	41 0f b6 08          	movzbl (%r8),%ecx
    5349:	03 84 24 b4 00 00 00 	add    0xb4(%rsp),%eax
    5350:	0f b6 3e             	movzbl (%rsi),%edi
    5353:	01 c8                	add    %ecx,%eax
    5355:	89 8c 24 b8 00 00 00 	mov    %ecx,0xb8(%rsp)
    535c:	01 f8                	add    %edi,%eax
    535e:	89 bc 24 bc 00 00 00 	mov    %edi,0xbc(%rsp)
    5365:	44 39 e0             	cmp    %r12d,%eax
    5368:	0f 8d 59 08 00 00    	jge    5bc7 <susan_corners+0xcfb>
    536e:	4c 8b 4c 24 28       	mov    0x28(%rsp),%r9
    5373:	48 89 d6             	mov    %rdx,%rsi
    5376:	45 0f b6 41 06       	movzbl 0x6(%r9),%r8d
    537b:	4c 29 c6             	sub    %r8,%rsi
    537e:	0f b6 0e             	movzbl (%rsi),%ecx
    5381:	01 c8                	add    %ecx,%eax
    5383:	89 8c 24 c0 00 00 00 	mov    %ecx,0xc0(%rsp)
    538a:	41 39 c4             	cmp    %eax,%r12d
    538d:	0f 8e 34 08 00 00    	jle    5bc7 <susan_corners+0xcfb>
    5393:	48 8b 7c 24 28       	mov    0x28(%rsp),%rdi
    5398:	49 89 d0             	mov    %rdx,%r8
    539b:	44 0f b6 4f 07       	movzbl 0x7(%rdi),%r9d
    53a0:	4d 29 c8             	sub    %r9,%r8
    53a3:	41 0f b6 30          	movzbl (%r8),%esi
    53a7:	01 f0                	add    %esi,%eax
    53a9:	89 b4 24 c4 00 00 00 	mov    %esi,0xc4(%rsp)
    53b0:	41 39 c4             	cmp    %eax,%r12d
    53b3:	0f 8e 0e 08 00 00    	jle    5bc7 <susan_corners+0xcfb>
    53b9:	48 8b 4c 24 28       	mov    0x28(%rsp),%rcx
    53be:	49 89 d1             	mov    %rdx,%r9
    53c1:	0f b6 79 08          	movzbl 0x8(%rcx),%edi
    53c5:	49 29 f9             	sub    %rdi,%r9
    53c8:	45 0f b6 01          	movzbl (%r9),%r8d
    53cc:	44 01 c0             	add    %r8d,%eax
    53cf:	44 89 84 24 c8 00 00 	mov    %r8d,0xc8(%rsp)
    53d6:	00 
    53d7:	41 39 c4             	cmp    %eax,%r12d
    53da:	0f 8e e7 07 00 00    	jle    5bc7 <susan_corners+0xcfb>
    53e0:	48 8b b4 24 10 01 00 	mov    0x110(%rsp),%rsi
    53e7:	00 
    53e8:	48 89 d1             	mov    %rdx,%rcx
    53eb:	42 0f b6 7c 36 fd    	movzbl -0x3(%rsi,%r14,1),%edi
    53f1:	48 29 f9             	sub    %rdi,%rcx
    53f4:	44 0f b6 09          	movzbl (%rcx),%r9d
    53f8:	44 01 c8             	add    %r9d,%eax
    53fb:	44 89 4c 24 74       	mov    %r9d,0x74(%rsp)
    5400:	41 39 c4             	cmp    %eax,%r12d
    5403:	0f 8e be 07 00 00    	jle    5bc7 <susan_corners+0xcfb>
    5409:	4c 8b 44 24 10       	mov    0x10(%rsp),%r8
    540e:	48 89 d7             	mov    %rdx,%rdi
    5411:	41 0f b6 70 03       	movzbl 0x3(%r8),%esi
    5416:	48 29 f7             	sub    %rsi,%rdi
    5419:	0f b6 0f             	movzbl (%rdi),%ecx
    541c:	01 c8                	add    %ecx,%eax
    541e:	89 4c 24 78          	mov    %ecx,0x78(%rsp)
    5422:	41 39 c4             	cmp    %eax,%r12d
    5425:	0f 8e 9c 07 00 00    	jle    5bc7 <susan_corners+0xcfb>
    542b:	4c 8b 4c 24 10       	mov    0x10(%rsp),%r9
    5430:	48 89 d6             	mov    %rdx,%rsi
    5433:	45 0f b6 41 04       	movzbl 0x4(%r9),%r8d
    5438:	4c 29 c6             	sub    %r8,%rsi
    543b:	0f b6 3e             	movzbl (%rsi),%edi
    543e:	01 f8                	add    %edi,%eax
    5440:	41 39 c4             	cmp    %eax,%r12d
    5443:	0f 8e 7e 07 00 00    	jle    5bc7 <susan_corners+0xcfb>
    5449:	48 8b 4c 24 10       	mov    0x10(%rsp),%rcx
    544e:	49 89 d0             	mov    %rdx,%r8
    5451:	44 0f b6 49 05       	movzbl 0x5(%rcx),%r9d
    5456:	4d 29 c8             	sub    %r9,%r8
    5459:	41 0f b6 30          	movzbl (%r8),%esi
    545d:	01 f0                	add    %esi,%eax
    545f:	89 b4 24 cc 00 00 00 	mov    %esi,0xcc(%rsp)
    5466:	41 39 c4             	cmp    %eax,%r12d
    5469:	0f 8e 58 07 00 00    	jle    5bc7 <susan_corners+0xcfb>
    546f:	48 8b 4c 24 10       	mov    0x10(%rsp),%rcx
    5474:	49 89 d0             	mov    %rdx,%r8
    5477:	44 0f b6 49 06       	movzbl 0x6(%rcx),%r9d
    547c:	4d 29 c8             	sub    %r9,%r8
    547f:	41 0f b6 30          	movzbl (%r8),%esi
    5483:	01 f0                	add    %esi,%eax
    5485:	89 74 24 7c          	mov    %esi,0x7c(%rsp)
    5489:	41 39 c4             	cmp    %eax,%r12d
    548c:	0f 8e 35 07 00 00    	jle    5bc7 <susan_corners+0xcfb>
    5492:	48 8b 4c 24 10       	mov    0x10(%rsp),%rcx
    5497:	49 89 d0             	mov    %rdx,%r8
    549a:	44 0f b6 49 07       	movzbl 0x7(%rcx),%r9d
    549f:	4d 29 c8             	sub    %r9,%r8
    54a2:	41 0f b6 30          	movzbl (%r8),%esi
    54a6:	01 f0                	add    %esi,%eax
    54a8:	89 b4 24 80 00 00 00 	mov    %esi,0x80(%rsp)
    54af:	41 39 c4             	cmp    %eax,%r12d
    54b2:	0f 8e 0f 07 00 00    	jle    5bc7 <susan_corners+0xcfb>
    54b8:	48 8b 4c 24 10       	mov    0x10(%rsp),%rcx
    54bd:	49 89 d0             	mov    %rdx,%r8
    54c0:	44 0f b6 49 08       	movzbl 0x8(%rcx),%r9d
    54c5:	4d 29 c8             	sub    %r9,%r8
    54c8:	41 0f b6 30          	movzbl (%r8),%esi
    54cc:	01 f0                	add    %esi,%eax
    54ce:	89 b4 24 84 00 00 00 	mov    %esi,0x84(%rsp)
    54d5:	41 39 c4             	cmp    %eax,%r12d
    54d8:	0f 8e e9 06 00 00    	jle    5bc7 <susan_corners+0xcfb>
    54de:	48 8b 8c 24 08 01 00 	mov    0x108(%rsp),%rcx
    54e5:	00 
    54e6:	49 89 d0             	mov    %rdx,%r8
    54e9:	46 0f b6 4c 31 fe    	movzbl -0x2(%rcx,%r14,1),%r9d
    54ef:	4d 29 c8             	sub    %r9,%r8
    54f2:	41 0f b6 30          	movzbl (%r8),%esi
    54f6:	01 f0                	add    %esi,%eax
    54f8:	89 b4 24 d0 00 00 00 	mov    %esi,0xd0(%rsp)
    54ff:	41 39 c4             	cmp    %eax,%r12d
    5502:	0f 8e bf 06 00 00    	jle    5bc7 <susan_corners+0xcfb>
    5508:	48 8b 4c 24 40       	mov    0x40(%rsp),%rcx
    550d:	49 89 d0             	mov    %rdx,%r8
    5510:	44 0f b6 49 04       	movzbl 0x4(%rcx),%r9d
    5515:	4d 29 c8             	sub    %r9,%r8
    5518:	45 0f b6 08          	movzbl (%r8),%r9d
    551c:	44 01 c8             	add    %r9d,%eax
    551f:	41 39 c4             	cmp    %eax,%r12d
    5522:	0f 8e 9f 06 00 00    	jle    5bc7 <susan_corners+0xcfb>
    5528:	48 8b 74 24 40       	mov    0x40(%rsp),%rsi
    552d:	48 89 d1             	mov    %rdx,%rcx
    5530:	44 0f b6 46 05       	movzbl 0x5(%rsi),%r8d
    5535:	4c 29 c1             	sub    %r8,%rcx
    5538:	0f b6 31             	movzbl (%rcx),%esi
    553b:	01 f0                	add    %esi,%eax
    553d:	89 b4 24 d4 00 00 00 	mov    %esi,0xd4(%rsp)
    5544:	41 39 c4             	cmp    %eax,%r12d
    5547:	0f 8e 7a 06 00 00    	jle    5bc7 <susan_corners+0xcfb>
    554d:	4c 8b 44 24 40       	mov    0x40(%rsp),%r8
    5552:	48 89 d1             	mov    %rdx,%rcx
    5555:	41 0f b6 70 06       	movzbl 0x6(%r8),%esi
    555a:	48 29 f1             	sub    %rsi,%rcx
    555d:	44 0f b6 01          	movzbl (%rcx),%r8d
    5561:	44 01 c0             	add    %r8d,%eax
    5564:	41 39 c4             	cmp    %eax,%r12d
    5567:	0f 8e 5a 06 00 00    	jle    5bc7 <susan_corners+0xcfb>
    556d:	48 8b 74 24 40       	mov    0x40(%rsp),%rsi
    5572:	48 89 d1             	mov    %rdx,%rcx
    5575:	0f b6 76 07          	movzbl 0x7(%rsi),%esi
    5579:	48 29 f1             	sub    %rsi,%rcx
    557c:	0f b6 31             	movzbl (%rcx),%esi
    557f:	01 f0                	add    %esi,%eax
    5581:	89 b4 24 d8 00 00 00 	mov    %esi,0xd8(%rsp)
    5588:	41 39 c4             	cmp    %eax,%r12d
    558b:	0f 8e 36 06 00 00    	jle    5bc7 <susan_corners+0xcfb>
    5591:	48 8b 8c 24 00 01 00 	mov    0x100(%rsp),%rcx
    5598:	00 
    5599:	42 0f b6 74 31 ff    	movzbl -0x1(%rcx,%r14,1),%esi
    559f:	48 89 d1             	mov    %rdx,%rcx
    55a2:	48 29 f1             	sub    %rsi,%rcx
    55a5:	0f b6 31             	movzbl (%rcx),%esi
    55a8:	01 f0                	add    %esi,%eax
    55aa:	89 b4 24 a0 00 00 00 	mov    %esi,0xa0(%rsp)
    55b1:	41 39 c4             	cmp    %eax,%r12d
    55b4:	0f 8e 0d 06 00 00    	jle    5bc7 <susan_corners+0xcfb>
    55ba:	48 8b 8c 24 98 00 00 	mov    0x98(%rsp),%rcx
    55c1:	00 
    55c2:	0f b6 71 05          	movzbl 0x5(%rcx),%esi
    55c6:	48 89 d1             	mov    %rdx,%rcx
    55c9:	48 29 f1             	sub    %rsi,%rcx
    55cc:	0f b6 31             	movzbl (%rcx),%esi
    55cf:	01 f0                	add    %esi,%eax
    55d1:	89 b4 24 dc 00 00 00 	mov    %esi,0xdc(%rsp)
    55d8:	41 39 c4             	cmp    %eax,%r12d
    55db:	0f 8e e6 05 00 00    	jle    5bc7 <susan_corners+0xcfb>
    55e1:	48 8b 8c 24 98 00 00 	mov    0x98(%rsp),%rcx
    55e8:	00 
    55e9:	0f b6 71 06          	movzbl 0x6(%rcx),%esi
    55ed:	48 89 d1             	mov    %rdx,%rcx
    55f0:	48 29 f1             	sub    %rsi,%rcx
    55f3:	0f b6 31             	movzbl (%rcx),%esi
    55f6:	01 f0                	add    %esi,%eax
    55f8:	41 39 c4             	cmp    %eax,%r12d
    55fb:	89 44 24 24          	mov    %eax,0x24(%rsp)
    55ff:	0f 8e c2 05 00 00    	jle    5bc7 <susan_corners+0xcfb>
    5605:	8b 8c 24 a4 00 00 00 	mov    0xa4(%rsp),%ecx
    560c:	44 89 d8             	mov    %r11d,%eax
    560f:	01 ed                	add    %ebp,%ebp
    5611:	44 29 d0             	sub    %r10d,%eax
    5614:	44 01 d1             	add    %r10d,%ecx
    5617:	29 e8                	sub    %ebp,%eax
    5619:	2b 44 24 54          	sub    0x54(%rsp),%eax
    561d:	44 01 d9             	add    %r11d,%ecx
    5620:	44 8b 5c 24 54       	mov    0x54(%rsp),%r11d
    5625:	89 44 24 54          	mov    %eax,0x54(%rsp)
    5629:	6b c9 fd             	imul   $0xfffffffd,%ecx,%ecx
    562c:	8b 44 24 58          	mov    0x58(%rsp),%eax
    5630:	44 8b 94 24 a8 00 00 	mov    0xa8(%rsp),%r10d
    5637:	00 
    5638:	45 01 db             	add    %r11d,%r11d
    563b:	01 c0                	add    %eax,%eax
    563d:	45 01 d2             	add    %r10d,%r10d
    5640:	29 e9                	sub    %ebp,%ecx
    5642:	89 84 24 a8 00 00 00 	mov    %eax,0xa8(%rsp)
    5649:	6b 44 24 5c fd       	imul   $0xfffffffd,0x5c(%rsp),%eax
    564e:	44 29 d9             	sub    %r11d,%ecx
    5651:	44 89 94 24 a4 00 00 	mov    %r10d,0xa4(%rsp)
    5658:	00 
    5659:	44 6b 5c 24 70 03    	imul   $0x3,0x70(%rsp),%r11d
    565f:	44 8b 94 24 ac 00 00 	mov    0xac(%rsp),%r10d
    5666:	00 
    5667:	8b 6c 24 60          	mov    0x60(%rsp),%ebp
    566b:	2b 8c 24 a4 00 00 00 	sub    0xa4(%rsp),%ecx
    5672:	2b 8c 24 a8 00 00 00 	sub    0xa8(%rsp),%ecx
    5679:	45 01 d2             	add    %r10d,%r10d
    567c:	89 84 24 ac 00 00 00 	mov    %eax,0xac(%rsp)
    5683:	8b 44 24 54          	mov    0x54(%rsp),%eax
    5687:	44 29 d1             	sub    %r10d,%ecx
    568a:	01 ed                	add    %ebp,%ebp
    568c:	03 44 24 58          	add    0x58(%rsp),%eax
    5690:	2b 4c 24 5c          	sub    0x5c(%rsp),%ecx
    5694:	44 89 5c 24 54       	mov    %r11d,0x54(%rsp)
    5699:	44 01 d0             	add    %r10d,%eax
    569c:	03 84 24 ac 00 00 00 	add    0xac(%rsp),%eax
    56a3:	44 8b 9c 24 b8 00 00 	mov    0xb8(%rsp),%r11d
    56aa:	00 
    56ab:	44 8b 54 24 68       	mov    0x68(%rsp),%r10d
    56b0:	29 e8                	sub    %ebp,%eax
    56b2:	2b 44 24 64          	sub    0x64(%rsp),%eax
    56b6:	45 01 db             	add    %r11d,%r11d
    56b9:	8b 6c 24 6c          	mov    0x6c(%rsp),%ebp
    56bd:	41 01 c2             	add    %eax,%r10d
    56c0:	89 c8                	mov    %ecx,%eax
    56c2:	44 89 5c 24 58       	mov    %r11d,0x58(%rsp)
    56c7:	44 8b 5c 24 78       	mov    0x78(%rsp),%r11d
    56cc:	89 e9                	mov    %ebp,%ecx
    56ce:	2b 44 24 60          	sub    0x60(%rsp),%eax
    56d2:	41 8d 2c 4a          	lea    (%r10,%rcx,2),%ebp
    56d6:	03 6c 24 54          	add    0x54(%rsp),%ebp
    56da:	2b 44 24 64          	sub    0x64(%rsp),%eax
    56de:	45 01 db             	add    %r11d,%r11d
    56e1:	2b 84 24 b0 00 00 00 	sub    0xb0(%rsp),%eax
    56e8:	2b 44 24 68          	sub    0x68(%rsp),%eax
    56ec:	89 6c 24 54          	mov    %ebp,0x54(%rsp)
    56f0:	2b 44 24 6c          	sub    0x6c(%rsp),%eax
    56f4:	2b 44 24 70          	sub    0x70(%rsp),%eax
    56f8:	44 6b 94 24 b4 00 00 	imul   $0xfffffffd,0xb4(%rsp),%r10d
    56ff:	00 fd 
    5701:	03 44 24 74          	add    0x74(%rsp),%eax
    5705:	03 44 24 78          	add    0x78(%rsp),%eax
    5709:	44 03 54 24 54       	add    0x54(%rsp),%r10d
    570e:	01 f8                	add    %edi,%eax
    5710:	6b 4c 24 74 fd       	imul   $0xfffffffd,0x74(%rsp),%ecx
    5715:	44 2b 54 24 58       	sub    0x58(%rsp),%r10d
    571a:	6b ac 24 c8 00 00 00 	imul   $0x3,0xc8(%rsp),%ebp
    5721:	03 
    5722:	89 44 24 54          	mov    %eax,0x54(%rsp)
    5726:	8b 84 24 c4 00 00 00 	mov    0xc4(%rsp),%eax
    572d:	44 2b 94 24 bc 00 00 	sub    0xbc(%rsp),%r10d
    5734:	00 
    5735:	44 03 94 24 c0 00 00 	add    0xc0(%rsp),%r10d
    573c:	00 
    573d:	45 8d 14 42          	lea    (%r10,%rax,2),%r10d
    5741:	44 01 d5             	add    %r10d,%ebp
    5744:	44 6b 94 24 84 00 00 	imul   $0x3,0x84(%rsp),%r10d
    574b:	00 03 
    574d:	8b 44 24 54          	mov    0x54(%rsp),%eax
    5751:	01 e9                	add    %ebp,%ecx
    5753:	8b ac 24 80 00 00 00 	mov    0x80(%rsp),%ebp
    575a:	03 84 24 cc 00 00 00 	add    0xcc(%rsp),%eax
    5761:	44 29 d9             	sub    %r11d,%ecx
    5764:	44 8b 9c 24 d0 00 00 	mov    0xd0(%rsp),%r11d
    576b:	00 
    576c:	03 44 24 7c          	add    0x7c(%rsp),%eax
    5770:	29 f9                	sub    %edi,%ecx
    5772:	89 ef                	mov    %ebp,%edi
    5774:	03 4c 24 7c          	add    0x7c(%rsp),%ecx
    5778:	45 01 db             	add    %r11d,%r11d
    577b:	8b ac 24 d8 00 00 00 	mov    0xd8(%rsp),%ebp
    5782:	8d 0c 79             	lea    (%rcx,%rdi,2),%ecx
    5785:	01 f8                	add    %edi,%eax
    5787:	41 01 ca             	add    %ecx,%r10d
    578a:	03 84 24 84 00 00 00 	add    0x84(%rsp),%eax
    5791:	01 ed                	add    %ebp,%ebp
    5793:	45 29 da             	sub    %r11d,%r10d
    5796:	44 01 d8             	add    %r11d,%eax
    5799:	45 29 ca             	sub    %r9d,%r10d
    579c:	46 8d 0c 48          	lea    (%rax,%r9,2),%r9d
    57a0:	8b 84 24 d4 00 00 00 	mov    0xd4(%rsp),%eax
    57a7:	45 01 c2             	add    %r8d,%r10d
    57aa:	41 01 ea             	add    %ebp,%r10d
    57ad:	44 2b 94 24 a0 00 00 	sub    0xa0(%rsp),%r10d
    57b4:	00 
    57b5:	6b bc 24 a0 00 00 00 	imul   $0x3,0xa0(%rsp),%edi
    57bc:	03 
    57bd:	45 8d 1c 41          	lea    (%r9,%rax,2),%r11d
    57c1:	43 8d 0c 43          	lea    (%r11,%r8,2),%ecx
    57c5:	44 6b 84 24 dc 00 00 	imul   $0x3,0xdc(%rsp),%r8d
    57cc:	00 03 
    57ce:	01 e9                	add    %ebp,%ecx
    57d0:	42 8d 2c 16          	lea    (%rsi,%r10,1),%ebp
    57d4:	8d 34 76             	lea    (%rsi,%rsi,2),%esi
    57d7:	01 cf                	add    %ecx,%edi
    57d9:	44 8b 5c 24 24       	mov    0x24(%rsp),%r11d
    57de:	41 89 ea             	mov    %ebp,%r10d
    57e1:	41 01 f8             	add    %edi,%r8d
    57e4:	44 0f af d5          	imul   %ebp,%r10d
    57e8:	44 01 c6             	add    %r8d,%esi
    57eb:	45 0f af db          	imul   %r11d,%r11d
    57ef:	89 f0                	mov    %esi,%eax
    57f1:	0f af c6             	imul   %esi,%eax
    57f4:	41 d1 fb             	sar    %r11d
    57f7:	45 8d 0c 02          	lea    (%r10,%rax,1),%r9d
    57fb:	45 39 cb             	cmp    %r9d,%r11d
    57fe:	0f 8d c3 03 00 00    	jge    5bc7 <susan_corners+0xcfb>
    5804:	41 39 c2             	cmp    %eax,%r10d
    5807:	0f 8e bd 01 00 00    	jle    59ca <susan_corners+0xafe>
    580d:	41 89 e8             	mov    %ebp,%r8d
    5810:	f3 44 0f 2a ee       	cvtsi2ss %esi,%xmm13
    5815:	45 0f 57 f6          	xorps  %xmm14,%xmm14
    5819:	41 89 ea             	mov    %ebp,%r10d
    581c:	41 f7 d8             	neg    %r8d
    581f:	44 0f 48 c5          	cmovs  %ebp,%r8d
    5823:	41 c1 fa 1f          	sar    $0x1f,%r10d
    5827:	f3 45 0f 2a f8       	cvtsi2ss %r8d,%xmm15
    582c:	f3 44 0f 11 ac 24 78 	movss  %xmm13,0x178(%rsp)
    5833:	01 00 00 
    5836:	f3 0f 10 8c 24 78 01 	movss  0x178(%rsp),%xmm1
    583d:	00 00 
    583f:	41 83 ca 01          	or     $0x1,%r10d
    5843:	f3 44 0f 11 bc 24 7c 	movss  %xmm15,0x17c(%rsp)
    584a:	01 00 00 
    584d:	f3 0f 5e 8c 24 7c 01 	divss  0x17c(%rsp),%xmm1
    5854:	00 00 
    5856:	f3 0f 11 8c 24 cc 01 	movss  %xmm1,0x1cc(%rsp)
    585d:	00 00 
    585f:	44 0f 2f b4 24 cc 01 	comiss 0x1cc(%rsp),%xmm14
    5866:	00 00 
    5868:	f3 0f 10 ac 24 cc 01 	movss  0x1cc(%rsp),%xmm5
    586f:	00 00 
    5871:	0f 28 e5             	movaps %xmm5,%xmm4
    5874:	76 19                	jbe    588f <susan_corners+0x9c3>
    5876:	f3 0f 5c e0          	subss  %xmm0,%xmm4
    587a:	f3 0f 11 a4 24 80 01 	movss  %xmm4,0x180(%rsp)
    5881:	00 00 
    5883:	f3 44 0f 2c 8c 24 80 	cvttss2si 0x180(%rsp),%r9d
    588a:	01 00 00 
    588d:	eb 17                	jmp    58a6 <susan_corners+0x9da>
    588f:	f3 0f 58 e0          	addss  %xmm0,%xmm4
    5893:	f3 0f 11 a4 24 84 01 	movss  %xmm4,0x184(%rsp)
    589a:	00 00 
    589c:	f3 44 0f 2c 8c 24 84 	cvttss2si 0x184(%rsp),%r9d
    58a3:	01 00 00 
    58a6:	44 03 4c 24 1c       	add    0x1c(%rsp),%r9d
    58ab:	0f 28 d5             	movaps %xmm5,%xmm2
    58ae:	0f 57 f6             	xorps  %xmm6,%xmm6
    58b1:	48 89 d0             	mov    %rdx,%rax
    58b4:	45 0f af cd          	imul   %r13d,%r9d
    58b8:	44 03 4c 24 20       	add    0x20(%rsp),%r9d
    58bd:	f3 0f 58 d5          	addss  %xmm5,%xmm2
    58c1:	45 01 d1             	add    %r10d,%r9d
    58c4:	49 63 f9             	movslq %r9d,%rdi
    58c7:	45 0f b6 1c 3f       	movzbl (%r15,%rdi,1),%r11d
    58cc:	4c 29 d8             	sub    %r11,%rax
    58cf:	0f b6 08             	movzbl (%rax),%ecx
    58d2:	f3 0f 11 94 24 88 01 	movss  %xmm2,0x188(%rsp)
    58d9:	00 00 
    58db:	0f 2f b4 24 88 01 00 	comiss 0x188(%rsp),%xmm6
    58e2:	00 
    58e3:	f3 0f 10 bc 24 88 01 	movss  0x188(%rsp),%xmm7
    58ea:	00 00 
    58ec:	76 19                	jbe    5907 <susan_corners+0xa3b>
    58ee:	f3 0f 5c f8          	subss  %xmm0,%xmm7
    58f2:	f3 0f 11 bc 24 8c 01 	movss  %xmm7,0x18c(%rsp)
    58f9:	00 00 
    58fb:	f3 44 0f 2c 84 24 8c 	cvttss2si 0x18c(%rsp),%r8d
    5902:	01 00 00 
    5905:	eb 17                	jmp    591e <susan_corners+0xa52>
    5907:	f3 0f 58 f8          	addss  %xmm0,%xmm7
    590b:	f3 0f 11 bc 24 90 01 	movss  %xmm7,0x190(%rsp)
    5912:	00 00 
    5914:	f3 44 0f 2c 84 24 90 	cvttss2si 0x190(%rsp),%r8d
    591b:	01 00 00 
    591e:	f3 0f 59 eb          	mulss  %xmm3,%xmm5
    5922:	44 03 44 24 1c       	add    0x1c(%rsp),%r8d
    5927:	45 0f 57 c0          	xorps  %xmm8,%xmm8
    592b:	48 89 d0             	mov    %rdx,%rax
    592e:	45 0f af c5          	imul   %r13d,%r8d
    5932:	44 03 44 24 20       	add    0x20(%rsp),%r8d
    5937:	47 8d 0c 50          	lea    (%r8,%r10,2),%r9d
    593b:	49 63 f9             	movslq %r9d,%rdi
    593e:	45 0f b6 1c 3f       	movzbl (%r15,%rdi,1),%r11d
    5943:	4c 29 d8             	sub    %r11,%rax
    5946:	44 0f b6 00          	movzbl (%rax),%r8d
    594a:	f3 0f 11 ac 24 94 01 	movss  %xmm5,0x194(%rsp)
    5951:	00 00 
    5953:	f3 44 0f 10 8c 24 94 	movss  0x194(%rsp),%xmm9
    595a:	01 00 00 
    595d:	41 01 c8             	add    %ecx,%r8d
    5960:	44 0f 2f 84 24 94 01 	comiss 0x194(%rsp),%xmm8
    5967:	00 00 
    5969:	76 1b                	jbe    5986 <susan_corners+0xaba>
    596b:	f3 44 0f 5c c8       	subss  %xmm0,%xmm9
    5970:	f3 44 0f 11 8c 24 98 	movss  %xmm9,0x198(%rsp)
    5977:	01 00 00 
    597a:	f3 44 0f 2c 8c 24 98 	cvttss2si 0x198(%rsp),%r9d
    5981:	01 00 00 
    5984:	eb 19                	jmp    599f <susan_corners+0xad3>
    5986:	f3 44 0f 58 c8       	addss  %xmm0,%xmm9
    598b:	f3 44 0f 11 8c 24 9c 	movss  %xmm9,0x19c(%rsp)
    5992:	01 00 00 
    5995:	f3 44 0f 2c 8c 24 9c 	cvttss2si 0x19c(%rsp),%r9d
    599c:	01 00 00 
    599f:	44 03 4c 24 1c       	add    0x1c(%rsp),%r9d
    59a4:	47 8d 14 52          	lea    (%r10,%r10,2),%r10d
    59a8:	45 0f af cd          	imul   %r13d,%r9d
    59ac:	44 03 4c 24 20       	add    0x20(%rsp),%r9d
    59b1:	45 01 d1             	add    %r10d,%r9d
    59b4:	49 63 c9             	movslq %r9d,%rcx
    59b7:	41 0f b6 3c 0f       	movzbl (%r15,%rcx,1),%edi
    59bc:	48 29 fa             	sub    %rdi,%rdx
    59bf:	0f b6 12             	movzbl (%rdx),%edx
    59c2:	44 01 c2             	add    %r8d,%edx
    59c5:	e9 b5 01 00 00       	jmp    5b7f <susan_corners+0xcb3>
    59ca:	89 f1                	mov    %esi,%ecx
    59cc:	41 89 f0             	mov    %esi,%r8d
    59cf:	8b 7c 24 1c          	mov    0x1c(%rsp),%edi
    59d3:	0f 57 d2             	xorps  %xmm2,%xmm2
    59d6:	f7 d9                	neg    %ecx
    59d8:	f3 0f 2a cd          	cvtsi2ss %ebp,%xmm1
    59dc:	0f 48 ce             	cmovs  %esi,%ecx
    59df:	41 c1 f8 1f          	sar    $0x1f,%r8d
    59e3:	f3 0f 2a e1          	cvtsi2ss %ecx,%xmm4
    59e7:	41 83 c8 01          	or     $0x1,%r8d
    59eb:	f3 0f 11 8c 24 a0 01 	movss  %xmm1,0x1a0(%rsp)
    59f2:	00 00 
    59f4:	42 8d 04 07          	lea    (%rdi,%r8,1),%eax
    59f8:	f3 0f 10 ac 24 a0 01 	movss  0x1a0(%rsp),%xmm5
    59ff:	00 00 
    5a01:	41 89 c2             	mov    %eax,%r10d
    5a04:	45 0f af d5          	imul   %r13d,%r10d
    5a08:	f3 0f 11 a4 24 a4 01 	movss  %xmm4,0x1a4(%rsp)
    5a0f:	00 00 
    5a11:	44 03 54 24 20       	add    0x20(%rsp),%r10d
    5a16:	f3 0f 5e ac 24 a4 01 	divss  0x1a4(%rsp),%xmm5
    5a1d:	00 00 
    5a1f:	f3 0f 11 ac 24 c8 01 	movss  %xmm5,0x1c8(%rsp)
    5a26:	00 00 
    5a28:	0f 2f 94 24 c8 01 00 	comiss 0x1c8(%rsp),%xmm2
    5a2f:	00 
    5a30:	f3 0f 10 b4 24 c8 01 	movss  0x1c8(%rsp),%xmm6
    5a37:	00 00 
    5a39:	0f 28 fe             	movaps %xmm6,%xmm7
    5a3c:	76 19                	jbe    5a57 <susan_corners+0xb8b>
    5a3e:	f3 0f 5c f8          	subss  %xmm0,%xmm7
    5a42:	f3 0f 11 bc 24 a8 01 	movss  %xmm7,0x1a8(%rsp)
    5a49:	00 00 
    5a4b:	f3 44 0f 2c 9c 24 a8 	cvttss2si 0x1a8(%rsp),%r11d
    5a52:	01 00 00 
    5a55:	eb 17                	jmp    5a6e <susan_corners+0xba2>
    5a57:	f3 0f 58 f8          	addss  %xmm0,%xmm7
    5a5b:	f3 0f 11 bc 24 ac 01 	movss  %xmm7,0x1ac(%rsp)
    5a62:	00 00 
    5a64:	f3 44 0f 2c 9c 24 ac 	cvttss2si 0x1ac(%rsp),%r11d
    5a6b:	01 00 00 
    5a6e:	45 01 d3             	add    %r10d,%r11d
    5a71:	44 0f 28 ce          	movaps %xmm6,%xmm9
    5a75:	44 01 c0             	add    %r8d,%eax
    5a78:	48 89 d7             	mov    %rdx,%rdi
    5a7b:	49 63 cb             	movslq %r11d,%rcx
    5a7e:	f3 44 0f 58 ce       	addss  %xmm6,%xmm9
    5a83:	45 0f 57 c0          	xorps  %xmm8,%xmm8
    5a87:	41 89 c1             	mov    %eax,%r9d
    5a8a:	45 0f b6 14 0f       	movzbl (%r15,%rcx,1),%r10d
    5a8f:	45 0f af cd          	imul   %r13d,%r9d
    5a93:	44 03 4c 24 20       	add    0x20(%rsp),%r9d
    5a98:	4c 29 d7             	sub    %r10,%rdi
